
MDP.elf:     file format elf32-littlearm

Sections:
Idx Name          Size      VMA       LMA       File off  Algn
  0 .isr_vector   00000188  08000000  08000000  00010000  2**0
                  CONTENTS, ALLOC, LOAD, READONLY, DATA
  1 .text         000071c8  08000190  08000190  00010190  2**4
                  CONTENTS, ALLOC, LOAD, READONLY, CODE
  2 .rodata       00000e44  08007358  08007358  00017358  2**2
                  CONTENTS, ALLOC, LOAD, READONLY, DATA
  3 .ARM.extab    00000000  0800819c  0800819c  00020074  2**0
                  CONTENTS
  4 .ARM          00000008  0800819c  0800819c  0001819c  2**2
                  CONTENTS, ALLOC, LOAD, READONLY, DATA
  5 .preinit_array 00000000  080081a4  080081a4  00020074  2**0
                  CONTENTS, ALLOC, LOAD, DATA
  6 .init_array   00000004  080081a4  080081a4  000181a4  2**2
                  CONTENTS, ALLOC, LOAD, DATA
  7 .fini_array   00000004  080081a8  080081a8  000181a8  2**2
                  CONTENTS, ALLOC, LOAD, DATA
  8 .data         00000074  20000000  080081ac  00020000  2**2
                  CONTENTS, ALLOC, LOAD, DATA
  9 .ccmram       00000000  10000000  10000000  00020074  2**0
                  CONTENTS
 10 .bss          00009fd0  20000074  20000074  00020074  2**2
                  ALLOC
 11 ._user_heap_stack 00000604  2000a044  2000a044  00020074  2**0
                  ALLOC
 12 .ARM.attributes 00000030  00000000  00000000  00020074  2**0
                  CONTENTS, READONLY
 13 .comment      00000053  00000000  00000000  000200a4  2**0
                  CONTENTS, READONLY
 14 .debug_frame  000006c8  00000000  00000000  000200f8  2**2
                  CONTENTS, READONLY, DEBUGGING, OCTETS

Disassembly of section .text:

08000190 <__do_global_dtors_aux>:
 8000190:	b510      	push	{r4, lr}
 8000192:	4c05      	ldr	r4, [pc, #20]	; (80001a8 <__do_global_dtors_aux+0x18>)
 8000194:	7823      	ldrb	r3, [r4, #0]
 8000196:	b933      	cbnz	r3, 80001a6 <__do_global_dtors_aux+0x16>
 8000198:	4b04      	ldr	r3, [pc, #16]	; (80001ac <__do_global_dtors_aux+0x1c>)
 800019a:	b113      	cbz	r3, 80001a2 <__do_global_dtors_aux+0x12>
 800019c:	4804      	ldr	r0, [pc, #16]	; (80001b0 <__do_global_dtors_aux+0x20>)
 800019e:	f3af 8000 	nop.w
 80001a2:	2301      	movs	r3, #1
 80001a4:	7023      	strb	r3, [r4, #0]
 80001a6:	bd10      	pop	{r4, pc}
 80001a8:	20000074 	.word	0x20000074
 80001ac:	00000000 	.word	0x00000000
 80001b0:	08007340 	.word	0x08007340

080001b4 <frame_dummy>:
 80001b4:	b508      	push	{r3, lr}
 80001b6:	4b03      	ldr	r3, [pc, #12]	; (80001c4 <frame_dummy+0x10>)
 80001b8:	b11b      	cbz	r3, 80001c2 <frame_dummy+0xe>
 80001ba:	4903      	ldr	r1, [pc, #12]	; (80001c8 <frame_dummy+0x14>)
 80001bc:	4803      	ldr	r0, [pc, #12]	; (80001cc <frame_dummy+0x18>)
 80001be:	f3af 8000 	nop.w
 80001c2:	bd08      	pop	{r3, pc}
 80001c4:	00000000 	.word	0x00000000
 80001c8:	20000078 	.word	0x20000078
 80001cc:	08007340 	.word	0x08007340

080001d0 <memchr>:
 80001d0:	f001 01ff 	and.w	r1, r1, #255	; 0xff
 80001d4:	2a10      	cmp	r2, #16
 80001d6:	db2b      	blt.n	8000230 <memchr+0x60>
 80001d8:	f010 0f07 	tst.w	r0, #7
 80001dc:	d008      	beq.n	80001f0 <memchr+0x20>
 80001de:	f810 3b01 	ldrb.w	r3, [r0], #1
 80001e2:	3a01      	subs	r2, #1
 80001e4:	428b      	cmp	r3, r1
 80001e6:	d02d      	beq.n	8000244 <memchr+0x74>
 80001e8:	f010 0f07 	tst.w	r0, #7
 80001ec:	b342      	cbz	r2, 8000240 <memchr+0x70>
 80001ee:	d1f6      	bne.n	80001de <memchr+0xe>
 80001f0:	b4f0      	push	{r4, r5, r6, r7}
 80001f2:	ea41 2101 	orr.w	r1, r1, r1, lsl #8
 80001f6:	ea41 4101 	orr.w	r1, r1, r1, lsl #16
 80001fa:	f022 0407 	bic.w	r4, r2, #7
 80001fe:	f07f 0700 	mvns.w	r7, #0
 8000202:	2300      	movs	r3, #0
 8000204:	e8f0 5602 	ldrd	r5, r6, [r0], #8
 8000208:	3c08      	subs	r4, #8
 800020a:	ea85 0501 	eor.w	r5, r5, r1
 800020e:	ea86 0601 	eor.w	r6, r6, r1
 8000212:	fa85 f547 	uadd8	r5, r5, r7
 8000216:	faa3 f587 	sel	r5, r3, r7
 800021a:	fa86 f647 	uadd8	r6, r6, r7
 800021e:	faa5 f687 	sel	r6, r5, r7
 8000222:	b98e      	cbnz	r6, 8000248 <memchr+0x78>
 8000224:	d1ee      	bne.n	8000204 <memchr+0x34>
 8000226:	bcf0      	pop	{r4, r5, r6, r7}
 8000228:	f001 01ff 	and.w	r1, r1, #255	; 0xff
 800022c:	f002 0207 	and.w	r2, r2, #7
 8000230:	b132      	cbz	r2, 8000240 <memchr+0x70>
 8000232:	f810 3b01 	ldrb.w	r3, [r0], #1
 8000236:	3a01      	subs	r2, #1
 8000238:	ea83 0301 	eor.w	r3, r3, r1
 800023c:	b113      	cbz	r3, 8000244 <memchr+0x74>
 800023e:	d1f8      	bne.n	8000232 <memchr+0x62>
 8000240:	2000      	movs	r0, #0
 8000242:	4770      	bx	lr
 8000244:	3801      	subs	r0, #1
 8000246:	4770      	bx	lr
 8000248:	2d00      	cmp	r5, #0
 800024a:	bf06      	itte	eq
 800024c:	4635      	moveq	r5, r6
 800024e:	3803      	subeq	r0, #3
 8000250:	3807      	subne	r0, #7
 8000252:	f015 0f01 	tst.w	r5, #1
 8000256:	d107      	bne.n	8000268 <memchr+0x98>
 8000258:	3001      	adds	r0, #1
 800025a:	f415 7f80 	tst.w	r5, #256	; 0x100
 800025e:	bf02      	ittt	eq
 8000260:	3001      	addeq	r0, #1
 8000262:	f415 3fc0 	tsteq.w	r5, #98304	; 0x18000
 8000266:	3001      	addeq	r0, #1
 8000268:	bcf0      	pop	{r4, r5, r6, r7}
 800026a:	3801      	subs	r0, #1
 800026c:	4770      	bx	lr
 800026e:	bf00      	nop

08000270 <__aeabi_dmul>:
 8000270:	b570      	push	{r4, r5, r6, lr}
 8000272:	f04f 0cff 	mov.w	ip, #255	; 0xff
 8000276:	f44c 6ce0 	orr.w	ip, ip, #1792	; 0x700
 800027a:	ea1c 5411 	ands.w	r4, ip, r1, lsr #20
 800027e:	bf1d      	ittte	ne
 8000280:	ea1c 5513 	andsne.w	r5, ip, r3, lsr #20
 8000284:	ea94 0f0c 	teqne	r4, ip
 8000288:	ea95 0f0c 	teqne	r5, ip
 800028c:	f000 f8de 	bleq	800044c <__aeabi_dmul+0x1dc>
 8000290:	442c      	add	r4, r5
 8000292:	ea81 0603 	eor.w	r6, r1, r3
 8000296:	ea21 514c 	bic.w	r1, r1, ip, lsl #21
 800029a:	ea23 534c 	bic.w	r3, r3, ip, lsl #21
 800029e:	ea50 3501 	orrs.w	r5, r0, r1, lsl #12
 80002a2:	bf18      	it	ne
 80002a4:	ea52 3503 	orrsne.w	r5, r2, r3, lsl #12
 80002a8:	f441 1180 	orr.w	r1, r1, #1048576	; 0x100000
 80002ac:	f443 1380 	orr.w	r3, r3, #1048576	; 0x100000
 80002b0:	d038      	beq.n	8000324 <__aeabi_dmul+0xb4>
 80002b2:	fba0 ce02 	umull	ip, lr, r0, r2
 80002b6:	f04f 0500 	mov.w	r5, #0
 80002ba:	fbe1 e502 	umlal	lr, r5, r1, r2
 80002be:	f006 4200 	and.w	r2, r6, #2147483648	; 0x80000000
 80002c2:	fbe0 e503 	umlal	lr, r5, r0, r3
 80002c6:	f04f 0600 	mov.w	r6, #0
 80002ca:	fbe1 5603 	umlal	r5, r6, r1, r3
 80002ce:	f09c 0f00 	teq	ip, #0
 80002d2:	bf18      	it	ne
 80002d4:	f04e 0e01 	orrne.w	lr, lr, #1
 80002d8:	f1a4 04ff 	sub.w	r4, r4, #255	; 0xff
 80002dc:	f5b6 7f00 	cmp.w	r6, #512	; 0x200
 80002e0:	f564 7440 	sbc.w	r4, r4, #768	; 0x300
 80002e4:	d204      	bcs.n	80002f0 <__aeabi_dmul+0x80>
 80002e6:	ea5f 0e4e 	movs.w	lr, lr, lsl #1
 80002ea:	416d      	adcs	r5, r5
 80002ec:	eb46 0606 	adc.w	r6, r6, r6
 80002f0:	ea42 21c6 	orr.w	r1, r2, r6, lsl #11
 80002f4:	ea41 5155 	orr.w	r1, r1, r5, lsr #21
 80002f8:	ea4f 20c5 	mov.w	r0, r5, lsl #11
 80002fc:	ea40 505e 	orr.w	r0, r0, lr, lsr #21
 8000300:	ea4f 2ece 	mov.w	lr, lr, lsl #11
 8000304:	f1b4 0cfd 	subs.w	ip, r4, #253	; 0xfd
 8000308:	bf88      	it	hi
 800030a:	f5bc 6fe0 	cmphi.w	ip, #1792	; 0x700
 800030e:	d81e      	bhi.n	800034e <__aeabi_dmul+0xde>
 8000310:	f1be 4f00 	cmp.w	lr, #2147483648	; 0x80000000
 8000314:	bf08      	it	eq
 8000316:	ea5f 0e50 	movseq.w	lr, r0, lsr #1
 800031a:	f150 0000 	adcs.w	r0, r0, #0
 800031e:	eb41 5104 	adc.w	r1, r1, r4, lsl #20
 8000322:	bd70      	pop	{r4, r5, r6, pc}
 8000324:	f006 4600 	and.w	r6, r6, #2147483648	; 0x80000000
 8000328:	ea46 0101 	orr.w	r1, r6, r1
 800032c:	ea40 0002 	orr.w	r0, r0, r2
 8000330:	ea81 0103 	eor.w	r1, r1, r3
 8000334:	ebb4 045c 	subs.w	r4, r4, ip, lsr #1
 8000338:	bfc2      	ittt	gt
 800033a:	ebd4 050c 	rsbsgt	r5, r4, ip
 800033e:	ea41 5104 	orrgt.w	r1, r1, r4, lsl #20
 8000342:	bd70      	popgt	{r4, r5, r6, pc}
 8000344:	f441 1180 	orr.w	r1, r1, #1048576	; 0x100000
 8000348:	f04f 0e00 	mov.w	lr, #0
 800034c:	3c01      	subs	r4, #1
 800034e:	f300 80ab 	bgt.w	80004a8 <__aeabi_dmul+0x238>
 8000352:	f114 0f36 	cmn.w	r4, #54	; 0x36
 8000356:	bfde      	ittt	le
 8000358:	2000      	movle	r0, #0
 800035a:	f001 4100 	andle.w	r1, r1, #2147483648	; 0x80000000
 800035e:	bd70      	pople	{r4, r5, r6, pc}
 8000360:	f1c4 0400 	rsb	r4, r4, #0
 8000364:	3c20      	subs	r4, #32
 8000366:	da35      	bge.n	80003d4 <__aeabi_dmul+0x164>
 8000368:	340c      	adds	r4, #12
 800036a:	dc1b      	bgt.n	80003a4 <__aeabi_dmul+0x134>
 800036c:	f104 0414 	add.w	r4, r4, #20
 8000370:	f1c4 0520 	rsb	r5, r4, #32
 8000374:	fa00 f305 	lsl.w	r3, r0, r5
 8000378:	fa20 f004 	lsr.w	r0, r0, r4
 800037c:	fa01 f205 	lsl.w	r2, r1, r5
 8000380:	ea40 0002 	orr.w	r0, r0, r2
 8000384:	f001 4200 	and.w	r2, r1, #2147483648	; 0x80000000
 8000388:	f021 4100 	bic.w	r1, r1, #2147483648	; 0x80000000
 800038c:	eb10 70d3 	adds.w	r0, r0, r3, lsr #31
 8000390:	fa21 f604 	lsr.w	r6, r1, r4
 8000394:	eb42 0106 	adc.w	r1, r2, r6
 8000398:	ea5e 0e43 	orrs.w	lr, lr, r3, lsl #1
 800039c:	bf08      	it	eq
 800039e:	ea20 70d3 	biceq.w	r0, r0, r3, lsr #31
 80003a2:	bd70      	pop	{r4, r5, r6, pc}
 80003a4:	f1c4 040c 	rsb	r4, r4, #12
 80003a8:	f1c4 0520 	rsb	r5, r4, #32
 80003ac:	fa00 f304 	lsl.w	r3, r0, r4
 80003b0:	fa20 f005 	lsr.w	r0, r0, r5
 80003b4:	fa01 f204 	lsl.w	r2, r1, r4
 80003b8:	ea40 0002 	orr.w	r0, r0, r2
 80003bc:	f001 4100 	and.w	r1, r1, #2147483648	; 0x80000000
 80003c0:	eb10 70d3 	adds.w	r0, r0, r3, lsr #31
 80003c4:	f141 0100 	adc.w	r1, r1, #0
 80003c8:	ea5e 0e43 	orrs.w	lr, lr, r3, lsl #1
 80003cc:	bf08      	it	eq
 80003ce:	ea20 70d3 	biceq.w	r0, r0, r3, lsr #31
 80003d2:	bd70      	pop	{r4, r5, r6, pc}
 80003d4:	f1c4 0520 	rsb	r5, r4, #32
 80003d8:	fa00 f205 	lsl.w	r2, r0, r5
 80003dc:	ea4e 0e02 	orr.w	lr, lr, r2
 80003e0:	fa20 f304 	lsr.w	r3, r0, r4
 80003e4:	fa01 f205 	lsl.w	r2, r1, r5
 80003e8:	ea43 0302 	orr.w	r3, r3, r2
 80003ec:	fa21 f004 	lsr.w	r0, r1, r4
 80003f0:	f001 4100 	and.w	r1, r1, #2147483648	; 0x80000000
 80003f4:	fa21 f204 	lsr.w	r2, r1, r4
 80003f8:	ea20 0002 	bic.w	r0, r0, r2
 80003fc:	eb00 70d3 	add.w	r0, r0, r3, lsr #31
 8000400:	ea5e 0e43 	orrs.w	lr, lr, r3, lsl #1
 8000404:	bf08      	it	eq
 8000406:	ea20 70d3 	biceq.w	r0, r0, r3, lsr #31
 800040a:	bd70      	pop	{r4, r5, r6, pc}
 800040c:	f094 0f00 	teq	r4, #0
 8000410:	d10f      	bne.n	8000432 <__aeabi_dmul+0x1c2>
 8000412:	f001 4600 	and.w	r6, r1, #2147483648	; 0x80000000
 8000416:	0040      	lsls	r0, r0, #1
 8000418:	eb41 0101 	adc.w	r1, r1, r1
 800041c:	f411 1f80 	tst.w	r1, #1048576	; 0x100000
 8000420:	bf08      	it	eq
 8000422:	3c01      	subeq	r4, #1
 8000424:	d0f7      	beq.n	8000416 <__aeabi_dmul+0x1a6>
 8000426:	ea41 0106 	orr.w	r1, r1, r6
 800042a:	f095 0f00 	teq	r5, #0
 800042e:	bf18      	it	ne
 8000430:	4770      	bxne	lr
 8000432:	f003 4600 	and.w	r6, r3, #2147483648	; 0x80000000
 8000436:	0052      	lsls	r2, r2, #1
 8000438:	eb43 0303 	adc.w	r3, r3, r3
 800043c:	f413 1f80 	tst.w	r3, #1048576	; 0x100000
 8000440:	bf08      	it	eq
 8000442:	3d01      	subeq	r5, #1
 8000444:	d0f7      	beq.n	8000436 <__aeabi_dmul+0x1c6>
 8000446:	ea43 0306 	orr.w	r3, r3, r6
 800044a:	4770      	bx	lr
 800044c:	ea94 0f0c 	teq	r4, ip
 8000450:	ea0c 5513 	and.w	r5, ip, r3, lsr #20
 8000454:	bf18      	it	ne
 8000456:	ea95 0f0c 	teqne	r5, ip
 800045a:	d00c      	beq.n	8000476 <__aeabi_dmul+0x206>
 800045c:	ea50 0641 	orrs.w	r6, r0, r1, lsl #1
 8000460:	bf18      	it	ne
 8000462:	ea52 0643 	orrsne.w	r6, r2, r3, lsl #1
 8000466:	d1d1      	bne.n	800040c <__aeabi_dmul+0x19c>
 8000468:	ea81 0103 	eor.w	r1, r1, r3
 800046c:	f001 4100 	and.w	r1, r1, #2147483648	; 0x80000000
 8000470:	f04f 0000 	mov.w	r0, #0
 8000474:	bd70      	pop	{r4, r5, r6, pc}
 8000476:	ea50 0641 	orrs.w	r6, r0, r1, lsl #1
 800047a:	bf06      	itte	eq
 800047c:	4610      	moveq	r0, r2
 800047e:	4619      	moveq	r1, r3
 8000480:	ea52 0643 	orrsne.w	r6, r2, r3, lsl #1
 8000484:	d019      	beq.n	80004ba <__aeabi_dmul+0x24a>
 8000486:	ea94 0f0c 	teq	r4, ip
 800048a:	d102      	bne.n	8000492 <__aeabi_dmul+0x222>
 800048c:	ea50 3601 	orrs.w	r6, r0, r1, lsl #12
 8000490:	d113      	bne.n	80004ba <__aeabi_dmul+0x24a>
 8000492:	ea95 0f0c 	teq	r5, ip
 8000496:	d105      	bne.n	80004a4 <__aeabi_dmul+0x234>
 8000498:	ea52 3603 	orrs.w	r6, r2, r3, lsl #12
 800049c:	bf1c      	itt	ne
 800049e:	4610      	movne	r0, r2
 80004a0:	4619      	movne	r1, r3
 80004a2:	d10a      	bne.n	80004ba <__aeabi_dmul+0x24a>
 80004a4:	ea81 0103 	eor.w	r1, r1, r3
 80004a8:	f001 4100 	and.w	r1, r1, #2147483648	; 0x80000000
 80004ac:	f041 41fe 	orr.w	r1, r1, #2130706432	; 0x7f000000
 80004b0:	f441 0170 	orr.w	r1, r1, #15728640	; 0xf00000
 80004b4:	f04f 0000 	mov.w	r0, #0
 80004b8:	bd70      	pop	{r4, r5, r6, pc}
 80004ba:	f041 41fe 	orr.w	r1, r1, #2130706432	; 0x7f000000
 80004be:	f441 0178 	orr.w	r1, r1, #16252928	; 0xf80000
 80004c2:	bd70      	pop	{r4, r5, r6, pc}

080004c4 <__aeabi_drsub>:
 80004c4:	f081 4100 	eor.w	r1, r1, #2147483648	; 0x80000000
 80004c8:	e002      	b.n	80004d0 <__adddf3>
 80004ca:	bf00      	nop

080004cc <__aeabi_dsub>:
 80004cc:	f083 4300 	eor.w	r3, r3, #2147483648	; 0x80000000

080004d0 <__adddf3>:
 80004d0:	b530      	push	{r4, r5, lr}
 80004d2:	ea4f 0441 	mov.w	r4, r1, lsl #1
 80004d6:	ea4f 0543 	mov.w	r5, r3, lsl #1
 80004da:	ea94 0f05 	teq	r4, r5
 80004de:	bf08      	it	eq
 80004e0:	ea90 0f02 	teqeq	r0, r2
 80004e4:	bf1f      	itttt	ne
 80004e6:	ea54 0c00 	orrsne.w	ip, r4, r0
 80004ea:	ea55 0c02 	orrsne.w	ip, r5, r2
 80004ee:	ea7f 5c64 	mvnsne.w	ip, r4, asr #21
 80004f2:	ea7f 5c65 	mvnsne.w	ip, r5, asr #21
 80004f6:	f000 80e2 	beq.w	80006be <__adddf3+0x1ee>
 80004fa:	ea4f 5454 	mov.w	r4, r4, lsr #21
 80004fe:	ebd4 5555 	rsbs	r5, r4, r5, lsr #21
 8000502:	bfb8      	it	lt
 8000504:	426d      	neglt	r5, r5
 8000506:	dd0c      	ble.n	8000522 <__adddf3+0x52>
 8000508:	442c      	add	r4, r5
 800050a:	ea80 0202 	eor.w	r2, r0, r2
 800050e:	ea81 0303 	eor.w	r3, r1, r3
 8000512:	ea82 0000 	eor.w	r0, r2, r0
 8000516:	ea83 0101 	eor.w	r1, r3, r1
 800051a:	ea80 0202 	eor.w	r2, r0, r2
 800051e:	ea81 0303 	eor.w	r3, r1, r3
 8000522:	2d36      	cmp	r5, #54	; 0x36
 8000524:	bf88      	it	hi
 8000526:	bd30      	pophi	{r4, r5, pc}
 8000528:	f011 4f00 	tst.w	r1, #2147483648	; 0x80000000
 800052c:	ea4f 3101 	mov.w	r1, r1, lsl #12
 8000530:	f44f 1c80 	mov.w	ip, #1048576	; 0x100000
 8000534:	ea4c 3111 	orr.w	r1, ip, r1, lsr #12
 8000538:	d002      	beq.n	8000540 <__adddf3+0x70>
 800053a:	4240      	negs	r0, r0
 800053c:	eb61 0141 	sbc.w	r1, r1, r1, lsl #1
 8000540:	f013 4f00 	tst.w	r3, #2147483648	; 0x80000000
 8000544:	ea4f 3303 	mov.w	r3, r3, lsl #12
 8000548:	ea4c 3313 	orr.w	r3, ip, r3, lsr #12
 800054c:	d002      	beq.n	8000554 <__adddf3+0x84>
 800054e:	4252      	negs	r2, r2
 8000550:	eb63 0343 	sbc.w	r3, r3, r3, lsl #1
 8000554:	ea94 0f05 	teq	r4, r5
 8000558:	f000 80a7 	beq.w	80006aa <__adddf3+0x1da>
 800055c:	f1a4 0401 	sub.w	r4, r4, #1
 8000560:	f1d5 0e20 	rsbs	lr, r5, #32
 8000564:	db0d      	blt.n	8000582 <__adddf3+0xb2>
 8000566:	fa02 fc0e 	lsl.w	ip, r2, lr
 800056a:	fa22 f205 	lsr.w	r2, r2, r5
 800056e:	1880      	adds	r0, r0, r2
 8000570:	f141 0100 	adc.w	r1, r1, #0
 8000574:	fa03 f20e 	lsl.w	r2, r3, lr
 8000578:	1880      	adds	r0, r0, r2
 800057a:	fa43 f305 	asr.w	r3, r3, r5
 800057e:	4159      	adcs	r1, r3
 8000580:	e00e      	b.n	80005a0 <__adddf3+0xd0>
 8000582:	f1a5 0520 	sub.w	r5, r5, #32
 8000586:	f10e 0e20 	add.w	lr, lr, #32
 800058a:	2a01      	cmp	r2, #1
 800058c:	fa03 fc0e 	lsl.w	ip, r3, lr
 8000590:	bf28      	it	cs
 8000592:	f04c 0c02 	orrcs.w	ip, ip, #2
 8000596:	fa43 f305 	asr.w	r3, r3, r5
 800059a:	18c0      	adds	r0, r0, r3
 800059c:	eb51 71e3 	adcs.w	r1, r1, r3, asr #31
 80005a0:	f001 4500 	and.w	r5, r1, #2147483648	; 0x80000000
 80005a4:	d507      	bpl.n	80005b6 <__adddf3+0xe6>
 80005a6:	f04f 0e00 	mov.w	lr, #0
 80005aa:	f1dc 0c00 	rsbs	ip, ip, #0
 80005ae:	eb7e 0000 	sbcs.w	r0, lr, r0
 80005b2:	eb6e 0101 	sbc.w	r1, lr, r1
 80005b6:	f5b1 1f80 	cmp.w	r1, #1048576	; 0x100000
 80005ba:	d31b      	bcc.n	80005f4 <__adddf3+0x124>
 80005bc:	f5b1 1f00 	cmp.w	r1, #2097152	; 0x200000
 80005c0:	d30c      	bcc.n	80005dc <__adddf3+0x10c>
 80005c2:	0849      	lsrs	r1, r1, #1
 80005c4:	ea5f 0030 	movs.w	r0, r0, rrx
 80005c8:	ea4f 0c3c 	mov.w	ip, ip, rrx
 80005cc:	f104 0401 	add.w	r4, r4, #1
 80005d0:	ea4f 5244 	mov.w	r2, r4, lsl #21
 80005d4:	f512 0f80 	cmn.w	r2, #4194304	; 0x400000
 80005d8:	f080 809a 	bcs.w	8000710 <__adddf3+0x240>
 80005dc:	f1bc 4f00 	cmp.w	ip, #2147483648	; 0x80000000
 80005e0:	bf08      	it	eq
 80005e2:	ea5f 0c50 	movseq.w	ip, r0, lsr #1
 80005e6:	f150 0000 	adcs.w	r0, r0, #0
 80005ea:	eb41 5104 	adc.w	r1, r1, r4, lsl #20
 80005ee:	ea41 0105 	orr.w	r1, r1, r5
 80005f2:	bd30      	pop	{r4, r5, pc}
 80005f4:	ea5f 0c4c 	movs.w	ip, ip, lsl #1
 80005f8:	4140      	adcs	r0, r0
 80005fa:	eb41 0101 	adc.w	r1, r1, r1
 80005fe:	3c01      	subs	r4, #1
 8000600:	bf28      	it	cs
 8000602:	f5b1 1f80 	cmpcs.w	r1, #1048576	; 0x100000
 8000606:	d2e9      	bcs.n	80005dc <__adddf3+0x10c>
 8000608:	f091 0f00 	teq	r1, #0
 800060c:	bf04      	itt	eq
 800060e:	4601      	moveq	r1, r0
 8000610:	2000      	moveq	r0, #0
 8000612:	fab1 f381 	clz	r3, r1
 8000616:	bf08      	it	eq
 8000618:	3320      	addeq	r3, #32
 800061a:	f1a3 030b 	sub.w	r3, r3, #11
 800061e:	f1b3 0220 	subs.w	r2, r3, #32
 8000622:	da0c      	bge.n	800063e <__adddf3+0x16e>
 8000624:	320c      	adds	r2, #12
 8000626:	dd08      	ble.n	800063a <__adddf3+0x16a>
 8000628:	f102 0c14 	add.w	ip, r2, #20
 800062c:	f1c2 020c 	rsb	r2, r2, #12
 8000630:	fa01 f00c 	lsl.w	r0, r1, ip
 8000634:	fa21 f102 	lsr.w	r1, r1, r2
 8000638:	e00c      	b.n	8000654 <__adddf3+0x184>
 800063a:	f102 0214 	add.w	r2, r2, #20
 800063e:	bfd8      	it	le
 8000640:	f1c2 0c20 	rsble	ip, r2, #32
 8000644:	fa01 f102 	lsl.w	r1, r1, r2
 8000648:	fa20 fc0c 	lsr.w	ip, r0, ip
 800064c:	bfdc      	itt	le
 800064e:	ea41 010c 	orrle.w	r1, r1, ip
 8000652:	4090      	lslle	r0, r2
 8000654:	1ae4      	subs	r4, r4, r3
 8000656:	bfa2      	ittt	ge
 8000658:	eb01 5104 	addge.w	r1, r1, r4, lsl #20
 800065c:	4329      	orrge	r1, r5
 800065e:	bd30      	popge	{r4, r5, pc}
 8000660:	ea6f 0404 	mvn.w	r4, r4
 8000664:	3c1f      	subs	r4, #31
 8000666:	da1c      	bge.n	80006a2 <__adddf3+0x1d2>
 8000668:	340c      	adds	r4, #12
 800066a:	dc0e      	bgt.n	800068a <__adddf3+0x1ba>
 800066c:	f104 0414 	add.w	r4, r4, #20
 8000670:	f1c4 0220 	rsb	r2, r4, #32
 8000674:	fa20 f004 	lsr.w	r0, r0, r4
 8000678:	fa01 f302 	lsl.w	r3, r1, r2
 800067c:	ea40 0003 	orr.w	r0, r0, r3
 8000680:	fa21 f304 	lsr.w	r3, r1, r4
 8000684:	ea45 0103 	orr.w	r1, r5, r3
 8000688:	bd30      	pop	{r4, r5, pc}
 800068a:	f1c4 040c 	rsb	r4, r4, #12
 800068e:	f1c4 0220 	rsb	r2, r4, #32
 8000692:	fa20 f002 	lsr.w	r0, r0, r2
 8000696:	fa01 f304 	lsl.w	r3, r1, r4
 800069a:	ea40 0003 	orr.w	r0, r0, r3
 800069e:	4629      	mov	r1, r5
 80006a0:	bd30      	pop	{r4, r5, pc}
 80006a2:	fa21 f004 	lsr.w	r0, r1, r4
 80006a6:	4629      	mov	r1, r5
 80006a8:	bd30      	pop	{r4, r5, pc}
 80006aa:	f094 0f00 	teq	r4, #0
 80006ae:	f483 1380 	eor.w	r3, r3, #1048576	; 0x100000
 80006b2:	bf06      	itte	eq
 80006b4:	f481 1180 	eoreq.w	r1, r1, #1048576	; 0x100000
 80006b8:	3401      	addeq	r4, #1
 80006ba:	3d01      	subne	r5, #1
 80006bc:	e74e      	b.n	800055c <__adddf3+0x8c>
 80006be:	ea7f 5c64 	mvns.w	ip, r4, asr #21
 80006c2:	bf18      	it	ne
 80006c4:	ea7f 5c65 	mvnsne.w	ip, r5, asr #21
 80006c8:	d029      	beq.n	800071e <__adddf3+0x24e>
 80006ca:	ea94 0f05 	teq	r4, r5
 80006ce:	bf08      	it	eq
 80006d0:	ea90 0f02 	teqeq	r0, r2
 80006d4:	d005      	beq.n	80006e2 <__adddf3+0x212>
 80006d6:	ea54 0c00 	orrs.w	ip, r4, r0
 80006da:	bf04      	itt	eq
 80006dc:	4619      	moveq	r1, r3
 80006de:	4610      	moveq	r0, r2
 80006e0:	bd30      	pop	{r4, r5, pc}
 80006e2:	ea91 0f03 	teq	r1, r3
 80006e6:	bf1e      	ittt	ne
 80006e8:	2100      	movne	r1, #0
 80006ea:	2000      	movne	r0, #0
 80006ec:	bd30      	popne	{r4, r5, pc}
 80006ee:	ea5f 5c54 	movs.w	ip, r4, lsr #21
 80006f2:	d105      	bne.n	8000700 <__adddf3+0x230>
 80006f4:	0040      	lsls	r0, r0, #1
 80006f6:	4149      	adcs	r1, r1
 80006f8:	bf28      	it	cs
 80006fa:	f041 4100 	orrcs.w	r1, r1, #2147483648	; 0x80000000
 80006fe:	bd30      	pop	{r4, r5, pc}
 8000700:	f514 0480 	adds.w	r4, r4, #4194304	; 0x400000
 8000704:	bf3c      	itt	cc
 8000706:	f501 1180 	addcc.w	r1, r1, #1048576	; 0x100000
 800070a:	bd30      	popcc	{r4, r5, pc}
 800070c:	f001 4500 	and.w	r5, r1, #2147483648	; 0x80000000
 8000710:	f045 41fe 	orr.w	r1, r5, #2130706432	; 0x7f000000
 8000714:	f441 0170 	orr.w	r1, r1, #15728640	; 0xf00000
 8000718:	f04f 0000 	mov.w	r0, #0
 800071c:	bd30      	pop	{r4, r5, pc}
 800071e:	ea7f 5c64 	mvns.w	ip, r4, asr #21
 8000722:	bf1a      	itte	ne
 8000724:	4619      	movne	r1, r3
 8000726:	4610      	movne	r0, r2
 8000728:	ea7f 5c65 	mvnseq.w	ip, r5, asr #21
 800072c:	bf1c      	itt	ne
 800072e:	460b      	movne	r3, r1
 8000730:	4602      	movne	r2, r0
 8000732:	ea50 3401 	orrs.w	r4, r0, r1, lsl #12
 8000736:	bf06      	itte	eq
 8000738:	ea52 3503 	orrseq.w	r5, r2, r3, lsl #12
 800073c:	ea91 0f03 	teqeq	r1, r3
 8000740:	f441 2100 	orrne.w	r1, r1, #524288	; 0x80000
 8000744:	bd30      	pop	{r4, r5, pc}
 8000746:	bf00      	nop

08000748 <__aeabi_ui2d>:
 8000748:	f090 0f00 	teq	r0, #0
 800074c:	bf04      	itt	eq
 800074e:	2100      	moveq	r1, #0
 8000750:	4770      	bxeq	lr
 8000752:	b530      	push	{r4, r5, lr}
 8000754:	f44f 6480 	mov.w	r4, #1024	; 0x400
 8000758:	f104 0432 	add.w	r4, r4, #50	; 0x32
 800075c:	f04f 0500 	mov.w	r5, #0
 8000760:	f04f 0100 	mov.w	r1, #0
 8000764:	e750      	b.n	8000608 <__adddf3+0x138>
 8000766:	bf00      	nop

08000768 <__aeabi_i2d>:
 8000768:	f090 0f00 	teq	r0, #0
 800076c:	bf04      	itt	eq
 800076e:	2100      	moveq	r1, #0
 8000770:	4770      	bxeq	lr
 8000772:	b530      	push	{r4, r5, lr}
 8000774:	f44f 6480 	mov.w	r4, #1024	; 0x400
 8000778:	f104 0432 	add.w	r4, r4, #50	; 0x32
 800077c:	f010 4500 	ands.w	r5, r0, #2147483648	; 0x80000000
 8000780:	bf48      	it	mi
 8000782:	4240      	negmi	r0, r0
 8000784:	f04f 0100 	mov.w	r1, #0
 8000788:	e73e      	b.n	8000608 <__adddf3+0x138>
 800078a:	bf00      	nop

0800078c <__aeabi_f2d>:
 800078c:	0042      	lsls	r2, r0, #1
 800078e:	ea4f 01e2 	mov.w	r1, r2, asr #3
 8000792:	ea4f 0131 	mov.w	r1, r1, rrx
 8000796:	ea4f 7002 	mov.w	r0, r2, lsl #28
 800079a:	bf1f      	itttt	ne
 800079c:	f012 437f 	andsne.w	r3, r2, #4278190080	; 0xff000000
 80007a0:	f093 4f7f 	teqne	r3, #4278190080	; 0xff000000
 80007a4:	f081 5160 	eorne.w	r1, r1, #939524096	; 0x38000000
 80007a8:	4770      	bxne	lr
 80007aa:	f032 427f 	bics.w	r2, r2, #4278190080	; 0xff000000
 80007ae:	bf08      	it	eq
 80007b0:	4770      	bxeq	lr
 80007b2:	f093 4f7f 	teq	r3, #4278190080	; 0xff000000
 80007b6:	bf04      	itt	eq
 80007b8:	f441 2100 	orreq.w	r1, r1, #524288	; 0x80000
 80007bc:	4770      	bxeq	lr
 80007be:	b530      	push	{r4, r5, lr}
 80007c0:	f44f 7460 	mov.w	r4, #896	; 0x380
 80007c4:	f001 4500 	and.w	r5, r1, #2147483648	; 0x80000000
 80007c8:	f021 4100 	bic.w	r1, r1, #2147483648	; 0x80000000
 80007cc:	e71c      	b.n	8000608 <__adddf3+0x138>
 80007ce:	bf00      	nop

080007d0 <__aeabi_ul2d>:
 80007d0:	ea50 0201 	orrs.w	r2, r0, r1
 80007d4:	bf08      	it	eq
 80007d6:	4770      	bxeq	lr
 80007d8:	b530      	push	{r4, r5, lr}
 80007da:	f04f 0500 	mov.w	r5, #0
 80007de:	e00a      	b.n	80007f6 <__aeabi_l2d+0x16>

080007e0 <__aeabi_l2d>:
 80007e0:	ea50 0201 	orrs.w	r2, r0, r1
 80007e4:	bf08      	it	eq
 80007e6:	4770      	bxeq	lr
 80007e8:	b530      	push	{r4, r5, lr}
 80007ea:	f011 4500 	ands.w	r5, r1, #2147483648	; 0x80000000
 80007ee:	d502      	bpl.n	80007f6 <__aeabi_l2d+0x16>
 80007f0:	4240      	negs	r0, r0
 80007f2:	eb61 0141 	sbc.w	r1, r1, r1, lsl #1
 80007f6:	f44f 6480 	mov.w	r4, #1024	; 0x400
 80007fa:	f104 0432 	add.w	r4, r4, #50	; 0x32
 80007fe:	ea5f 5c91 	movs.w	ip, r1, lsr #22
 8000802:	f43f aed8 	beq.w	80005b6 <__adddf3+0xe6>
 8000806:	f04f 0203 	mov.w	r2, #3
 800080a:	ea5f 0cdc 	movs.w	ip, ip, lsr #3
 800080e:	bf18      	it	ne
 8000810:	3203      	addne	r2, #3
 8000812:	ea5f 0cdc 	movs.w	ip, ip, lsr #3
 8000816:	bf18      	it	ne
 8000818:	3203      	addne	r2, #3
 800081a:	eb02 02dc 	add.w	r2, r2, ip, lsr #3
 800081e:	f1c2 0320 	rsb	r3, r2, #32
 8000822:	fa00 fc03 	lsl.w	ip, r0, r3
 8000826:	fa20 f002 	lsr.w	r0, r0, r2
 800082a:	fa01 fe03 	lsl.w	lr, r1, r3
 800082e:	ea40 000e 	orr.w	r0, r0, lr
 8000832:	fa21 f102 	lsr.w	r1, r1, r2
 8000836:	4414      	add	r4, r2
 8000838:	e6bd      	b.n	80005b6 <__adddf3+0xe6>
 800083a:	bf00      	nop

0800083c <__aeabi_d2iz>:
 800083c:	ea4f 0241 	mov.w	r2, r1, lsl #1
 8000840:	f512 1200 	adds.w	r2, r2, #2097152	; 0x200000
 8000844:	d215      	bcs.n	8000872 <__aeabi_d2iz+0x36>
 8000846:	d511      	bpl.n	800086c <__aeabi_d2iz+0x30>
 8000848:	f46f 7378 	mvn.w	r3, #992	; 0x3e0
 800084c:	ebb3 5262 	subs.w	r2, r3, r2, asr #21
 8000850:	d912      	bls.n	8000878 <__aeabi_d2iz+0x3c>
 8000852:	ea4f 23c1 	mov.w	r3, r1, lsl #11
 8000856:	f043 4300 	orr.w	r3, r3, #2147483648	; 0x80000000
 800085a:	ea43 5350 	orr.w	r3, r3, r0, lsr #21
 800085e:	f011 4f00 	tst.w	r1, #2147483648	; 0x80000000
 8000862:	fa23 f002 	lsr.w	r0, r3, r2
 8000866:	bf18      	it	ne
 8000868:	4240      	negne	r0, r0
 800086a:	4770      	bx	lr
 800086c:	f04f 0000 	mov.w	r0, #0
 8000870:	4770      	bx	lr
 8000872:	ea50 3001 	orrs.w	r0, r0, r1, lsl #12
 8000876:	d105      	bne.n	8000884 <__aeabi_d2iz+0x48>
 8000878:	f011 4000 	ands.w	r0, r1, #2147483648	; 0x80000000
 800087c:	bf08      	it	eq
 800087e:	f06f 4000 	mvneq.w	r0, #2147483648	; 0x80000000
 8000882:	4770      	bx	lr
 8000884:	f04f 0000 	mov.w	r0, #0
 8000888:	4770      	bx	lr
 800088a:	bf00      	nop

0800088c <__aeabi_d2uiz>:
 800088c:	004a      	lsls	r2, r1, #1
 800088e:	d211      	bcs.n	80008b4 <__aeabi_d2uiz+0x28>
 8000890:	f512 1200 	adds.w	r2, r2, #2097152	; 0x200000
 8000894:	d211      	bcs.n	80008ba <__aeabi_d2uiz+0x2e>
 8000896:	d50d      	bpl.n	80008b4 <__aeabi_d2uiz+0x28>
 8000898:	f46f 7378 	mvn.w	r3, #992	; 0x3e0
 800089c:	ebb3 5262 	subs.w	r2, r3, r2, asr #21
 80008a0:	d40e      	bmi.n	80008c0 <__aeabi_d2uiz+0x34>
 80008a2:	ea4f 23c1 	mov.w	r3, r1, lsl #11
 80008a6:	f043 4300 	orr.w	r3, r3, #2147483648	; 0x80000000
 80008aa:	ea43 5350 	orr.w	r3, r3, r0, lsr #21
 80008ae:	fa23 f002 	lsr.w	r0, r3, r2
 80008b2:	4770      	bx	lr
 80008b4:	f04f 0000 	mov.w	r0, #0
 80008b8:	4770      	bx	lr
 80008ba:	ea50 3001 	orrs.w	r0, r0, r1, lsl #12
 80008be:	d102      	bne.n	80008c6 <__aeabi_d2uiz+0x3a>
 80008c0:	f04f 30ff 	mov.w	r0, #4294967295
 80008c4:	4770      	bx	lr
 80008c6:	f04f 0000 	mov.w	r0, #0
 80008ca:	4770      	bx	lr

080008cc <__aeabi_d2f>:
 80008cc:	ea4f 0241 	mov.w	r2, r1, lsl #1
 80008d0:	f1b2 43e0 	subs.w	r3, r2, #1879048192	; 0x70000000
 80008d4:	bf24      	itt	cs
 80008d6:	f5b3 1c00 	subscs.w	ip, r3, #2097152	; 0x200000
 80008da:	f1dc 5cfe 	rsbscs	ip, ip, #532676608	; 0x1fc00000
 80008de:	d90d      	bls.n	80008fc <__aeabi_d2f+0x30>
 80008e0:	f001 4c00 	and.w	ip, r1, #2147483648	; 0x80000000
 80008e4:	ea4f 02c0 	mov.w	r2, r0, lsl #3
 80008e8:	ea4c 7050 	orr.w	r0, ip, r0, lsr #29
 80008ec:	f1b2 4f00 	cmp.w	r2, #2147483648	; 0x80000000
 80008f0:	eb40 0083 	adc.w	r0, r0, r3, lsl #2
 80008f4:	bf08      	it	eq
 80008f6:	f020 0001 	biceq.w	r0, r0, #1
 80008fa:	4770      	bx	lr
 80008fc:	f011 4f80 	tst.w	r1, #1073741824	; 0x40000000
 8000900:	d121      	bne.n	8000946 <__aeabi_d2f+0x7a>
 8000902:	f113 7238 	adds.w	r2, r3, #48234496	; 0x2e00000
 8000906:	bfbc      	itt	lt
 8000908:	f001 4000 	andlt.w	r0, r1, #2147483648	; 0x80000000
 800090c:	4770      	bxlt	lr
 800090e:	f441 1180 	orr.w	r1, r1, #1048576	; 0x100000
 8000912:	ea4f 5252 	mov.w	r2, r2, lsr #21
 8000916:	f1c2 0218 	rsb	r2, r2, #24
 800091a:	f1c2 0c20 	rsb	ip, r2, #32
 800091e:	fa10 f30c 	lsls.w	r3, r0, ip
 8000922:	fa20 f002 	lsr.w	r0, r0, r2
 8000926:	bf18      	it	ne
 8000928:	f040 0001 	orrne.w	r0, r0, #1
 800092c:	ea4f 23c1 	mov.w	r3, r1, lsl #11
 8000930:	ea4f 23d3 	mov.w	r3, r3, lsr #11
 8000934:	fa03 fc0c 	lsl.w	ip, r3, ip
 8000938:	ea40 000c 	orr.w	r0, r0, ip
 800093c:	fa23 f302 	lsr.w	r3, r3, r2
 8000940:	ea4f 0343 	mov.w	r3, r3, lsl #1
 8000944:	e7cc      	b.n	80008e0 <__aeabi_d2f+0x14>
 8000946:	ea7f 5362 	mvns.w	r3, r2, asr #21
 800094a:	d107      	bne.n	800095c <__aeabi_d2f+0x90>
 800094c:	ea50 3301 	orrs.w	r3, r0, r1, lsl #12
 8000950:	bf1e      	ittt	ne
 8000952:	f04f 40fe 	movne.w	r0, #2130706432	; 0x7f000000
 8000956:	f440 0040 	orrne.w	r0, r0, #12582912	; 0xc00000
 800095a:	4770      	bxne	lr
 800095c:	f001 4000 	and.w	r0, r1, #2147483648	; 0x80000000
 8000960:	f040 40fe 	orr.w	r0, r0, #2130706432	; 0x7f000000
 8000964:	f440 0000 	orr.w	r0, r0, #8388608	; 0x800000
 8000968:	4770      	bx	lr
 800096a:	bf00      	nop

0800096c <__aeabi_uldivmod>:
 800096c:	b953      	cbnz	r3, 8000984 <__aeabi_uldivmod+0x18>
 800096e:	b94a      	cbnz	r2, 8000984 <__aeabi_uldivmod+0x18>
 8000970:	2900      	cmp	r1, #0
 8000972:	bf08      	it	eq
 8000974:	2800      	cmpeq	r0, #0
 8000976:	bf1c      	itt	ne
 8000978:	f04f 31ff 	movne.w	r1, #4294967295
 800097c:	f04f 30ff 	movne.w	r0, #4294967295
 8000980:	f000 b96e 	b.w	8000c60 <__aeabi_idiv0>
 8000984:	f1ad 0c08 	sub.w	ip, sp, #8
 8000988:	e96d ce04 	strd	ip, lr, [sp, #-16]!
 800098c:	f000 f806 	bl	800099c <__udivmoddi4>
 8000990:	f8dd e004 	ldr.w	lr, [sp, #4]
 8000994:	e9dd 2302 	ldrd	r2, r3, [sp, #8]
 8000998:	b004      	add	sp, #16
 800099a:	4770      	bx	lr

0800099c <__udivmoddi4>:
 800099c:	e92d 47f0 	stmdb	sp!, {r4, r5, r6, r7, r8, r9, sl, lr}
 80009a0:	9d08      	ldr	r5, [sp, #32]
 80009a2:	4604      	mov	r4, r0
 80009a4:	468c      	mov	ip, r1
 80009a6:	2b00      	cmp	r3, #0
 80009a8:	f040 8083 	bne.w	8000ab2 <__udivmoddi4+0x116>
 80009ac:	428a      	cmp	r2, r1
 80009ae:	4617      	mov	r7, r2
 80009b0:	d947      	bls.n	8000a42 <__udivmoddi4+0xa6>
 80009b2:	fab2 f282 	clz	r2, r2
 80009b6:	b142      	cbz	r2, 80009ca <__udivmoddi4+0x2e>
 80009b8:	f1c2 0020 	rsb	r0, r2, #32
 80009bc:	fa24 f000 	lsr.w	r0, r4, r0
 80009c0:	4091      	lsls	r1, r2
 80009c2:	4097      	lsls	r7, r2
 80009c4:	ea40 0c01 	orr.w	ip, r0, r1
 80009c8:	4094      	lsls	r4, r2
 80009ca:	ea4f 4817 	mov.w	r8, r7, lsr #16
 80009ce:	0c23      	lsrs	r3, r4, #16
 80009d0:	fbbc f6f8 	udiv	r6, ip, r8
 80009d4:	fa1f fe87 	uxth.w	lr, r7
 80009d8:	fb08 c116 	mls	r1, r8, r6, ip
 80009dc:	ea43 4301 	orr.w	r3, r3, r1, lsl #16
 80009e0:	fb06 f10e 	mul.w	r1, r6, lr
 80009e4:	4299      	cmp	r1, r3
 80009e6:	d909      	bls.n	80009fc <__udivmoddi4+0x60>
 80009e8:	18fb      	adds	r3, r7, r3
 80009ea:	f106 30ff 	add.w	r0, r6, #4294967295
 80009ee:	f080 8119 	bcs.w	8000c24 <__udivmoddi4+0x288>
 80009f2:	4299      	cmp	r1, r3
 80009f4:	f240 8116 	bls.w	8000c24 <__udivmoddi4+0x288>
 80009f8:	3e02      	subs	r6, #2
 80009fa:	443b      	add	r3, r7
 80009fc:	1a5b      	subs	r3, r3, r1
 80009fe:	b2a4      	uxth	r4, r4
 8000a00:	fbb3 f0f8 	udiv	r0, r3, r8
 8000a04:	fb08 3310 	mls	r3, r8, r0, r3
 8000a08:	ea44 4403 	orr.w	r4, r4, r3, lsl #16
 8000a0c:	fb00 fe0e 	mul.w	lr, r0, lr
 8000a10:	45a6      	cmp	lr, r4
 8000a12:	d909      	bls.n	8000a28 <__udivmoddi4+0x8c>
 8000a14:	193c      	adds	r4, r7, r4
 8000a16:	f100 33ff 	add.w	r3, r0, #4294967295
 8000a1a:	f080 8105 	bcs.w	8000c28 <__udivmoddi4+0x28c>
 8000a1e:	45a6      	cmp	lr, r4
 8000a20:	f240 8102 	bls.w	8000c28 <__udivmoddi4+0x28c>
 8000a24:	3802      	subs	r0, #2
 8000a26:	443c      	add	r4, r7
 8000a28:	ea40 4006 	orr.w	r0, r0, r6, lsl #16
 8000a2c:	eba4 040e 	sub.w	r4, r4, lr
 8000a30:	2600      	movs	r6, #0
 8000a32:	b11d      	cbz	r5, 8000a3c <__udivmoddi4+0xa0>
 8000a34:	40d4      	lsrs	r4, r2
 8000a36:	2300      	movs	r3, #0
 8000a38:	e9c5 4300 	strd	r4, r3, [r5]
 8000a3c:	4631      	mov	r1, r6
 8000a3e:	e8bd 87f0 	ldmia.w	sp!, {r4, r5, r6, r7, r8, r9, sl, pc}
 8000a42:	b902      	cbnz	r2, 8000a46 <__udivmoddi4+0xaa>
 8000a44:	deff      	udf	#255	; 0xff
 8000a46:	fab2 f282 	clz	r2, r2
 8000a4a:	2a00      	cmp	r2, #0
 8000a4c:	d150      	bne.n	8000af0 <__udivmoddi4+0x154>
 8000a4e:	1bcb      	subs	r3, r1, r7
 8000a50:	ea4f 4e17 	mov.w	lr, r7, lsr #16
 8000a54:	fa1f f887 	uxth.w	r8, r7
 8000a58:	2601      	movs	r6, #1
 8000a5a:	fbb3 fcfe 	udiv	ip, r3, lr
 8000a5e:	0c21      	lsrs	r1, r4, #16
 8000a60:	fb0e 331c 	mls	r3, lr, ip, r3
 8000a64:	ea41 4103 	orr.w	r1, r1, r3, lsl #16
 8000a68:	fb08 f30c 	mul.w	r3, r8, ip
 8000a6c:	428b      	cmp	r3, r1
 8000a6e:	d907      	bls.n	8000a80 <__udivmoddi4+0xe4>
 8000a70:	1879      	adds	r1, r7, r1
 8000a72:	f10c 30ff 	add.w	r0, ip, #4294967295
 8000a76:	d202      	bcs.n	8000a7e <__udivmoddi4+0xe2>
 8000a78:	428b      	cmp	r3, r1
 8000a7a:	f200 80e9 	bhi.w	8000c50 <__udivmoddi4+0x2b4>
 8000a7e:	4684      	mov	ip, r0
 8000a80:	1ac9      	subs	r1, r1, r3
 8000a82:	b2a3      	uxth	r3, r4
 8000a84:	fbb1 f0fe 	udiv	r0, r1, lr
 8000a88:	fb0e 1110 	mls	r1, lr, r0, r1
 8000a8c:	ea43 4401 	orr.w	r4, r3, r1, lsl #16
 8000a90:	fb08 f800 	mul.w	r8, r8, r0
 8000a94:	45a0      	cmp	r8, r4
 8000a96:	d907      	bls.n	8000aa8 <__udivmoddi4+0x10c>
 8000a98:	193c      	adds	r4, r7, r4
 8000a9a:	f100 33ff 	add.w	r3, r0, #4294967295
 8000a9e:	d202      	bcs.n	8000aa6 <__udivmoddi4+0x10a>
 8000aa0:	45a0      	cmp	r8, r4
 8000aa2:	f200 80d9 	bhi.w	8000c58 <__udivmoddi4+0x2bc>
 8000aa6:	4618      	mov	r0, r3
 8000aa8:	eba4 0408 	sub.w	r4, r4, r8
 8000aac:	ea40 400c 	orr.w	r0, r0, ip, lsl #16
 8000ab0:	e7bf      	b.n	8000a32 <__udivmoddi4+0x96>
 8000ab2:	428b      	cmp	r3, r1
 8000ab4:	d909      	bls.n	8000aca <__udivmoddi4+0x12e>
 8000ab6:	2d00      	cmp	r5, #0
 8000ab8:	f000 80b1 	beq.w	8000c1e <__udivmoddi4+0x282>
 8000abc:	2600      	movs	r6, #0
 8000abe:	e9c5 0100 	strd	r0, r1, [r5]
 8000ac2:	4630      	mov	r0, r6
 8000ac4:	4631      	mov	r1, r6
 8000ac6:	e8bd 87f0 	ldmia.w	sp!, {r4, r5, r6, r7, r8, r9, sl, pc}
 8000aca:	fab3 f683 	clz	r6, r3
 8000ace:	2e00      	cmp	r6, #0
 8000ad0:	d14a      	bne.n	8000b68 <__udivmoddi4+0x1cc>
 8000ad2:	428b      	cmp	r3, r1
 8000ad4:	d302      	bcc.n	8000adc <__udivmoddi4+0x140>
 8000ad6:	4282      	cmp	r2, r0
 8000ad8:	f200 80b8 	bhi.w	8000c4c <__udivmoddi4+0x2b0>
 8000adc:	1a84      	subs	r4, r0, r2
 8000ade:	eb61 0103 	sbc.w	r1, r1, r3
 8000ae2:	2001      	movs	r0, #1
 8000ae4:	468c      	mov	ip, r1
 8000ae6:	2d00      	cmp	r5, #0
 8000ae8:	d0a8      	beq.n	8000a3c <__udivmoddi4+0xa0>
 8000aea:	e9c5 4c00 	strd	r4, ip, [r5]
 8000aee:	e7a5      	b.n	8000a3c <__udivmoddi4+0xa0>
 8000af0:	f1c2 0320 	rsb	r3, r2, #32
 8000af4:	fa20 f603 	lsr.w	r6, r0, r3
 8000af8:	4097      	lsls	r7, r2
 8000afa:	fa01 f002 	lsl.w	r0, r1, r2
 8000afe:	ea4f 4e17 	mov.w	lr, r7, lsr #16
 8000b02:	40d9      	lsrs	r1, r3
 8000b04:	4330      	orrs	r0, r6
 8000b06:	0c03      	lsrs	r3, r0, #16
 8000b08:	fbb1 f6fe 	udiv	r6, r1, lr
 8000b0c:	fa1f f887 	uxth.w	r8, r7
 8000b10:	fb0e 1116 	mls	r1, lr, r6, r1
 8000b14:	ea43 4301 	orr.w	r3, r3, r1, lsl #16
 8000b18:	fb06 f108 	mul.w	r1, r6, r8
 8000b1c:	4299      	cmp	r1, r3
 8000b1e:	fa04 f402 	lsl.w	r4, r4, r2
 8000b22:	d909      	bls.n	8000b38 <__udivmoddi4+0x19c>
 8000b24:	18fb      	adds	r3, r7, r3
 8000b26:	f106 3cff 	add.w	ip, r6, #4294967295
 8000b2a:	f080 808d 	bcs.w	8000c48 <__udivmoddi4+0x2ac>
 8000b2e:	4299      	cmp	r1, r3
 8000b30:	f240 808a 	bls.w	8000c48 <__udivmoddi4+0x2ac>
 8000b34:	3e02      	subs	r6, #2
 8000b36:	443b      	add	r3, r7
 8000b38:	1a5b      	subs	r3, r3, r1
 8000b3a:	b281      	uxth	r1, r0
 8000b3c:	fbb3 f0fe 	udiv	r0, r3, lr
 8000b40:	fb0e 3310 	mls	r3, lr, r0, r3
 8000b44:	ea41 4103 	orr.w	r1, r1, r3, lsl #16
 8000b48:	fb00 f308 	mul.w	r3, r0, r8
 8000b4c:	428b      	cmp	r3, r1
 8000b4e:	d907      	bls.n	8000b60 <__udivmoddi4+0x1c4>
 8000b50:	1879      	adds	r1, r7, r1
 8000b52:	f100 3cff 	add.w	ip, r0, #4294967295
 8000b56:	d273      	bcs.n	8000c40 <__udivmoddi4+0x2a4>
 8000b58:	428b      	cmp	r3, r1
 8000b5a:	d971      	bls.n	8000c40 <__udivmoddi4+0x2a4>
 8000b5c:	3802      	subs	r0, #2
 8000b5e:	4439      	add	r1, r7
 8000b60:	1acb      	subs	r3, r1, r3
 8000b62:	ea40 4606 	orr.w	r6, r0, r6, lsl #16
 8000b66:	e778      	b.n	8000a5a <__udivmoddi4+0xbe>
 8000b68:	f1c6 0c20 	rsb	ip, r6, #32
 8000b6c:	fa03 f406 	lsl.w	r4, r3, r6
 8000b70:	fa22 f30c 	lsr.w	r3, r2, ip
 8000b74:	431c      	orrs	r4, r3
 8000b76:	fa20 f70c 	lsr.w	r7, r0, ip
 8000b7a:	fa01 f306 	lsl.w	r3, r1, r6
 8000b7e:	ea4f 4e14 	mov.w	lr, r4, lsr #16
 8000b82:	fa21 f10c 	lsr.w	r1, r1, ip
 8000b86:	431f      	orrs	r7, r3
 8000b88:	0c3b      	lsrs	r3, r7, #16
 8000b8a:	fbb1 f9fe 	udiv	r9, r1, lr
 8000b8e:	fa1f f884 	uxth.w	r8, r4
 8000b92:	fb0e 1119 	mls	r1, lr, r9, r1
 8000b96:	ea43 4101 	orr.w	r1, r3, r1, lsl #16
 8000b9a:	fb09 fa08 	mul.w	sl, r9, r8
 8000b9e:	458a      	cmp	sl, r1
 8000ba0:	fa02 f206 	lsl.w	r2, r2, r6
 8000ba4:	fa00 f306 	lsl.w	r3, r0, r6
 8000ba8:	d908      	bls.n	8000bbc <__udivmoddi4+0x220>
 8000baa:	1861      	adds	r1, r4, r1
 8000bac:	f109 30ff 	add.w	r0, r9, #4294967295
 8000bb0:	d248      	bcs.n	8000c44 <__udivmoddi4+0x2a8>
 8000bb2:	458a      	cmp	sl, r1
 8000bb4:	d946      	bls.n	8000c44 <__udivmoddi4+0x2a8>
 8000bb6:	f1a9 0902 	sub.w	r9, r9, #2
 8000bba:	4421      	add	r1, r4
 8000bbc:	eba1 010a 	sub.w	r1, r1, sl
 8000bc0:	b2bf      	uxth	r7, r7
 8000bc2:	fbb1 f0fe 	udiv	r0, r1, lr
 8000bc6:	fb0e 1110 	mls	r1, lr, r0, r1
 8000bca:	ea47 4701 	orr.w	r7, r7, r1, lsl #16
 8000bce:	fb00 f808 	mul.w	r8, r0, r8
 8000bd2:	45b8      	cmp	r8, r7
 8000bd4:	d907      	bls.n	8000be6 <__udivmoddi4+0x24a>
 8000bd6:	19e7      	adds	r7, r4, r7
 8000bd8:	f100 31ff 	add.w	r1, r0, #4294967295
 8000bdc:	d22e      	bcs.n	8000c3c <__udivmoddi4+0x2a0>
 8000bde:	45b8      	cmp	r8, r7
 8000be0:	d92c      	bls.n	8000c3c <__udivmoddi4+0x2a0>
 8000be2:	3802      	subs	r0, #2
 8000be4:	4427      	add	r7, r4
 8000be6:	ea40 4009 	orr.w	r0, r0, r9, lsl #16
 8000bea:	eba7 0708 	sub.w	r7, r7, r8
 8000bee:	fba0 8902 	umull	r8, r9, r0, r2
 8000bf2:	454f      	cmp	r7, r9
 8000bf4:	46c6      	mov	lr, r8
 8000bf6:	4649      	mov	r1, r9
 8000bf8:	d31a      	bcc.n	8000c30 <__udivmoddi4+0x294>
 8000bfa:	d017      	beq.n	8000c2c <__udivmoddi4+0x290>
 8000bfc:	b15d      	cbz	r5, 8000c16 <__udivmoddi4+0x27a>
 8000bfe:	ebb3 020e 	subs.w	r2, r3, lr
 8000c02:	eb67 0701 	sbc.w	r7, r7, r1
 8000c06:	fa07 fc0c 	lsl.w	ip, r7, ip
 8000c0a:	40f2      	lsrs	r2, r6
 8000c0c:	ea4c 0202 	orr.w	r2, ip, r2
 8000c10:	40f7      	lsrs	r7, r6
 8000c12:	e9c5 2700 	strd	r2, r7, [r5]
 8000c16:	2600      	movs	r6, #0
 8000c18:	4631      	mov	r1, r6
 8000c1a:	e8bd 87f0 	ldmia.w	sp!, {r4, r5, r6, r7, r8, r9, sl, pc}
 8000c1e:	462e      	mov	r6, r5
 8000c20:	4628      	mov	r0, r5
 8000c22:	e70b      	b.n	8000a3c <__udivmoddi4+0xa0>
 8000c24:	4606      	mov	r6, r0
 8000c26:	e6e9      	b.n	80009fc <__udivmoddi4+0x60>
 8000c28:	4618      	mov	r0, r3
 8000c2a:	e6fd      	b.n	8000a28 <__udivmoddi4+0x8c>
 8000c2c:	4543      	cmp	r3, r8
 8000c2e:	d2e5      	bcs.n	8000bfc <__udivmoddi4+0x260>
 8000c30:	ebb8 0e02 	subs.w	lr, r8, r2
 8000c34:	eb69 0104 	sbc.w	r1, r9, r4
 8000c38:	3801      	subs	r0, #1
 8000c3a:	e7df      	b.n	8000bfc <__udivmoddi4+0x260>
 8000c3c:	4608      	mov	r0, r1
 8000c3e:	e7d2      	b.n	8000be6 <__udivmoddi4+0x24a>
 8000c40:	4660      	mov	r0, ip
 8000c42:	e78d      	b.n	8000b60 <__udivmoddi4+0x1c4>
 8000c44:	4681      	mov	r9, r0
 8000c46:	e7b9      	b.n	8000bbc <__udivmoddi4+0x220>
 8000c48:	4666      	mov	r6, ip
 8000c4a:	e775      	b.n	8000b38 <__udivmoddi4+0x19c>
 8000c4c:	4630      	mov	r0, r6
 8000c4e:	e74a      	b.n	8000ae6 <__udivmoddi4+0x14a>
 8000c50:	f1ac 0c02 	sub.w	ip, ip, #2
 8000c54:	4439      	add	r1, r7
 8000c56:	e713      	b.n	8000a80 <__udivmoddi4+0xe4>
 8000c58:	3802      	subs	r0, #2
 8000c5a:	443c      	add	r4, r7
 8000c5c:	e724      	b.n	8000aa8 <__udivmoddi4+0x10c>
 8000c5e:	bf00      	nop

08000c60 <__aeabi_idiv0>:
 8000c60:	4770      	bx	lr
 8000c62:	bf00      	nop

08000c64 <ir>:
 8000c64:	b580      	push	{r7, lr}
 8000c66:	4e14      	ldr	r6, [pc, #80]	; (8000cb8 <ir+0x54>)
 8000c68:	4d14      	ldr	r5, [pc, #80]	; (8000cbc <ir+0x58>)
 8000c6a:	46b0      	mov	r8, r6
 8000c6c:	6833      	ldr	r3, [r6, #0]
 8000c6e:	4c14      	ldr	r4, [pc, #80]	; (8000cc0 <ir+0x5c>)
 8000c70:	2b04      	cmp	r3, #4
 8000c72:	d909      	bls.n	8000c88 <ir+0x24>
 8000c74:	6863      	ldr	r3, [r4, #4]
 8000c76:	6023      	str	r3, [r4, #0]
 8000c78:	68a3      	ldr	r3, [r4, #8]
 8000c7a:	6063      	str	r3, [r4, #4]
 8000c7c:	68e3      	ldr	r3, [r4, #12]
 8000c7e:	60a3      	str	r3, [r4, #8]
 8000c80:	6923      	ldr	r3, [r4, #16]
 8000c82:	60e3      	str	r3, [r4, #12]
 8000c84:	2304      	movs	r3, #4
 8000c86:	6033      	str	r3, [r6, #0]
 8000c88:	4628      	mov	r0, r5
 8000c8a:	f001 ffcb 	bl	8002c24 <HAL_ADC_Start>
 8000c8e:	f64f 71ff 	movw	r1, #65535	; 0xffff
 8000c92:	4628      	mov	r0, r5
 8000c94:	f002 f84a 	bl	8002d2c <HAL_ADC_PollForConversion>
 8000c98:	f8d8 7000 	ldr.w	r7, [r8]
 8000c9c:	4628      	mov	r0, r5
 8000c9e:	1c7b      	adds	r3, r7, #1
 8000ca0:	f8c8 3000 	str.w	r3, [r8]
 8000ca4:	f002 f895 	bl	8002dd2 <HAL_ADC_GetValue>
 8000ca8:	4b06      	ldr	r3, [pc, #24]	; (8000cc4 <ir+0x60>)
 8000caa:	f844 0027 	str.w	r0, [r4, r7, lsl #2]
 8000cae:	6818      	ldr	r0, [r3, #0]
 8000cb0:	f004 f823 	bl	8004cfa <osDelay>
 8000cb4:	e7da      	b.n	8000c6c <ir+0x8>
 8000cb6:	bf00      	nop
 8000cb8:	20004d2c 	.word	0x20004d2c
 8000cbc:	20004c04 	.word	0x20004c04
 8000cc0:	200049d4 	.word	0x200049d4
 8000cc4:	20004c64 	.word	0x20004c64

08000cc8 <battery>:
 8000cc8:	b580      	push	{r7, lr}
 8000cca:	4e14      	ldr	r6, [pc, #80]	; (8000d1c <battery+0x54>)
 8000ccc:	4d14      	ldr	r5, [pc, #80]	; (8000d20 <battery+0x58>)
 8000cce:	46b0      	mov	r8, r6
 8000cd0:	6833      	ldr	r3, [r6, #0]
 8000cd2:	4c14      	ldr	r4, [pc, #80]	; (8000d24 <battery+0x5c>)
 8000cd4:	2b04      	cmp	r3, #4
 8000cd6:	d909      	bls.n	8000cec <battery+0x24>
 8000cd8:	6863      	ldr	r3, [r4, #4]
 8000cda:	6023      	str	r3, [r4, #0]
 8000cdc:	68a3      	ldr	r3, [r4, #8]
 8000cde:	6063      	str	r3, [r4, #4]
 8000ce0:	68e3      	ldr	r3, [r4, #12]
 8000ce2:	60a3      	str	r3, [r4, #8]
 8000ce4:	6923      	ldr	r3, [r4, #16]
 8000ce6:	60e3      	str	r3, [r4, #12]
 8000ce8:	2304      	movs	r3, #4
 8000cea:	6033      	str	r3, [r6, #0]
 8000cec:	4628      	mov	r0, r5
 8000cee:	f001 ff99 	bl	8002c24 <HAL_ADC_Start>
 8000cf2:	f64f 71ff 	movw	r1, #65535	; 0xffff
 8000cf6:	4628      	mov	r0, r5
 8000cf8:	f002 f818 	bl	8002d2c <HAL_ADC_PollForConversion>
 8000cfc:	f8d8 7000 	ldr.w	r7, [r8]
 8000d00:	4628      	mov	r0, r5
 8000d02:	1c7b      	adds	r3, r7, #1
 8000d04:	f8c8 3000 	str.w	r3, [r8]
 8000d08:	f002 f863 	bl	8002dd2 <HAL_ADC_GetValue>
 8000d0c:	4b06      	ldr	r3, [pc, #24]	; (8000d28 <battery+0x60>)
 8000d0e:	f844 0027 	str.w	r0, [r4, r7, lsl #2]
 8000d12:	6818      	ldr	r0, [r3, #0]
 8000d14:	f003 fff1 	bl	8004cfa <osDelay>
 8000d18:	e7da      	b.n	8000cd0 <battery+0x8>
 8000d1a:	bf00      	nop
 8000d1c:	20004c80 	.word	0x20004c80
 8000d20:	20004ad4 	.word	0x20004ad4
 8000d24:	20004d44 	.word	0x20004d44
 8000d28:	20004ce8 	.word	0x20004ce8

08000d2c <servo>:
 8000d2c:	b508      	push	{r3, lr}
 8000d2e:	4810      	ldr	r0, [pc, #64]	; (8000d70 <servo+0x44>)
 8000d30:	4c10      	ldr	r4, [pc, #64]	; (8000d74 <servo+0x48>)
 8000d32:	4d11      	ldr	r5, [pc, #68]	; (8000d78 <servo+0x4c>)
 8000d34:	210c      	movs	r1, #12
 8000d36:	f003 fadd 	bl	80042f4 <HAL_TIM_PWM_Start>
 8000d3a:	4626      	mov	r6, r4
 8000d3c:	6822      	ldr	r2, [r4, #0]
 8000d3e:	682b      	ldr	r3, [r5, #0]
 8000d40:	429a      	cmp	r2, r3
 8000d42:	d201      	bcs.n	8000d48 <servo+0x1c>
 8000d44:	6023      	str	r3, [r4, #0]
 8000d46:	e003      	b.n	8000d50 <servo+0x24>
 8000d48:	4b0c      	ldr	r3, [pc, #48]	; (8000d7c <servo+0x50>)
 8000d4a:	681b      	ldr	r3, [r3, #0]
 8000d4c:	429a      	cmp	r2, r3
 8000d4e:	d8f9      	bhi.n	8000d44 <servo+0x18>
 8000d50:	4a0b      	ldr	r2, [pc, #44]	; (8000d80 <servo+0x54>)
 8000d52:	4b07      	ldr	r3, [pc, #28]	; (8000d70 <servo+0x44>)
 8000d54:	7812      	ldrb	r2, [r2, #0]
 8000d56:	681b      	ldr	r3, [r3, #0]
 8000d58:	2a54      	cmp	r2, #84	; 0x54
 8000d5a:	bf16      	itet	ne
 8000d5c:	4a09      	ldrne	r2, [pc, #36]	; (8000d84 <servo+0x58>)
 8000d5e:	6832      	ldreq	r2, [r6, #0]
 8000d60:	6812      	ldrne	r2, [r2, #0]
 8000d62:	641a      	str	r2, [r3, #64]	; 0x40
 8000d64:	4b08      	ldr	r3, [pc, #32]	; (8000d88 <servo+0x5c>)
 8000d66:	6818      	ldr	r0, [r3, #0]
 8000d68:	f003 ffc7 	bl	8004cfa <osDelay>
 8000d6c:	e7e6      	b.n	8000d3c <servo+0x10>
 8000d6e:	bf00      	nop
 8000d70:	20004ca0 	.word	0x20004ca0
 8000d74:	20004b2c 	.word	0x20004b2c
 8000d78:	20004a88 	.word	0x20004a88
 8000d7c:	20009bdc 	.word	0x20009bdc
 8000d80:	20004d34 	.word	0x20004d34
 8000d84:	20009bec 	.word	0x20009bec
 8000d88:	20004c68 	.word	0x20004c68

08000d8c <motorA>:
 8000d8c:	b580      	push	{r7, lr}
 8000d8e:	4819      	ldr	r0, [pc, #100]	; (8000df4 <motorA+0x68>)
 8000d90:	4c19      	ldr	r4, [pc, #100]	; (8000df8 <motorA+0x6c>)
 8000d92:	4f1a      	ldr	r7, [pc, #104]	; (8000dfc <motorA+0x70>)
 8000d94:	2100      	movs	r1, #0
 8000d96:	f003 fb29 	bl	80043ec <HAL_TIM_PWM_Start_IT>
 8000d9a:	4626      	mov	r6, r4
 8000d9c:	6822      	ldr	r2, [r4, #0]
 8000d9e:	2a00      	cmp	r2, #0
 8000da0:	da02      	bge.n	8000da8 <motorA+0x1c>
 8000da2:	2300      	movs	r3, #0
 8000da4:	6023      	str	r3, [r4, #0]
 8000da6:	e002      	b.n	8000dae <motorA+0x22>
 8000da8:	683b      	ldr	r3, [r7, #0]
 8000daa:	429a      	cmp	r2, r3
 8000dac:	dcfa      	bgt.n	8000da4 <motorA+0x18>
 8000dae:	4b14      	ldr	r3, [pc, #80]	; (8000e00 <motorA+0x74>)
 8000db0:	4d10      	ldr	r5, [pc, #64]	; (8000df4 <motorA+0x68>)
 8000db2:	781b      	ldrb	r3, [r3, #0]
 8000db4:	2b46      	cmp	r3, #70	; 0x46
 8000db6:	d111      	bne.n	8000ddc <motorA+0x50>
 8000db8:	2201      	movs	r2, #1
 8000dba:	4812      	ldr	r0, [pc, #72]	; (8000e04 <motorA+0x78>)
 8000dbc:	2108      	movs	r1, #8
 8000dbe:	f002 fa35 	bl	800322c <HAL_GPIO_WritePin>
 8000dc2:	2200      	movs	r2, #0
 8000dc4:	480f      	ldr	r0, [pc, #60]	; (8000e04 <motorA+0x78>)
 8000dc6:	2104      	movs	r1, #4
 8000dc8:	f002 fa30 	bl	800322c <HAL_GPIO_WritePin>
 8000dcc:	682b      	ldr	r3, [r5, #0]
 8000dce:	6832      	ldr	r2, [r6, #0]
 8000dd0:	635a      	str	r2, [r3, #52]	; 0x34
 8000dd2:	4b0d      	ldr	r3, [pc, #52]	; (8000e08 <motorA+0x7c>)
 8000dd4:	6818      	ldr	r0, [r3, #0]
 8000dd6:	f003 ff90 	bl	8004cfa <osDelay>
 8000dda:	e7df      	b.n	8000d9c <motorA+0x10>
 8000ddc:	2b42      	cmp	r3, #66	; 0x42
 8000dde:	d106      	bne.n	8000dee <motorA+0x62>
 8000de0:	2200      	movs	r2, #0
 8000de2:	4808      	ldr	r0, [pc, #32]	; (8000e04 <motorA+0x78>)
 8000de4:	2108      	movs	r1, #8
 8000de6:	f002 fa21 	bl	800322c <HAL_GPIO_WritePin>
 8000dea:	2201      	movs	r2, #1
 8000dec:	e7ea      	b.n	8000dc4 <motorA+0x38>
 8000dee:	682b      	ldr	r3, [r5, #0]
 8000df0:	2200      	movs	r2, #0
 8000df2:	e7ed      	b.n	8000dd0 <motorA+0x44>
 8000df4:	200049e8 	.word	0x200049e8
 8000df8:	20004d3c 	.word	0x20004d3c
 8000dfc:	20004c54 	.word	0x20004c54
 8000e00:	20004b3c 	.word	0x20004b3c
 8000e04:	40020000 	.word	0x40020000
 8000e08:	20004c50 	.word	0x20004c50

08000e0c <motorB>:
 8000e0c:	b580      	push	{r7, lr}
 8000e0e:	4819      	ldr	r0, [pc, #100]	; (8000e74 <motorB+0x68>)
 8000e10:	4c19      	ldr	r4, [pc, #100]	; (8000e78 <motorB+0x6c>)
 8000e12:	4f1a      	ldr	r7, [pc, #104]	; (8000e7c <motorB+0x70>)
 8000e14:	2104      	movs	r1, #4
 8000e16:	f003 fae9 	bl	80043ec <HAL_TIM_PWM_Start_IT>
 8000e1a:	4626      	mov	r6, r4
 8000e1c:	6822      	ldr	r2, [r4, #0]
 8000e1e:	2a00      	cmp	r2, #0
 8000e20:	da02      	bge.n	8000e28 <motorB+0x1c>
 8000e22:	2300      	movs	r3, #0
 8000e24:	6023      	str	r3, [r4, #0]
 8000e26:	e002      	b.n	8000e2e <motorB+0x22>
 8000e28:	683b      	ldr	r3, [r7, #0]
 8000e2a:	429a      	cmp	r2, r3
 8000e2c:	dcfa      	bgt.n	8000e24 <motorB+0x18>
 8000e2e:	4b14      	ldr	r3, [pc, #80]	; (8000e80 <motorB+0x74>)
 8000e30:	4d10      	ldr	r5, [pc, #64]	; (8000e74 <motorB+0x68>)
 8000e32:	781b      	ldrb	r3, [r3, #0]
 8000e34:	2b46      	cmp	r3, #70	; 0x46
 8000e36:	d111      	bne.n	8000e5c <motorB+0x50>
 8000e38:	2201      	movs	r2, #1
 8000e3a:	4812      	ldr	r0, [pc, #72]	; (8000e84 <motorB+0x78>)
 8000e3c:	2110      	movs	r1, #16
 8000e3e:	f002 f9f5 	bl	800322c <HAL_GPIO_WritePin>
 8000e42:	2200      	movs	r2, #0
 8000e44:	480f      	ldr	r0, [pc, #60]	; (8000e84 <motorB+0x78>)
 8000e46:	2120      	movs	r1, #32
 8000e48:	f002 f9f0 	bl	800322c <HAL_GPIO_WritePin>
 8000e4c:	682b      	ldr	r3, [r5, #0]
 8000e4e:	6832      	ldr	r2, [r6, #0]
 8000e50:	639a      	str	r2, [r3, #56]	; 0x38
 8000e52:	4b0d      	ldr	r3, [pc, #52]	; (8000e88 <motorB+0x7c>)
 8000e54:	6818      	ldr	r0, [r3, #0]
 8000e56:	f003 ff50 	bl	8004cfa <osDelay>
 8000e5a:	e7df      	b.n	8000e1c <motorB+0x10>
 8000e5c:	2b42      	cmp	r3, #66	; 0x42
 8000e5e:	d106      	bne.n	8000e6e <motorB+0x62>
 8000e60:	2200      	movs	r2, #0
 8000e62:	4808      	ldr	r0, [pc, #32]	; (8000e84 <motorB+0x78>)
 8000e64:	2110      	movs	r1, #16
 8000e66:	f002 f9e1 	bl	800322c <HAL_GPIO_WritePin>
 8000e6a:	2201      	movs	r2, #1
 8000e6c:	e7ea      	b.n	8000e44 <motorB+0x38>
 8000e6e:	682b      	ldr	r3, [r5, #0]
 8000e70:	2200      	movs	r2, #0
 8000e72:	e7ed      	b.n	8000e50 <motorB+0x44>
 8000e74:	200049e8 	.word	0x200049e8
 8000e78:	20004b28 	.word	0x20004b28
 8000e7c:	20004c54 	.word	0x20004c54
 8000e80:	20004d35 	.word	0x20004d35
 8000e84:	40020000 	.word	0x40020000
 8000e88:	20004c50 	.word	0x20004c50

08000e8c <encoderA>:
 8000e8c:	b5f8      	push	{r3, r4, r5, r6, r7, lr}
 8000e8e:	4c68      	ldr	r4, [pc, #416]	; (8001030 <encoderA+0x1a4>)
 8000e90:	4d68      	ldr	r5, [pc, #416]	; (8001034 <encoderA+0x1a8>)
 8000e92:	ed2d 8b02 	vpush	{d8}
 8000e96:	213c      	movs	r1, #60	; 0x3c
 8000e98:	4620      	mov	r0, r4
 8000e9a:	f002 fd57 	bl	800394c <HAL_TIM_Encoder_Start>
 8000e9e:	6823      	ldr	r3, [r4, #0]
 8000ea0:	ed9f 8a65 	vldr	s16, [pc, #404]	; 8001038 <encoderA+0x1ac>
 8000ea4:	6a5f      	ldr	r7, [r3, #36]	; 0x24
 8000ea6:	f001 fdfd 	bl	8002aa4 <HAL_GetTick>
 8000eaa:	4606      	mov	r6, r0
 8000eac:	f001 fdfa 	bl	8002aa4 <HAL_GetTick>
 8000eb0:	682b      	ldr	r3, [r5, #0]
 8000eb2:	1b80      	subs	r0, r0, r6
 8000eb4:	4298      	cmp	r0, r3
 8000eb6:	d9f9      	bls.n	8000eac <encoderA+0x20>
 8000eb8:	6820      	ldr	r0, [r4, #0]
 8000eba:	6a42      	ldr	r2, [r0, #36]	; 0x24
 8000ebc:	6803      	ldr	r3, [r0, #0]
 8000ebe:	1ab9      	subs	r1, r7, r2
 8000ec0:	ea81 76e1 	eor.w	r6, r1, r1, asr #31
 8000ec4:	f013 0f10 	tst.w	r3, #16
 8000ec8:	eba6 76e1 	sub.w	r6, r6, r1, asr #31
 8000ecc:	f64f 73ff 	movw	r3, #65535	; 0xffff
 8000ed0:	d061      	beq.n	8000f96 <encoderA+0x10a>
 8000ed2:	4419      	add	r1, r3
 8000ed4:	ea81 73e1 	eor.w	r3, r1, r1, asr #31
 8000ed8:	eba3 73e1 	sub.w	r3, r3, r1, asr #31
 8000edc:	4a57      	ldr	r2, [pc, #348]	; (800103c <encoderA+0x1b0>)
 8000ede:	42b3      	cmp	r3, r6
 8000ee0:	bf28      	it	cs
 8000ee2:	4633      	movcs	r3, r6
 8000ee4:	6013      	str	r3, [r2, #0]
 8000ee6:	4a56      	ldr	r2, [pc, #344]	; (8001040 <encoderA+0x1b4>)
 8000ee8:	7812      	ldrb	r2, [r2, #0]
 8000eea:	2a01      	cmp	r2, #1
 8000eec:	d137      	bne.n	8000f5e <encoderA+0xd2>
 8000eee:	4a55      	ldr	r2, [pc, #340]	; (8001044 <encoderA+0x1b8>)
 8000ef0:	edd2 7a00 	vldr	s15, [r2]
 8000ef4:	4a54      	ldr	r2, [pc, #336]	; (8001048 <encoderA+0x1bc>)
 8000ef6:	ee07 3a10 	vmov	s14, r3
 8000efa:	edd2 5a00 	vldr	s11, [r2]
 8000efe:	4a53      	ldr	r2, [pc, #332]	; (800104c <encoderA+0x1c0>)
 8000f00:	eeb8 6ac7 	vcvt.f32.s32	s12, s14
 8000f04:	ee67 6aa5 	vmul.f32	s13, s15, s11
 8000f08:	ee66 6a86 	vmul.f32	s13, s13, s12
 8000f0c:	ee86 7a88 	vdiv.f32	s14, s13, s16
 8000f10:	edd2 6a00 	vldr	s13, [r2]
 8000f14:	ee37 7a26 	vadd.f32	s14, s14, s13
 8000f18:	ed82 7a00 	vstr	s14, [r2]
 8000f1c:	4a4c      	ldr	r2, [pc, #304]	; (8001050 <encoderA+0x1c4>)
 8000f1e:	edd2 6a00 	vldr	s13, [r2]
 8000f22:	eef5 6a40 	vcmp.f32	s13, #0.0
 8000f26:	eef1 fa10 	vmrs	APSR_nzcv, fpscr
 8000f2a:	bf04      	itt	eq
 8000f2c:	4949      	ldreq	r1, [pc, #292]	; (8001054 <encoderA+0x1c8>)
 8000f2e:	ed91 7a00 	vldreq	s14, [r1]
 8000f32:	4949      	ldr	r1, [pc, #292]	; (8001058 <encoderA+0x1cc>)
 8000f34:	bf04      	itt	eq
 8000f36:	ee37 7a26 	vaddeq.f32	s14, s14, s13
 8000f3a:	ed82 7a00 	vstreq	s14, [r2]
 8000f3e:	ed91 7a00 	vldr	s14, [r1]
 8000f42:	ee67 7a87 	vmul.f32	s15, s15, s14
 8000f46:	ee67 7aa5 	vmul.f32	s15, s15, s11
 8000f4a:	ee67 7a86 	vmul.f32	s15, s15, s12
 8000f4e:	ee87 7a88 	vdiv.f32	s14, s15, s16
 8000f52:	edd2 7a00 	vldr	s15, [r2]
 8000f56:	ee77 7a27 	vadd.f32	s15, s14, s15
 8000f5a:	edc2 7a00 	vstr	s15, [r2]
 8000f5e:	4a3f      	ldr	r2, [pc, #252]	; (800105c <encoderA+0x1d0>)
 8000f60:	7812      	ldrb	r2, [r2, #0]
 8000f62:	2a01      	cmp	r2, #1
 8000f64:	d112      	bne.n	8000f8c <encoderA+0x100>
 8000f66:	493e      	ldr	r1, [pc, #248]	; (8001060 <encoderA+0x1d4>)
 8000f68:	680a      	ldr	r2, [r1, #0]
 8000f6a:	b9d2      	cbnz	r2, 8000fa2 <encoderA+0x116>
 8000f6c:	4f3d      	ldr	r7, [pc, #244]	; (8001064 <encoderA+0x1d8>)
 8000f6e:	683e      	ldr	r6, [r7, #0]
 8000f70:	f106 0c01 	add.w	ip, r6, #1
 8000f74:	f8c7 c000 	str.w	ip, [r7]
 8000f78:	4f3b      	ldr	r7, [pc, #236]	; (8001068 <encoderA+0x1dc>)
 8000f7a:	683f      	ldr	r7, [r7, #0]
 8000f7c:	42be      	cmp	r6, r7
 8000f7e:	d110      	bne.n	8000fa2 <encoderA+0x116>
 8000f80:	4a3a      	ldr	r2, [pc, #232]	; (800106c <encoderA+0x1e0>)
 8000f82:	6812      	ldr	r2, [r2, #0]
 8000f84:	429a      	cmp	r2, r3
 8000f86:	bfd4      	ite	le
 8000f88:	600a      	strle	r2, [r1, #0]
 8000f8a:	600b      	strgt	r3, [r1, #0]
 8000f8c:	6a47      	ldr	r7, [r0, #36]	; 0x24
 8000f8e:	f001 fd89 	bl	8002aa4 <HAL_GetTick>
 8000f92:	4606      	mov	r6, r0
 8000f94:	e78a      	b.n	8000eac <encoderA+0x20>
 8000f96:	441a      	add	r2, r3
 8000f98:	1bd3      	subs	r3, r2, r7
 8000f9a:	2b00      	cmp	r3, #0
 8000f9c:	bfb8      	it	lt
 8000f9e:	425b      	neglt	r3, r3
 8000fa0:	e79c      	b.n	8000edc <encoderA+0x50>
 8000fa2:	4933      	ldr	r1, [pc, #204]	; (8001070 <encoderA+0x1e4>)
 8000fa4:	7809      	ldrb	r1, [r1, #0]
 8000fa6:	2900      	cmp	r1, #0
 8000fa8:	d1f0      	bne.n	8000f8c <encoderA+0x100>
 8000faa:	2a00      	cmp	r2, #0
 8000fac:	d0ee      	beq.n	8000f8c <encoderA+0x100>
 8000fae:	1ad3      	subs	r3, r2, r3
 8000fb0:	4a30      	ldr	r2, [pc, #192]	; (8001074 <encoderA+0x1e8>)
 8000fb2:	4931      	ldr	r1, [pc, #196]	; (8001078 <encoderA+0x1ec>)
 8000fb4:	6013      	str	r3, [r2, #0]
 8000fb6:	4a31      	ldr	r2, [pc, #196]	; (800107c <encoderA+0x1f0>)
 8000fb8:	4f31      	ldr	r7, [pc, #196]	; (8001080 <encoderA+0x1f4>)
 8000fba:	680e      	ldr	r6, [r1, #0]
 8000fbc:	7812      	ldrb	r2, [r2, #0]
 8000fbe:	ee07 3a90 	vmov	s15, r3
 8000fc2:	ee07 6a10 	vmov	s14, r6
 8000fc6:	eef8 6ae7 	vcvt.f32.s32	s13, s15
 8000fca:	edd7 7a00 	vldr	s15, [r7]
 8000fce:	2a46      	cmp	r2, #70	; 0x46
 8000fd0:	eef8 7ae7 	vcvt.f32.s32	s15, s15
 8000fd4:	eeb8 7ac7 	vcvt.f32.s32	s14, s14
 8000fd8:	d11d      	bne.n	8001016 <encoderA+0x18a>
 8000fda:	4a2a      	ldr	r2, [pc, #168]	; (8001084 <encoderA+0x1f8>)
 8000fdc:	ed92 6a00 	vldr	s12, [r2]
 8000fe0:	4a29      	ldr	r2, [pc, #164]	; (8001088 <encoderA+0x1fc>)
 8000fe2:	ee67 7a86 	vmul.f32	s15, s15, s12
 8000fe6:	ed92 6a00 	vldr	s12, [r2]
 8000fea:	4a28      	ldr	r2, [pc, #160]	; (800108c <encoderA+0x200>)
 8000fec:	eee6 7a26 	vfma.f32	s15, s12, s13
 8000ff0:	f8df c0a8 	ldr.w	ip, [pc, #168]	; 800109c <encoderA+0x210>
 8000ff4:	edd2 6a00 	vldr	s13, [r2]
 8000ff8:	f8dc 2000 	ldr.w	r2, [ip]
 8000ffc:	603b      	str	r3, [r7, #0]
 8000ffe:	eee6 7a87 	vfma.f32	s15, s13, s14
 8001002:	4433      	add	r3, r6
 8001004:	600b      	str	r3, [r1, #0]
 8001006:	eefd 7ae7 	vcvt.s32.f32	s15, s15
 800100a:	ee17 ea90 	vmov	lr, s15
 800100e:	4472      	add	r2, lr
 8001010:	f8cc 2000 	str.w	r2, [ip]
 8001014:	e7ba      	b.n	8000f8c <encoderA+0x100>
 8001016:	4a1e      	ldr	r2, [pc, #120]	; (8001090 <encoderA+0x204>)
 8001018:	ed92 6a00 	vldr	s12, [r2]
 800101c:	4a1d      	ldr	r2, [pc, #116]	; (8001094 <encoderA+0x208>)
 800101e:	ee67 7a86 	vmul.f32	s15, s15, s12
 8001022:	ed92 6a00 	vldr	s12, [r2]
 8001026:	4a1c      	ldr	r2, [pc, #112]	; (8001098 <encoderA+0x20c>)
 8001028:	eee6 7a26 	vfma.f32	s15, s12, s13
 800102c:	e7e0      	b.n	8000ff0 <encoderA+0x164>
 800102e:	bf00      	nop
 8001030:	20004d58 	.word	0x20004d58
 8001034:	200049b8 	.word	0x200049b8
 8001038:	43250000 	.word	0x43250000
 800103c:	20004d18 	.word	0x20004d18
 8001040:	20004c7f 	.word	0x20004c7f
 8001044:	20004dac 	.word	0x20004dac
 8001048:	20004b20 	.word	0x20004b20
 800104c:	200049d0 	.word	0x200049d0
 8001050:	20004c6c 	.word	0x20004c6c
 8001054:	20004c4c 	.word	0x20004c4c
 8001058:	20004db4 	.word	0x20004db4
 800105c:	20004c7c 	.word	0x20004c7c
 8001060:	200049b0 	.word	0x200049b0
 8001064:	20004c58 	.word	0x20004c58
 8001068:	20004b34 	.word	0x20004b34
 800106c:	20004b30 	.word	0x20004b30
 8001070:	20004c00 	.word	0x20004c00
 8001074:	20004cec 	.word	0x20004cec
 8001078:	20004b40 	.word	0x20004b40
 800107c:	20004b3c 	.word	0x20004b3c
 8001080:	20004c60 	.word	0x20004c60
 8001084:	20004bf4 	.word	0x20004bf4
 8001088:	20004ba8 	.word	0x20004ba8
 800108c:	20004da8 	.word	0x20004da8
 8001090:	200049ac 	.word	0x200049ac
 8001094:	200049bc 	.word	0x200049bc
 8001098:	20004b24 	.word	0x20004b24
 800109c:	20004d3c 	.word	0x20004d3c

080010a0 <encoderB>:
 80010a0:	b5f8      	push	{r3, r4, r5, r6, r7, lr}
 80010a2:	4c68      	ldr	r4, [pc, #416]	; (8001244 <encoderB+0x1a4>)
 80010a4:	4d68      	ldr	r5, [pc, #416]	; (8001248 <encoderB+0x1a8>)
 80010a6:	ed2d 8b02 	vpush	{d8}
 80010aa:	213c      	movs	r1, #60	; 0x3c
 80010ac:	4620      	mov	r0, r4
 80010ae:	f002 fc4d 	bl	800394c <HAL_TIM_Encoder_Start>
 80010b2:	6823      	ldr	r3, [r4, #0]
 80010b4:	ed9f 8a65 	vldr	s16, [pc, #404]	; 800124c <encoderB+0x1ac>
 80010b8:	6a5f      	ldr	r7, [r3, #36]	; 0x24
 80010ba:	f001 fcf3 	bl	8002aa4 <HAL_GetTick>
 80010be:	4606      	mov	r6, r0
 80010c0:	f001 fcf0 	bl	8002aa4 <HAL_GetTick>
 80010c4:	682b      	ldr	r3, [r5, #0]
 80010c6:	1b80      	subs	r0, r0, r6
 80010c8:	4298      	cmp	r0, r3
 80010ca:	d9f9      	bls.n	80010c0 <encoderB+0x20>
 80010cc:	6820      	ldr	r0, [r4, #0]
 80010ce:	6a42      	ldr	r2, [r0, #36]	; 0x24
 80010d0:	6803      	ldr	r3, [r0, #0]
 80010d2:	1ab9      	subs	r1, r7, r2
 80010d4:	ea81 76e1 	eor.w	r6, r1, r1, asr #31
 80010d8:	f013 0f10 	tst.w	r3, #16
 80010dc:	eba6 76e1 	sub.w	r6, r6, r1, asr #31
 80010e0:	f64f 73ff 	movw	r3, #65535	; 0xffff
 80010e4:	d061      	beq.n	80011aa <encoderB+0x10a>
 80010e6:	4419      	add	r1, r3
 80010e8:	ea81 73e1 	eor.w	r3, r1, r1, asr #31
 80010ec:	eba3 73e1 	sub.w	r3, r3, r1, asr #31
 80010f0:	4a57      	ldr	r2, [pc, #348]	; (8001250 <encoderB+0x1b0>)
 80010f2:	42b3      	cmp	r3, r6
 80010f4:	bf28      	it	cs
 80010f6:	4633      	movcs	r3, r6
 80010f8:	6013      	str	r3, [r2, #0]
 80010fa:	4a56      	ldr	r2, [pc, #344]	; (8001254 <encoderB+0x1b4>)
 80010fc:	7812      	ldrb	r2, [r2, #0]
 80010fe:	2a01      	cmp	r2, #1
 8001100:	d137      	bne.n	8001172 <encoderB+0xd2>
 8001102:	4a55      	ldr	r2, [pc, #340]	; (8001258 <encoderB+0x1b8>)
 8001104:	edd2 7a00 	vldr	s15, [r2]
 8001108:	4a54      	ldr	r2, [pc, #336]	; (800125c <encoderB+0x1bc>)
 800110a:	ee07 3a10 	vmov	s14, r3
 800110e:	edd2 5a00 	vldr	s11, [r2]
 8001112:	4a53      	ldr	r2, [pc, #332]	; (8001260 <encoderB+0x1c0>)
 8001114:	eeb8 6ac7 	vcvt.f32.s32	s12, s14
 8001118:	ee67 6aa5 	vmul.f32	s13, s15, s11
 800111c:	ee66 6a86 	vmul.f32	s13, s13, s12
 8001120:	ee86 7a88 	vdiv.f32	s14, s13, s16
 8001124:	edd2 6a00 	vldr	s13, [r2]
 8001128:	ee37 7a26 	vadd.f32	s14, s14, s13
 800112c:	ed82 7a00 	vstr	s14, [r2]
 8001130:	4a4c      	ldr	r2, [pc, #304]	; (8001264 <encoderB+0x1c4>)
 8001132:	edd2 6a00 	vldr	s13, [r2]
 8001136:	eef5 6a40 	vcmp.f32	s13, #0.0
 800113a:	eef1 fa10 	vmrs	APSR_nzcv, fpscr
 800113e:	bf04      	itt	eq
 8001140:	4949      	ldreq	r1, [pc, #292]	; (8001268 <encoderB+0x1c8>)
 8001142:	ed91 7a00 	vldreq	s14, [r1]
 8001146:	4949      	ldr	r1, [pc, #292]	; (800126c <encoderB+0x1cc>)
 8001148:	bf04      	itt	eq
 800114a:	ee37 7a26 	vaddeq.f32	s14, s14, s13
 800114e:	ed82 7a00 	vstreq	s14, [r2]
 8001152:	ed91 7a00 	vldr	s14, [r1]
 8001156:	ee67 7a87 	vmul.f32	s15, s15, s14
 800115a:	ee67 7aa5 	vmul.f32	s15, s15, s11
 800115e:	ee67 7a86 	vmul.f32	s15, s15, s12
 8001162:	ee87 7a88 	vdiv.f32	s14, s15, s16
 8001166:	edd2 7a00 	vldr	s15, [r2]
 800116a:	ee77 7a27 	vadd.f32	s15, s14, s15
 800116e:	edc2 7a00 	vstr	s15, [r2]
 8001172:	4a3f      	ldr	r2, [pc, #252]	; (8001270 <encoderB+0x1d0>)
 8001174:	7812      	ldrb	r2, [r2, #0]
 8001176:	2a01      	cmp	r2, #1
 8001178:	d112      	bne.n	80011a0 <encoderB+0x100>
 800117a:	493e      	ldr	r1, [pc, #248]	; (8001274 <encoderB+0x1d4>)
 800117c:	680a      	ldr	r2, [r1, #0]
 800117e:	b9d2      	cbnz	r2, 80011b6 <encoderB+0x116>
 8001180:	4f3d      	ldr	r7, [pc, #244]	; (8001278 <encoderB+0x1d8>)
 8001182:	683e      	ldr	r6, [r7, #0]
 8001184:	f106 0c01 	add.w	ip, r6, #1
 8001188:	f8c7 c000 	str.w	ip, [r7]
 800118c:	4f3b      	ldr	r7, [pc, #236]	; (800127c <encoderB+0x1dc>)
 800118e:	683f      	ldr	r7, [r7, #0]
 8001190:	42be      	cmp	r6, r7
 8001192:	d110      	bne.n	80011b6 <encoderB+0x116>
 8001194:	4a3a      	ldr	r2, [pc, #232]	; (8001280 <encoderB+0x1e0>)
 8001196:	6812      	ldr	r2, [r2, #0]
 8001198:	429a      	cmp	r2, r3
 800119a:	bfd4      	ite	le
 800119c:	600a      	strle	r2, [r1, #0]
 800119e:	600b      	strgt	r3, [r1, #0]
 80011a0:	6a47      	ldr	r7, [r0, #36]	; 0x24
 80011a2:	f001 fc7f 	bl	8002aa4 <HAL_GetTick>
 80011a6:	4606      	mov	r6, r0
 80011a8:	e78a      	b.n	80010c0 <encoderB+0x20>
 80011aa:	441a      	add	r2, r3
 80011ac:	1bd3      	subs	r3, r2, r7
 80011ae:	2b00      	cmp	r3, #0
 80011b0:	bfb8      	it	lt
 80011b2:	425b      	neglt	r3, r3
 80011b4:	e79c      	b.n	80010f0 <encoderB+0x50>
 80011b6:	4933      	ldr	r1, [pc, #204]	; (8001284 <encoderB+0x1e4>)
 80011b8:	7809      	ldrb	r1, [r1, #0]
 80011ba:	2900      	cmp	r1, #0
 80011bc:	d1f0      	bne.n	80011a0 <encoderB+0x100>
 80011be:	2a00      	cmp	r2, #0
 80011c0:	d0ee      	beq.n	80011a0 <encoderB+0x100>
 80011c2:	1ad3      	subs	r3, r2, r3
 80011c4:	4a30      	ldr	r2, [pc, #192]	; (8001288 <encoderB+0x1e8>)
 80011c6:	4931      	ldr	r1, [pc, #196]	; (800128c <encoderB+0x1ec>)
 80011c8:	6013      	str	r3, [r2, #0]
 80011ca:	4a31      	ldr	r2, [pc, #196]	; (8001290 <encoderB+0x1f0>)
 80011cc:	4f31      	ldr	r7, [pc, #196]	; (8001294 <encoderB+0x1f4>)
 80011ce:	680e      	ldr	r6, [r1, #0]
 80011d0:	7812      	ldrb	r2, [r2, #0]
 80011d2:	ee07 3a90 	vmov	s15, r3
 80011d6:	ee07 6a10 	vmov	s14, r6
 80011da:	eef8 6ae7 	vcvt.f32.s32	s13, s15
 80011de:	edd7 7a00 	vldr	s15, [r7]
 80011e2:	2a46      	cmp	r2, #70	; 0x46
 80011e4:	eef8 7ae7 	vcvt.f32.s32	s15, s15
 80011e8:	eeb8 7ac7 	vcvt.f32.s32	s14, s14
 80011ec:	d11d      	bne.n	800122a <encoderB+0x18a>
 80011ee:	4a2a      	ldr	r2, [pc, #168]	; (8001298 <encoderB+0x1f8>)
 80011f0:	ed92 6a00 	vldr	s12, [r2]
 80011f4:	4a29      	ldr	r2, [pc, #164]	; (800129c <encoderB+0x1fc>)
 80011f6:	ee67 7a86 	vmul.f32	s15, s15, s12
 80011fa:	ed92 6a00 	vldr	s12, [r2]
 80011fe:	4a28      	ldr	r2, [pc, #160]	; (80012a0 <encoderB+0x200>)
 8001200:	eee6 7a26 	vfma.f32	s15, s12, s13
 8001204:	f8df c0a8 	ldr.w	ip, [pc, #168]	; 80012b0 <encoderB+0x210>
 8001208:	edd2 6a00 	vldr	s13, [r2]
 800120c:	f8dc 2000 	ldr.w	r2, [ip]
 8001210:	603b      	str	r3, [r7, #0]
 8001212:	eee6 7a87 	vfma.f32	s15, s13, s14
 8001216:	4433      	add	r3, r6
 8001218:	600b      	str	r3, [r1, #0]
 800121a:	eefd 7ae7 	vcvt.s32.f32	s15, s15
 800121e:	ee17 ea90 	vmov	lr, s15
 8001222:	4472      	add	r2, lr
 8001224:	f8cc 2000 	str.w	r2, [ip]
 8001228:	e7ba      	b.n	80011a0 <encoderB+0x100>
 800122a:	4a1e      	ldr	r2, [pc, #120]	; (80012a4 <encoderB+0x204>)
 800122c:	ed92 6a00 	vldr	s12, [r2]
 8001230:	4a1d      	ldr	r2, [pc, #116]	; (80012a8 <encoderB+0x208>)
 8001232:	ee67 7a86 	vmul.f32	s15, s15, s12
 8001236:	ed92 6a00 	vldr	s12, [r2]
 800123a:	4a1c      	ldr	r2, [pc, #112]	; (80012ac <encoderB+0x20c>)
 800123c:	eee6 7a26 	vfma.f32	s15, s12, s13
 8001240:	e7e0      	b.n	8001204 <encoderB+0x164>
 8001242:	bf00      	nop
 8001244:	20004bac 	.word	0x20004bac
 8001248:	200049b8 	.word	0x200049b8
 800124c:	43250000 	.word	0x43250000
 8001250:	20004b30 	.word	0x20004b30
 8001254:	20004c7f 	.word	0x20004c7f
 8001258:	20004dac 	.word	0x20004dac
 800125c:	20004b20 	.word	0x20004b20
 8001260:	200049c4 	.word	0x200049c4
 8001264:	20004d20 	.word	0x20004d20
 8001268:	20004c4c 	.word	0x20004c4c
 800126c:	20004db4 	.word	0x20004db4
 8001270:	20004c7c 	.word	0x20004c7c
 8001274:	200049b0 	.word	0x200049b0
 8001278:	20004c58 	.word	0x20004c58
 800127c:	20004b34 	.word	0x20004b34
 8001280:	20004d18 	.word	0x20004d18
 8001284:	20004c00 	.word	0x20004c00
 8001288:	20004b38 	.word	0x20004b38
 800128c:	20004da0 	.word	0x20004da0
 8001290:	20004b3c 	.word	0x20004b3c
 8001294:	20004d40 	.word	0x20004d40
 8001298:	20004bf4 	.word	0x20004bf4
 800129c:	20004ba8 	.word	0x20004ba8
 80012a0:	20004da8 	.word	0x20004da8
 80012a4:	200049ac 	.word	0x200049ac
 80012a8:	200049bc 	.word	0x200049bc
 80012ac:	20004b24 	.word	0x20004b24
 80012b0:	20004b28 	.word	0x20004b28

080012b4 <led>:
 80012b4:	b508      	push	{r3, lr}
 80012b6:	4d05      	ldr	r5, [pc, #20]	; (80012cc <led+0x18>)
 80012b8:	4c05      	ldr	r4, [pc, #20]	; (80012d0 <led+0x1c>)
 80012ba:	4628      	mov	r0, r5
 80012bc:	f44f 6180 	mov.w	r1, #1024	; 0x400
 80012c0:	f001 ffb9 	bl	8003236 <HAL_GPIO_TogglePin>
 80012c4:	6820      	ldr	r0, [r4, #0]
 80012c6:	f003 fd18 	bl	8004cfa <osDelay>
 80012ca:	e7f6      	b.n	80012ba <led+0x6>
 80012cc:	40021000 	.word	0x40021000
 80012d0:	200049c0 	.word	0x200049c0

080012d4 <SystemClock_Config>:
 80012d4:	b500      	push	{lr}
 80012d6:	b095      	sub	sp, #84	; 0x54
 80012d8:	222c      	movs	r2, #44	; 0x2c
 80012da:	2100      	movs	r1, #0
 80012dc:	a809      	add	r0, sp, #36	; 0x24
 80012de:	f005 fb5d 	bl	800699c <memset>
 80012e2:	2214      	movs	r2, #20
 80012e4:	2100      	movs	r1, #0
 80012e6:	a803      	add	r0, sp, #12
 80012e8:	f005 fb58 	bl	800699c <memset>
 80012ec:	2300      	movs	r3, #0
 80012ee:	4a19      	ldr	r2, [pc, #100]	; (8001354 <SystemClock_Config+0x80>)
 80012f0:	9301      	str	r3, [sp, #4]
 80012f2:	6c11      	ldr	r1, [r2, #64]	; 0x40
 80012f4:	f041 5180 	orr.w	r1, r1, #268435456	; 0x10000000
 80012f8:	6411      	str	r1, [r2, #64]	; 0x40
 80012fa:	6c12      	ldr	r2, [r2, #64]	; 0x40
 80012fc:	f002 5280 	and.w	r2, r2, #268435456	; 0x10000000
 8001300:	9201      	str	r2, [sp, #4]
 8001302:	9a01      	ldr	r2, [sp, #4]
 8001304:	4a14      	ldr	r2, [pc, #80]	; (8001358 <SystemClock_Config+0x84>)
 8001306:	9302      	str	r3, [sp, #8]
 8001308:	6811      	ldr	r1, [r2, #0]
 800130a:	f441 4180 	orr.w	r1, r1, #16384	; 0x4000
 800130e:	6011      	str	r1, [r2, #0]
 8001310:	6812      	ldr	r2, [r2, #0]
 8001312:	930e      	str	r3, [sp, #56]	; 0x38
 8001314:	f402 4280 	and.w	r2, r2, #16384	; 0x4000
 8001318:	9202      	str	r2, [sp, #8]
 800131a:	9a02      	ldr	r2, [sp, #8]
 800131c:	2202      	movs	r2, #2
 800131e:	9208      	str	r2, [sp, #32]
 8001320:	2001      	movs	r0, #1
 8001322:	2210      	movs	r2, #16
 8001324:	e9cd 020b 	strd	r0, r2, [sp, #44]	; 0x2c
 8001328:	a808      	add	r0, sp, #32
 800132a:	f001 ffb5 	bl	8003298 <HAL_RCC_OscConfig>
 800132e:	4601      	mov	r1, r0
 8001330:	b108      	cbz	r0, 8001336 <SystemClock_Config+0x62>
 8001332:	b672      	cpsid	i
 8001334:	e7fe      	b.n	8001334 <SystemClock_Config+0x60>
 8001336:	230f      	movs	r3, #15
 8001338:	e9cd 3003 	strd	r3, r0, [sp, #12]
 800133c:	e9cd 0005 	strd	r0, r0, [sp, #20]
 8001340:	9007      	str	r0, [sp, #28]
 8001342:	a803      	add	r0, sp, #12
 8001344:	f002 f982 	bl	800364c <HAL_RCC_ClockConfig>
 8001348:	b108      	cbz	r0, 800134e <SystemClock_Config+0x7a>
 800134a:	b672      	cpsid	i
 800134c:	e7fe      	b.n	800134c <SystemClock_Config+0x78>
 800134e:	b015      	add	sp, #84	; 0x54
 8001350:	f85d fb04 	ldr.w	pc, [sp], #4
 8001354:	40023800 	.word	0x40023800
 8001358:	40007000 	.word	0x40007000
 800135c:	00000000 	.word	0x00000000

08001360 <HAL_TIM_IC_CaptureCallback>:
 8001360:	b538      	push	{r3, r4, r5, lr}
 8001362:	4a1d      	ldr	r2, [pc, #116]	; (80013d8 <HAL_TIM_IC_CaptureCallback+0x78>)
 8001364:	6803      	ldr	r3, [r0, #0]
 8001366:	4293      	cmp	r3, r2
 8001368:	4604      	mov	r4, r0
 800136a:	d110      	bne.n	800138e <HAL_TIM_IC_CaptureCallback+0x2e>
 800136c:	7f02      	ldrb	r2, [r0, #28]
 800136e:	2a04      	cmp	r2, #4
 8001370:	d10d      	bne.n	800138e <HAL_TIM_IC_CaptureCallback+0x2e>
 8001372:	4d1a      	ldr	r5, [pc, #104]	; (80013dc <HAL_TIM_IC_CaptureCallback+0x7c>)
 8001374:	782a      	ldrb	r2, [r5, #0]
 8001376:	b95a      	cbnz	r2, 8001390 <HAL_TIM_IC_CaptureCallback+0x30>
 8001378:	625a      	str	r2, [r3, #36]	; 0x24
 800137a:	6a1a      	ldr	r2, [r3, #32]
 800137c:	f422 6220 	bic.w	r2, r2, #2560	; 0xa00
 8001380:	621a      	str	r2, [r3, #32]
 8001382:	6a1a      	ldr	r2, [r3, #32]
 8001384:	f442 7200 	orr.w	r2, r2, #512	; 0x200
 8001388:	621a      	str	r2, [r3, #32]
 800138a:	2301      	movs	r3, #1
 800138c:	702b      	strb	r3, [r5, #0]
 800138e:	bd38      	pop	{r3, r4, r5, pc}
 8001390:	2108      	movs	r1, #8
 8001392:	f002 fb36 	bl	8003a02 <HAL_TIM_ReadCapturedValue>
 8001396:	4b12      	ldr	r3, [pc, #72]	; (80013e0 <HAL_TIM_IC_CaptureCallback+0x80>)
 8001398:	6018      	str	r0, [r3, #0]
 800139a:	6823      	ldr	r3, [r4, #0]
 800139c:	6a1a      	ldr	r2, [r3, #32]
 800139e:	f422 6220 	bic.w	r2, r2, #2560	; 0xa00
 80013a2:	621a      	str	r2, [r3, #32]
 80013a4:	6a1a      	ldr	r2, [r3, #32]
 80013a6:	621a      	str	r2, [r3, #32]
 80013a8:	4b0e      	ldr	r3, [pc, #56]	; (80013e4 <HAL_TIM_IC_CaptureCallback+0x84>)
 80013aa:	681a      	ldr	r2, [r3, #0]
 80013ac:	68d3      	ldr	r3, [r2, #12]
 80013ae:	f023 0308 	bic.w	r3, r3, #8
 80013b2:	60d3      	str	r3, [r2, #12]
 80013b4:	2300      	movs	r3, #0
 80013b6:	702b      	strb	r3, [r5, #0]
 80013b8:	f7ff f9c6 	bl	8000748 <__aeabi_ui2d>
 80013bc:	a304      	add	r3, pc, #16	; (adr r3, 80013d0 <HAL_TIM_IC_CaptureCallback+0x70>)
 80013be:	e9d3 2300 	ldrd	r2, r3, [r3]
 80013c2:	f7fe ff55 	bl	8000270 <__aeabi_dmul>
 80013c6:	f7ff fa81 	bl	80008cc <__aeabi_d2f>
 80013ca:	4b07      	ldr	r3, [pc, #28]	; (80013e8 <HAL_TIM_IC_CaptureCallback+0x88>)
 80013cc:	6018      	str	r0, [r3, #0]
 80013ce:	e7de      	b.n	800138e <HAL_TIM_IC_CaptureCallback+0x2e>
 80013d0:	04816f00 	.word	0x04816f00
 80013d4:	3f918fc5 	.word	0x3f918fc5
 80013d8:	40000800 	.word	0x40000800
 80013dc:	20004c7d 	.word	0x20004c7d
 80013e0:	20004ba4 	.word	0x20004ba4
 80013e4:	20004a38 	.word	0x20004a38
 80013e8:	20004d38 	.word	0x20004d38

080013ec <HAL_UART_RxCpltCallback>:
 80013ec:	4770      	bx	lr
	...

080013f0 <irToDist>:
 80013f0:	4a0e      	ldr	r2, [pc, #56]	; (800142c <irToDist+0x3c>)
 80013f2:	eddf 7a0f 	vldr	s15, [pc, #60]	; 8001430 <irToDist+0x40>
 80013f6:	b508      	push	{r3, lr}
 80013f8:	2300      	movs	r3, #0
 80013fa:	ecb2 7a01 	vldmia	r2!, {s14}
 80013fe:	3301      	adds	r3, #1
 8001400:	eeb8 7a47 	vcvt.f32.u32	s14, s14
 8001404:	2b05      	cmp	r3, #5
 8001406:	ee77 7a87 	vadd.f32	s15, s15, s14
 800140a:	d1f6      	bne.n	80013fa <irToDist+0xa>
 800140c:	eeb1 7a04 	vmov.f32	s14, #20	; 0x40a00000  5.0
 8001410:	eec7 7a87 	vdiv.f32	s15, s15, s14
 8001414:	ee17 0a90 	vmov	r0, s15
 8001418:	f7ff f9b8 	bl	800078c <__aeabi_f2d>
 800141c:	4b05      	ldr	r3, [pc, #20]	; (8001434 <irToDist+0x44>)
 800141e:	2200      	movs	r2, #0
 8001420:	f7ff f856 	bl	80004d0 <__adddf3>
 8001424:	f7ff fa0a 	bl	800083c <__aeabi_d2iz>
 8001428:	bd08      	pop	{r3, pc}
 800142a:	bf00      	nop
 800142c:	200049d4 	.word	0x200049d4
 8001430:	00000000 	.word	0x00000000
 8001434:	3fe00000 	.word	0x3fe00000

08001438 <oled>:
 8001438:	b570      	push	{r4, r5, r6, lr}
 800143a:	4e50      	ldr	r6, [pc, #320]	; (800157c <oled+0x144>)
 800143c:	4d50      	ldr	r5, [pc, #320]	; (8001580 <oled+0x148>)
 800143e:	b086      	sub	sp, #24
 8001440:	2400      	movs	r4, #0
 8001442:	7832      	ldrb	r2, [r6, #0]
 8001444:	494f      	ldr	r1, [pc, #316]	; (8001584 <oled+0x14c>)
 8001446:	a801      	add	r0, sp, #4
 8001448:	f005 fab0 	bl	80069ac <siprintf>
 800144c:	2100      	movs	r1, #0
 800144e:	aa01      	add	r2, sp, #4
 8001450:	4608      	mov	r0, r1
 8001452:	f005 f9bf 	bl	80067d4 <OLED_ShowString>
 8001456:	494c      	ldr	r1, [pc, #304]	; (8001588 <oled+0x150>)
 8001458:	a801      	add	r0, sp, #4
 800145a:	f005 fac7 	bl	80069ec <strcpy>
 800145e:	4b4b      	ldr	r3, [pc, #300]	; (800158c <oled+0x154>)
 8001460:	4a4b      	ldr	r2, [pc, #300]	; (8001590 <oled+0x158>)
 8001462:	681b      	ldr	r3, [r3, #0]
 8001464:	6812      	ldr	r2, [r2, #0]
 8001466:	4293      	cmp	r3, r2
 8001468:	dc0e      	bgt.n	8001488 <oled+0x50>
 800146a:	2214      	movs	r2, #20
 800146c:	4849      	ldr	r0, [pc, #292]	; (8001594 <oled+0x15c>)
 800146e:	4353      	muls	r3, r2
 8001470:	18c1      	adds	r1, r0, r3
 8001472:	5cc3      	ldrb	r3, [r0, r3]
 8001474:	b143      	cbz	r3, 8001488 <oled+0x50>
 8001476:	4b48      	ldr	r3, [pc, #288]	; (8001598 <oled+0x160>)
 8001478:	7818      	ldrb	r0, [r3, #0]
 800147a:	4b48      	ldr	r3, [pc, #288]	; (800159c <oled+0x164>)
 800147c:	2800      	cmp	r0, #0
 800147e:	bf18      	it	ne
 8001480:	4619      	movne	r1, r3
 8001482:	a801      	add	r0, sp, #4
 8001484:	f005 faba 	bl	80069fc <strncpy>
 8001488:	aa01      	add	r2, sp, #4
 800148a:	2100      	movs	r1, #0
 800148c:	200a      	movs	r0, #10
 800148e:	f005 f9a1 	bl	80067d4 <OLED_ShowString>
 8001492:	f7ff ffad 	bl	80013f0 <irToDist>
 8001496:	4942      	ldr	r1, [pc, #264]	; (80015a0 <oled+0x168>)
 8001498:	4602      	mov	r2, r0
 800149a:	a801      	add	r0, sp, #4
 800149c:	f005 fa86 	bl	80069ac <siprintf>
 80014a0:	210a      	movs	r1, #10
 80014a2:	aa01      	add	r2, sp, #4
 80014a4:	4608      	mov	r0, r1
 80014a6:	f005 f995 	bl	80067d4 <OLED_ShowString>
 80014aa:	4b3e      	ldr	r3, [pc, #248]	; (80015a4 <oled+0x16c>)
 80014ac:	6818      	ldr	r0, [r3, #0]
 80014ae:	f7ff f96d 	bl	800078c <__aeabi_f2d>
 80014b2:	462b      	mov	r3, r5
 80014b4:	4622      	mov	r2, r4
 80014b6:	f7ff f80b 	bl	80004d0 <__adddf3>
 80014ba:	f7ff f9bf 	bl	800083c <__aeabi_d2iz>
 80014be:	493a      	ldr	r1, [pc, #232]	; (80015a8 <oled+0x170>)
 80014c0:	4602      	mov	r2, r0
 80014c2:	a801      	add	r0, sp, #4
 80014c4:	f005 fa72 	bl	80069ac <siprintf>
 80014c8:	aa01      	add	r2, sp, #4
 80014ca:	2114      	movs	r1, #20
 80014cc:	200a      	movs	r0, #10
 80014ce:	f005 f981 	bl	80067d4 <OLED_ShowString>
 80014d2:	4b36      	ldr	r3, [pc, #216]	; (80015ac <oled+0x174>)
 80014d4:	6818      	ldr	r0, [r3, #0]
 80014d6:	f7ff f959 	bl	800078c <__aeabi_f2d>
 80014da:	462b      	mov	r3, r5
 80014dc:	4622      	mov	r2, r4
 80014de:	f7fe fff7 	bl	80004d0 <__adddf3>
 80014e2:	f7ff f9ab 	bl	800083c <__aeabi_d2iz>
 80014e6:	4932      	ldr	r1, [pc, #200]	; (80015b0 <oled+0x178>)
 80014e8:	4602      	mov	r2, r0
 80014ea:	a801      	add	r0, sp, #4
 80014ec:	f005 fa5e 	bl	80069ac <siprintf>
 80014f0:	aa01      	add	r2, sp, #4
 80014f2:	211e      	movs	r1, #30
 80014f4:	200a      	movs	r0, #10
 80014f6:	f005 f96d 	bl	80067d4 <OLED_ShowString>
 80014fa:	4b2e      	ldr	r3, [pc, #184]	; (80015b4 <oled+0x17c>)
 80014fc:	6818      	ldr	r0, [r3, #0]
 80014fe:	f7ff f945 	bl	800078c <__aeabi_f2d>
 8001502:	462b      	mov	r3, r5
 8001504:	4622      	mov	r2, r4
 8001506:	f7fe ffe3 	bl	80004d0 <__adddf3>
 800150a:	f7ff f997 	bl	800083c <__aeabi_d2iz>
 800150e:	492a      	ldr	r1, [pc, #168]	; (80015b8 <oled+0x180>)
 8001510:	4602      	mov	r2, r0
 8001512:	a801      	add	r0, sp, #4
 8001514:	f005 fa4a 	bl	80069ac <siprintf>
 8001518:	aa01      	add	r2, sp, #4
 800151a:	2128      	movs	r1, #40	; 0x28
 800151c:	200a      	movs	r0, #10
 800151e:	f005 f959 	bl	80067d4 <OLED_ShowString>
 8001522:	4a26      	ldr	r2, [pc, #152]	; (80015bc <oled+0x184>)
 8001524:	eddf 7a26 	vldr	s15, [pc, #152]	; 80015c0 <oled+0x188>
 8001528:	2300      	movs	r3, #0
 800152a:	ecb2 7a01 	vldmia	r2!, {s14}
 800152e:	3301      	adds	r3, #1
 8001530:	eeb8 7a47 	vcvt.f32.u32	s14, s14
 8001534:	2b05      	cmp	r3, #5
 8001536:	ee77 7a87 	vadd.f32	s15, s15, s14
 800153a:	d1f6      	bne.n	800152a <oled+0xf2>
 800153c:	eeb1 7a04 	vmov.f32	s14, #20	; 0x40a00000  5.0
 8001540:	eec7 7a87 	vdiv.f32	s15, s15, s14
 8001544:	ee17 0a90 	vmov	r0, s15
 8001548:	f7ff f920 	bl	800078c <__aeabi_f2d>
 800154c:	462b      	mov	r3, r5
 800154e:	4622      	mov	r2, r4
 8001550:	f7fe ffbe 	bl	80004d0 <__adddf3>
 8001554:	f7ff f972 	bl	800083c <__aeabi_d2iz>
 8001558:	491a      	ldr	r1, [pc, #104]	; (80015c4 <oled+0x18c>)
 800155a:	4602      	mov	r2, r0
 800155c:	a801      	add	r0, sp, #4
 800155e:	f005 fa25 	bl	80069ac <siprintf>
 8001562:	aa01      	add	r2, sp, #4
 8001564:	2132      	movs	r1, #50	; 0x32
 8001566:	200a      	movs	r0, #10
 8001568:	f005 f934 	bl	80067d4 <OLED_ShowString>
 800156c:	f005 f896 	bl	800669c <OLED_Refresh_Gram>
 8001570:	4b15      	ldr	r3, [pc, #84]	; (80015c8 <oled+0x190>)
 8001572:	6818      	ldr	r0, [r3, #0]
 8001574:	f003 fbc1 	bl	8004cfa <osDelay>
 8001578:	e763      	b.n	8001442 <oled+0xa>
 800157a:	bf00      	nop
 800157c:	20004c7e 	.word	0x20004c7e
 8001580:	3fe00000 	.word	0x3fe00000
 8001584:	08007399 	.word	0x08007399
 8001588:	08007358 	.word	0x08007358
 800158c:	20004c70 	.word	0x20004c70
 8001590:	200049a8 	.word	0x200049a8
 8001594:	20004dbc 	.word	0x20004dbc
 8001598:	20004c00 	.word	0x20004c00
 800159c:	20004b90 	.word	0x20004b90
 80015a0:	08007363 	.word	0x08007363
 80015a4:	20004d38 	.word	0x20004d38
 80015a8:	0800736c 	.word	0x0800736c
 80015ac:	20004c6c 	.word	0x20004c6c
 80015b0:	08007378 	.word	0x08007378
 80015b4:	20004d20 	.word	0x20004d20
 80015b8:	08007384 	.word	0x08007384
 80015bc:	20004d44 	.word	0x20004d44
 80015c0:	00000000 	.word	0x00000000
 80015c4:	08007390 	.word	0x08007390
 80015c8:	20004d10 	.word	0x20004d10

080015cc <rxFilled>:
 80015cc:	4906      	ldr	r1, [pc, #24]	; (80015e8 <rxFilled+0x1c>)
 80015ce:	4602      	mov	r2, r0
 80015d0:	2300      	movs	r3, #0
 80015d2:	429a      	cmp	r2, r3
 80015d4:	dc01      	bgt.n	80015da <rxFilled+0xe>
 80015d6:	2001      	movs	r0, #1
 80015d8:	4770      	bx	lr
 80015da:	f811 0b01 	ldrb.w	r0, [r1], #1
 80015de:	2800      	cmp	r0, #0
 80015e0:	d0fa      	beq.n	80015d8 <rxFilled+0xc>
 80015e2:	3301      	adds	r3, #1
 80015e4:	e7f5      	b.n	80015d2 <rxFilled+0x6>
 80015e6:	bf00      	nop
 80015e8:	20004c8c 	.word	0x20004c8c

080015ec <rpi>:
 80015ec:	e92d 47ff 	stmdb	sp!, {r0, r1, r2, r3, r4, r5, r6, r7, r8, r9, sl, lr}
 80015f0:	4e3d      	ldr	r6, [pc, #244]	; (80016e8 <rpi+0xfc>)
 80015f2:	4637      	mov	r7, r6
 80015f4:	493d      	ldr	r1, [pc, #244]	; (80016ec <rpi+0x100>)
 80015f6:	483e      	ldr	r0, [pc, #248]	; (80016f0 <rpi+0x104>)
 80015f8:	220a      	movs	r2, #10
 80015fa:	f003 faf0 	bl	8004bde <HAL_UART_Receive_IT>
 80015fe:	200a      	movs	r0, #10
 8001600:	f7ff ffe4 	bl	80015cc <rxFilled>
 8001604:	2801      	cmp	r0, #1
 8001606:	d11c      	bne.n	8001642 <rpi+0x56>
 8001608:	4938      	ldr	r1, [pc, #224]	; (80016ec <rpi+0x100>)
 800160a:	2203      	movs	r2, #3
 800160c:	a803      	add	r0, sp, #12
 800160e:	f005 f9f5 	bl	80069fc <strncpy>
 8001612:	a803      	add	r0, sp, #12
 8001614:	f005 f986 	bl	8006924 <atoi>
 8001618:	f5b0 7f7a 	cmp.w	r0, #1000	; 0x3e8
 800161c:	4604      	mov	r4, r0
 800161e:	d20b      	bcs.n	8001638 <rpi+0x4c>
 8001620:	4834      	ldr	r0, [pc, #208]	; (80016f4 <rpi+0x108>)
 8001622:	4932      	ldr	r1, [pc, #200]	; (80016ec <rpi+0x100>)
 8001624:	2214      	movs	r2, #20
 8001626:	fb02 0004 	mla	r0, r2, r4, r0
 800162a:	f005 f9e7 	bl	80069fc <strncpy>
 800162e:	4b32      	ldr	r3, [pc, #200]	; (80016f8 <rpi+0x10c>)
 8001630:	681a      	ldr	r2, [r3, #0]
 8001632:	42a2      	cmp	r2, r4
 8001634:	bfb8      	it	lt
 8001636:	601c      	strlt	r4, [r3, #0]
 8001638:	482c      	ldr	r0, [pc, #176]	; (80016ec <rpi+0x100>)
 800163a:	2214      	movs	r2, #20
 800163c:	2100      	movs	r1, #0
 800163e:	f005 f9ad 	bl	800699c <memset>
 8001642:	7833      	ldrb	r3, [r6, #0]
 8001644:	2b02      	cmp	r3, #2
 8001646:	d141      	bne.n	80016cc <rpi+0xe0>
 8001648:	f8df 80c0 	ldr.w	r8, [pc, #192]	; 800170c <rpi+0x120>
 800164c:	4d29      	ldr	r5, [pc, #164]	; (80016f4 <rpi+0x108>)
 800164e:	f8d8 1000 	ldr.w	r1, [r8]
 8001652:	f04f 0914 	mov.w	r9, #20
 8001656:	fb09 5101 	mla	r1, r9, r1, r5
 800165a:	2203      	movs	r2, #3
 800165c:	2400      	movs	r4, #0
 800165e:	a803      	add	r0, sp, #12
 8001660:	f891 a004 	ldrb.w	sl, [r1, #4]
 8001664:	7034      	strb	r4, [r6, #0]
 8001666:	f005 f9c9 	bl	80069fc <strncpy>
 800166a:	4b24      	ldr	r3, [pc, #144]	; (80016fc <rpi+0x110>)
 800166c:	4924      	ldr	r1, [pc, #144]	; (8001700 <rpi+0x114>)
 800166e:	a803      	add	r0, sp, #12
 8001670:	f1ba 0f43 	cmp.w	sl, #67	; 0x43
 8001674:	bf18      	it	ne
 8001676:	4619      	movne	r1, r3
 8001678:	9101      	str	r1, [sp, #4]
 800167a:	f005 f953 	bl	8006924 <atoi>
 800167e:	9901      	ldr	r1, [sp, #4]
 8001680:	4602      	mov	r2, r0
 8001682:	4820      	ldr	r0, [pc, #128]	; (8001704 <rpi+0x118>)
 8001684:	f005 f992 	bl	80069ac <siprintf>
 8001688:	491e      	ldr	r1, [pc, #120]	; (8001704 <rpi+0x118>)
 800168a:	4819      	ldr	r0, [pc, #100]	; (80016f0 <rpi+0x104>)
 800168c:	f64f 73ff 	movw	r3, #65535	; 0xffff
 8001690:	464a      	mov	r2, r9
 8001692:	f003 f887 	bl	80047a4 <HAL_UART_Transmit>
 8001696:	f1ba 0f43 	cmp.w	sl, #67	; 0x43
 800169a:	d117      	bne.n	80016cc <rpi+0xe0>
 800169c:	4b16      	ldr	r3, [pc, #88]	; (80016f8 <rpi+0x10c>)
 800169e:	f8c8 4000 	str.w	r4, [r8]
 80016a2:	f04f 32ff 	mov.w	r2, #4294967295
 80016a6:	601a      	str	r2, [r3, #0]
 80016a8:	2301      	movs	r3, #1
 80016aa:	703b      	strb	r3, [r7, #0]
 80016ac:	4628      	mov	r0, r5
 80016ae:	2214      	movs	r2, #20
 80016b0:	2100      	movs	r1, #0
 80016b2:	3401      	adds	r4, #1
 80016b4:	f005 f972 	bl	800699c <memset>
 80016b8:	f5b4 7f7a 	cmp.w	r4, #1000	; 0x3e8
 80016bc:	f105 0514 	add.w	r5, r5, #20
 80016c0:	d1f4      	bne.n	80016ac <rpi+0xc0>
 80016c2:	4b11      	ldr	r3, [pc, #68]	; (8001708 <rpi+0x11c>)
 80016c4:	6818      	ldr	r0, [r3, #0]
 80016c6:	f003 fb18 	bl	8004cfa <osDelay>
 80016ca:	e793      	b.n	80015f4 <rpi+0x8>
 80016cc:	783b      	ldrb	r3, [r7, #0]
 80016ce:	2b00      	cmp	r3, #0
 80016d0:	d1f7      	bne.n	80016c2 <rpi+0xd6>
 80016d2:	4a0e      	ldr	r2, [pc, #56]	; (800170c <rpi+0x120>)
 80016d4:	4908      	ldr	r1, [pc, #32]	; (80016f8 <rpi+0x10c>)
 80016d6:	6813      	ldr	r3, [r2, #0]
 80016d8:	6809      	ldr	r1, [r1, #0]
 80016da:	428b      	cmp	r3, r1
 80016dc:	bfdf      	itttt	le
 80016de:	2101      	movle	r1, #1
 80016e0:	185b      	addle	r3, r3, r1
 80016e2:	7039      	strble	r1, [r7, #0]
 80016e4:	6013      	strle	r3, [r2, #0]
 80016e6:	e7ec      	b.n	80016c2 <rpi+0xd6>
 80016e8:	20004da4 	.word	0x20004da4
 80016ec:	20004c8c 	.word	0x20004c8c
 80016f0:	20004a8c 	.word	0x20004a8c
 80016f4:	20004dbc 	.word	0x20004dbc
 80016f8:	200049a8 	.word	0x200049a8
 80016fc:	080073a3 	.word	0x080073a3
 8001700:	0800739c 	.word	0x0800739c
 8001704:	20004cf4 	.word	0x20004cf4
 8001708:	20004ad0 	.word	0x20004ad0
 800170c:	20004c70 	.word	0x20004c70

08001710 <changeProfile>:
 8001710:	4b4f      	ldr	r3, [pc, #316]	; (8001850 <changeProfile+0x140>)
 8001712:	781b      	ldrb	r3, [r3, #0]
 8001714:	2b01      	cmp	r3, #1
 8001716:	d03c      	beq.n	8001792 <changeProfile+0x82>
 8001718:	2b02      	cmp	r3, #2
 800171a:	d065      	beq.n	80017e8 <changeProfile+0xd8>
 800171c:	2b00      	cmp	r3, #0
 800171e:	d137      	bne.n	8001790 <changeProfile+0x80>
 8001720:	4b4c      	ldr	r3, [pc, #304]	; (8001854 <changeProfile+0x144>)
 8001722:	4a4d      	ldr	r2, [pc, #308]	; (8001858 <changeProfile+0x148>)
 8001724:	601a      	str	r2, [r3, #0]
 8001726:	4b4d      	ldr	r3, [pc, #308]	; (800185c <changeProfile+0x14c>)
 8001728:	4a4d      	ldr	r2, [pc, #308]	; (8001860 <changeProfile+0x150>)
 800172a:	601a      	str	r2, [r3, #0]
 800172c:	4a4d      	ldr	r2, [pc, #308]	; (8001864 <changeProfile+0x154>)
 800172e:	494e      	ldr	r1, [pc, #312]	; (8001868 <changeProfile+0x158>)
 8001730:	f04f 4380 	mov.w	r3, #1073741824	; 0x40000000
 8001734:	6013      	str	r3, [r2, #0]
 8001736:	f04f 527f 	mov.w	r2, #1069547520	; 0x3fc00000
 800173a:	600a      	str	r2, [r1, #0]
 800173c:	494b      	ldr	r1, [pc, #300]	; (800186c <changeProfile+0x15c>)
 800173e:	600a      	str	r2, [r1, #0]
 8001740:	4a4b      	ldr	r2, [pc, #300]	; (8001870 <changeProfile+0x160>)
 8001742:	6013      	str	r3, [r2, #0]
 8001744:	4b4b      	ldr	r3, [pc, #300]	; (8001874 <changeProfile+0x164>)
 8001746:	f04f 4282 	mov.w	r2, #1090519040	; 0x41000000
 800174a:	601a      	str	r2, [r3, #0]
 800174c:	4b4a      	ldr	r3, [pc, #296]	; (8001878 <changeProfile+0x168>)
 800174e:	4a4b      	ldr	r2, [pc, #300]	; (800187c <changeProfile+0x16c>)
 8001750:	601a      	str	r2, [r3, #0]
 8001752:	4b4b      	ldr	r3, [pc, #300]	; (8001880 <changeProfile+0x170>)
 8001754:	4a4b      	ldr	r2, [pc, #300]	; (8001884 <changeProfile+0x174>)
 8001756:	601a      	str	r2, [r3, #0]
 8001758:	4b4b      	ldr	r3, [pc, #300]	; (8001888 <changeProfile+0x178>)
 800175a:	f04f 527c 	mov.w	r2, #1056964608	; 0x3f000000
 800175e:	601a      	str	r2, [r3, #0]
 8001760:	4b4a      	ldr	r3, [pc, #296]	; (800188c <changeProfile+0x17c>)
 8001762:	4a4b      	ldr	r2, [pc, #300]	; (8001890 <changeProfile+0x180>)
 8001764:	601a      	str	r2, [r3, #0]
 8001766:	4b4b      	ldr	r3, [pc, #300]	; (8001894 <changeProfile+0x184>)
 8001768:	4a4b      	ldr	r2, [pc, #300]	; (8001898 <changeProfile+0x188>)
 800176a:	601a      	str	r2, [r3, #0]
 800176c:	4b4b      	ldr	r3, [pc, #300]	; (800189c <changeProfile+0x18c>)
 800176e:	4a4c      	ldr	r2, [pc, #304]	; (80018a0 <changeProfile+0x190>)
 8001770:	601a      	str	r2, [r3, #0]
 8001772:	4b4c      	ldr	r3, [pc, #304]	; (80018a4 <changeProfile+0x194>)
 8001774:	4a4c      	ldr	r2, [pc, #304]	; (80018a8 <changeProfile+0x198>)
 8001776:	601a      	str	r2, [r3, #0]
 8001778:	4b4c      	ldr	r3, [pc, #304]	; (80018ac <changeProfile+0x19c>)
 800177a:	4a4d      	ldr	r2, [pc, #308]	; (80018b0 <changeProfile+0x1a0>)
 800177c:	601a      	str	r2, [r3, #0]
 800177e:	4b4d      	ldr	r3, [pc, #308]	; (80018b4 <changeProfile+0x1a4>)
 8001780:	4a4d      	ldr	r2, [pc, #308]	; (80018b8 <changeProfile+0x1a8>)
 8001782:	601a      	str	r2, [r3, #0]
 8001784:	4b4d      	ldr	r3, [pc, #308]	; (80018bc <changeProfile+0x1ac>)
 8001786:	4a4e      	ldr	r2, [pc, #312]	; (80018c0 <changeProfile+0x1b0>)
 8001788:	601a      	str	r2, [r3, #0]
 800178a:	4b4e      	ldr	r3, [pc, #312]	; (80018c4 <changeProfile+0x1b4>)
 800178c:	4a4e      	ldr	r2, [pc, #312]	; (80018c8 <changeProfile+0x1b8>)
 800178e:	601a      	str	r2, [r3, #0]
 8001790:	4770      	bx	lr
 8001792:	4b30      	ldr	r3, [pc, #192]	; (8001854 <changeProfile+0x144>)
 8001794:	4a4d      	ldr	r2, [pc, #308]	; (80018cc <changeProfile+0x1bc>)
 8001796:	601a      	str	r2, [r3, #0]
 8001798:	4b30      	ldr	r3, [pc, #192]	; (800185c <changeProfile+0x14c>)
 800179a:	4a4d      	ldr	r2, [pc, #308]	; (80018d0 <changeProfile+0x1c0>)
 800179c:	601a      	str	r2, [r3, #0]
 800179e:	4a31      	ldr	r2, [pc, #196]	; (8001864 <changeProfile+0x154>)
 80017a0:	4938      	ldr	r1, [pc, #224]	; (8001884 <changeProfile+0x174>)
 80017a2:	2300      	movs	r3, #0
 80017a4:	6013      	str	r3, [r2, #0]
 80017a6:	4a30      	ldr	r2, [pc, #192]	; (8001868 <changeProfile+0x158>)
 80017a8:	6013      	str	r3, [r2, #0]
 80017aa:	4a30      	ldr	r2, [pc, #192]	; (800186c <changeProfile+0x15c>)
 80017ac:	6013      	str	r3, [r2, #0]
 80017ae:	4a30      	ldr	r2, [pc, #192]	; (8001870 <changeProfile+0x160>)
 80017b0:	6013      	str	r3, [r2, #0]
 80017b2:	4a30      	ldr	r2, [pc, #192]	; (8001874 <changeProfile+0x164>)
 80017b4:	6013      	str	r3, [r2, #0]
 80017b6:	4a30      	ldr	r2, [pc, #192]	; (8001878 <changeProfile+0x168>)
 80017b8:	6013      	str	r3, [r2, #0]
 80017ba:	4a31      	ldr	r2, [pc, #196]	; (8001880 <changeProfile+0x170>)
 80017bc:	6011      	str	r1, [r2, #0]
 80017be:	4a32      	ldr	r2, [pc, #200]	; (8001888 <changeProfile+0x178>)
 80017c0:	4932      	ldr	r1, [pc, #200]	; (800188c <changeProfile+0x17c>)
 80017c2:	6013      	str	r3, [r2, #0]
 80017c4:	f04f 527e 	mov.w	r2, #1065353216	; 0x3f800000
 80017c8:	600a      	str	r2, [r1, #0]
 80017ca:	4932      	ldr	r1, [pc, #200]	; (8001894 <changeProfile+0x184>)
 80017cc:	600b      	str	r3, [r1, #0]
 80017ce:	4933      	ldr	r1, [pc, #204]	; (800189c <changeProfile+0x18c>)
 80017d0:	600a      	str	r2, [r1, #0]
 80017d2:	4934      	ldr	r1, [pc, #208]	; (80018a4 <changeProfile+0x194>)
 80017d4:	600b      	str	r3, [r1, #0]
 80017d6:	4935      	ldr	r1, [pc, #212]	; (80018ac <changeProfile+0x19c>)
 80017d8:	600a      	str	r2, [r1, #0]
 80017da:	4936      	ldr	r1, [pc, #216]	; (80018b4 <changeProfile+0x1a4>)
 80017dc:	600b      	str	r3, [r1, #0]
 80017de:	4937      	ldr	r1, [pc, #220]	; (80018bc <changeProfile+0x1ac>)
 80017e0:	600a      	str	r2, [r1, #0]
 80017e2:	4a38      	ldr	r2, [pc, #224]	; (80018c4 <changeProfile+0x1b4>)
 80017e4:	6013      	str	r3, [r2, #0]
 80017e6:	4770      	bx	lr
 80017e8:	4b1a      	ldr	r3, [pc, #104]	; (8001854 <changeProfile+0x144>)
 80017ea:	4a3a      	ldr	r2, [pc, #232]	; (80018d4 <changeProfile+0x1c4>)
 80017ec:	601a      	str	r2, [r3, #0]
 80017ee:	4b1b      	ldr	r3, [pc, #108]	; (800185c <changeProfile+0x14c>)
 80017f0:	4a39      	ldr	r2, [pc, #228]	; (80018d8 <changeProfile+0x1c8>)
 80017f2:	601a      	str	r2, [r3, #0]
 80017f4:	4a1b      	ldr	r2, [pc, #108]	; (8001864 <changeProfile+0x154>)
 80017f6:	2300      	movs	r3, #0
 80017f8:	6013      	str	r3, [r2, #0]
 80017fa:	4a1b      	ldr	r2, [pc, #108]	; (8001868 <changeProfile+0x158>)
 80017fc:	6013      	str	r3, [r2, #0]
 80017fe:	4a1b      	ldr	r2, [pc, #108]	; (800186c <changeProfile+0x15c>)
 8001800:	6013      	str	r3, [r2, #0]
 8001802:	4a1b      	ldr	r2, [pc, #108]	; (8001870 <changeProfile+0x160>)
 8001804:	6013      	str	r3, [r2, #0]
 8001806:	4a1b      	ldr	r2, [pc, #108]	; (8001874 <changeProfile+0x164>)
 8001808:	6013      	str	r3, [r2, #0]
 800180a:	4a1b      	ldr	r2, [pc, #108]	; (8001878 <changeProfile+0x168>)
 800180c:	6013      	str	r3, [r2, #0]
 800180e:	4b1c      	ldr	r3, [pc, #112]	; (8001880 <changeProfile+0x170>)
 8001810:	f04f 4281 	mov.w	r2, #1082130432	; 0x40800000
 8001814:	601a      	str	r2, [r3, #0]
 8001816:	4b1c      	ldr	r3, [pc, #112]	; (8001888 <changeProfile+0x178>)
 8001818:	f04f 527e 	mov.w	r2, #1065353216	; 0x3f800000
 800181c:	601a      	str	r2, [r3, #0]
 800181e:	4b1b      	ldr	r3, [pc, #108]	; (800188c <changeProfile+0x17c>)
 8001820:	4a2e      	ldr	r2, [pc, #184]	; (80018dc <changeProfile+0x1cc>)
 8001822:	601a      	str	r2, [r3, #0]
 8001824:	4b1b      	ldr	r3, [pc, #108]	; (8001894 <changeProfile+0x184>)
 8001826:	4a2e      	ldr	r2, [pc, #184]	; (80018e0 <changeProfile+0x1d0>)
 8001828:	601a      	str	r2, [r3, #0]
 800182a:	4b1c      	ldr	r3, [pc, #112]	; (800189c <changeProfile+0x18c>)
 800182c:	4a2d      	ldr	r2, [pc, #180]	; (80018e4 <changeProfile+0x1d4>)
 800182e:	601a      	str	r2, [r3, #0]
 8001830:	4b1c      	ldr	r3, [pc, #112]	; (80018a4 <changeProfile+0x194>)
 8001832:	4a2d      	ldr	r2, [pc, #180]	; (80018e8 <changeProfile+0x1d8>)
 8001834:	601a      	str	r2, [r3, #0]
 8001836:	4b1d      	ldr	r3, [pc, #116]	; (80018ac <changeProfile+0x19c>)
 8001838:	4a2c      	ldr	r2, [pc, #176]	; (80018ec <changeProfile+0x1dc>)
 800183a:	601a      	str	r2, [r3, #0]
 800183c:	4b1d      	ldr	r3, [pc, #116]	; (80018b4 <changeProfile+0x1a4>)
 800183e:	4a2c      	ldr	r2, [pc, #176]	; (80018f0 <changeProfile+0x1e0>)
 8001840:	601a      	str	r2, [r3, #0]
 8001842:	4b1e      	ldr	r3, [pc, #120]	; (80018bc <changeProfile+0x1ac>)
 8001844:	4a2b      	ldr	r2, [pc, #172]	; (80018f4 <changeProfile+0x1e4>)
 8001846:	601a      	str	r2, [r3, #0]
 8001848:	4b1e      	ldr	r3, [pc, #120]	; (80018c4 <changeProfile+0x1b4>)
 800184a:	4a2b      	ldr	r2, [pc, #172]	; (80018f8 <changeProfile+0x1e8>)
 800184c:	e79f      	b.n	800178e <changeProfile+0x7e>
 800184e:	bf00      	nop
 8001850:	20004c7e 	.word	0x20004c7e
 8001854:	20004db4 	.word	0x20004db4
 8001858:	3e553586 	.word	0x3e553586
 800185c:	20004c4c 	.word	0x20004c4c
 8001860:	3f0e6d64 	.word	0x3f0e6d64
 8001864:	200049ac 	.word	0x200049ac
 8001868:	20004bf4 	.word	0x20004bf4
 800186c:	20004b24 	.word	0x20004b24
 8001870:	20004da8 	.word	0x20004da8
 8001874:	200049bc 	.word	0x200049bc
 8001878:	20004ba8 	.word	0x20004ba8
 800187c:	41080000 	.word	0x41080000
 8001880:	20004c5c 	.word	0x20004c5c
 8001884:	40a00000 	.word	0x40a00000
 8001888:	20004b44 	.word	0x20004b44
 800188c:	20004a84 	.word	0x20004a84
 8001890:	3ecffc81 	.word	0x3ecffc81
 8001894:	20004d14 	.word	0x20004d14
 8001898:	bf84e642 	.word	0xbf84e642
 800189c:	20004d0c 	.word	0x20004d0c
 80018a0:	3ebf9c9e 	.word	0x3ebf9c9e
 80018a4:	20004d08 	.word	0x20004d08
 80018a8:	bf4d740e 	.word	0xbf4d740e
 80018ac:	20009be0 	.word	0x20009be0
 80018b0:	3ec7bdb9 	.word	0x3ec7bdb9
 80018b4:	20009be4 	.word	0x20009be4
 80018b8:	3fb3dd37 	.word	0x3fb3dd37
 80018bc:	20004a80 	.word	0x20004a80
 80018c0:	3ebab712 	.word	0x3ebab712
 80018c4:	200049c8 	.word	0x200049c8
 80018c8:	3f8186a1 	.word	0x3f8186a1
 80018cc:	3e569ee1 	.word	0x3e569ee1
 80018d0:	3f8dcbcf 	.word	0x3f8dcbcf
 80018d4:	3e558020 	.word	0x3e558020
 80018d8:	3f8b3bec 	.word	0x3f8b3bec
 80018dc:	3ef49ae5 	.word	0x3ef49ae5
 80018e0:	4001c6f2 	.word	0x4001c6f2
 80018e4:	3ed9ac3b 	.word	0x3ed9ac3b
 80018e8:	3fcc8f31 	.word	0x3fcc8f31
 80018ec:	3ee7ea2c 	.word	0x3ee7ea2c
 80018f0:	4069f172 	.word	0x4069f172
 80018f4:	3ec37f90 	.word	0x3ec37f90
 80018f8:	4003c7be 	.word	0x4003c7be

080018fc <HAL_GPIO_EXTI_Callback>:
 80018fc:	f5b0 7f80 	cmp.w	r0, #256	; 0x100
 8001900:	d10b      	bne.n	800191a <HAL_GPIO_EXTI_Callback+0x1e>
 8001902:	4906      	ldr	r1, [pc, #24]	; (800191c <HAL_GPIO_EXTI_Callback+0x20>)
 8001904:	780b      	ldrb	r3, [r1, #0]
 8001906:	2203      	movs	r2, #3
 8001908:	3301      	adds	r3, #1
 800190a:	fbb3 f2f2 	udiv	r2, r3, r2
 800190e:	eb02 0242 	add.w	r2, r2, r2, lsl #1
 8001912:	1a9b      	subs	r3, r3, r2
 8001914:	700b      	strb	r3, [r1, #0]
 8001916:	f7ff befb 	b.w	8001710 <changeProfile>
 800191a:	4770      	bx	lr
 800191c:	20004c7e 	.word	0x20004c7e

08001920 <main>:
 8001920:	e92d 47f0 	stmdb	sp!, {r4, r5, r6, r7, r8, r9, sl, lr}
 8001924:	b09c      	sub	sp, #112	; 0x70
 8001926:	f001 f897 	bl	8002a58 <HAL_Init>
 800192a:	f7ff fcd3 	bl	80012d4 <SystemClock_Config>
 800192e:	2214      	movs	r2, #20
 8001930:	2100      	movs	r1, #0
 8001932:	a813      	add	r0, sp, #76	; 0x4c
 8001934:	f005 f832 	bl	800699c <memset>
 8001938:	2400      	movs	r4, #0
 800193a:	4baf      	ldr	r3, [pc, #700]	; (8001bf8 <main+0x2d8>)
 800193c:	9401      	str	r4, [sp, #4]
 800193e:	6b1a      	ldr	r2, [r3, #48]	; 0x30
 8001940:	48ae      	ldr	r0, [pc, #696]	; (8001bfc <main+0x2dc>)
 8001942:	4eaf      	ldr	r6, [pc, #700]	; (8001c00 <main+0x2e0>)
 8001944:	f042 0210 	orr.w	r2, r2, #16
 8001948:	631a      	str	r2, [r3, #48]	; 0x30
 800194a:	6b1a      	ldr	r2, [r3, #48]	; 0x30
 800194c:	f002 0210 	and.w	r2, r2, #16
 8001950:	9201      	str	r2, [sp, #4]
 8001952:	9a01      	ldr	r2, [sp, #4]
 8001954:	9402      	str	r4, [sp, #8]
 8001956:	6b1a      	ldr	r2, [r3, #48]	; 0x30
 8001958:	f042 0204 	orr.w	r2, r2, #4
 800195c:	631a      	str	r2, [r3, #48]	; 0x30
 800195e:	6b1a      	ldr	r2, [r3, #48]	; 0x30
 8001960:	f002 0204 	and.w	r2, r2, #4
 8001964:	9202      	str	r2, [sp, #8]
 8001966:	9a02      	ldr	r2, [sp, #8]
 8001968:	9403      	str	r4, [sp, #12]
 800196a:	6b1a      	ldr	r2, [r3, #48]	; 0x30
 800196c:	f042 0201 	orr.w	r2, r2, #1
 8001970:	631a      	str	r2, [r3, #48]	; 0x30
 8001972:	6b1a      	ldr	r2, [r3, #48]	; 0x30
 8001974:	f002 0201 	and.w	r2, r2, #1
 8001978:	9203      	str	r2, [sp, #12]
 800197a:	9a03      	ldr	r2, [sp, #12]
 800197c:	9404      	str	r4, [sp, #16]
 800197e:	6b1a      	ldr	r2, [r3, #48]	; 0x30
 8001980:	f042 0208 	orr.w	r2, r2, #8
 8001984:	631a      	str	r2, [r3, #48]	; 0x30
 8001986:	6b1a      	ldr	r2, [r3, #48]	; 0x30
 8001988:	f002 0208 	and.w	r2, r2, #8
 800198c:	9204      	str	r2, [sp, #16]
 800198e:	9a04      	ldr	r2, [sp, #16]
 8001990:	9405      	str	r4, [sp, #20]
 8001992:	6b1a      	ldr	r2, [r3, #48]	; 0x30
 8001994:	f042 0202 	orr.w	r2, r2, #2
 8001998:	631a      	str	r2, [r3, #48]	; 0x30
 800199a:	6b1b      	ldr	r3, [r3, #48]	; 0x30
 800199c:	f003 0302 	and.w	r3, r3, #2
 80019a0:	9305      	str	r3, [sp, #20]
 80019a2:	4622      	mov	r2, r4
 80019a4:	f44f 61bc 	mov.w	r1, #1504	; 0x5e0
 80019a8:	9b05      	ldr	r3, [sp, #20]
 80019aa:	f001 fc3f 	bl	800322c <HAL_GPIO_WritePin>
 80019ae:	4895      	ldr	r0, [pc, #596]	; (8001c04 <main+0x2e4>)
 80019b0:	4622      	mov	r2, r4
 80019b2:	213c      	movs	r1, #60	; 0x3c
 80019b4:	f001 fc3a 	bl	800322c <HAL_GPIO_WritePin>
 80019b8:	4622      	mov	r2, r4
 80019ba:	4893      	ldr	r0, [pc, #588]	; (8001c08 <main+0x2e8>)
 80019bc:	2110      	movs	r1, #16
 80019be:	f001 fc35 	bl	800322c <HAL_GPIO_WritePin>
 80019c2:	2701      	movs	r7, #1
 80019c4:	f44f 63bc 	mov.w	r3, #1504	; 0x5e0
 80019c8:	488c      	ldr	r0, [pc, #560]	; (8001bfc <main+0x2dc>)
 80019ca:	a913      	add	r1, sp, #76	; 0x4c
 80019cc:	e9cd 3713 	strd	r3, r7, [sp, #76]	; 0x4c
 80019d0:	e9cd 4415 	strd	r4, r4, [sp, #84]	; 0x54
 80019d4:	f001 fb50 	bl	8003078 <HAL_GPIO_Init>
 80019d8:	233c      	movs	r3, #60	; 0x3c
 80019da:	e9cd 3713 	strd	r3, r7, [sp, #76]	; 0x4c
 80019de:	4889      	ldr	r0, [pc, #548]	; (8001c04 <main+0x2e4>)
 80019e0:	9415      	str	r4, [sp, #84]	; 0x54
 80019e2:	2302      	movs	r3, #2
 80019e4:	a913      	add	r1, sp, #76	; 0x4c
 80019e6:	9316      	str	r3, [sp, #88]	; 0x58
 80019e8:	f001 fb46 	bl	8003078 <HAL_GPIO_Init>
 80019ec:	f44f 1304 	mov.w	r3, #2162688	; 0x210000
 80019f0:	f44f 7080 	mov.w	r0, #256	; 0x100
 80019f4:	e9cd 0313 	strd	r0, r3, [sp, #76]	; 0x4c
 80019f8:	a913      	add	r1, sp, #76	; 0x4c
 80019fa:	4884      	ldr	r0, [pc, #528]	; (8001c0c <main+0x2ec>)
 80019fc:	9415      	str	r4, [sp, #84]	; 0x54
 80019fe:	2510      	movs	r5, #16
 8001a00:	f001 fb3a 	bl	8003078 <HAL_GPIO_Init>
 8001a04:	4880      	ldr	r0, [pc, #512]	; (8001c08 <main+0x2e8>)
 8001a06:	a913      	add	r1, sp, #76	; 0x4c
 8001a08:	e9cd 5713 	strd	r5, r7, [sp, #76]	; 0x4c
 8001a0c:	e9cd 4415 	strd	r4, r4, [sp, #84]	; 0x54
 8001a10:	f001 fb32 	bl	8003078 <HAL_GPIO_Init>
 8001a14:	4622      	mov	r2, r4
 8001a16:	2105      	movs	r1, #5
 8001a18:	2017      	movs	r0, #23
 8001a1a:	f001 fa81 	bl	8002f20 <HAL_NVIC_SetPriority>
 8001a1e:	2017      	movs	r0, #23
 8001a20:	f001 fab0 	bl	8002f84 <HAL_NVIC_EnableIRQ>
 8001a24:	221c      	movs	r2, #28
 8001a26:	4621      	mov	r1, r4
 8001a28:	a80c      	add	r0, sp, #48	; 0x30
 8001a2a:	e9cd 4408 	strd	r4, r4, [sp, #32]
 8001a2e:	f004 ffb5 	bl	800699c <memset>
 8001a32:	2220      	movs	r2, #32
 8001a34:	4621      	mov	r1, r4
 8001a36:	a813      	add	r0, sp, #76	; 0x4c
 8001a38:	f004 ffb0 	bl	800699c <memset>
 8001a3c:	f8df c1e0 	ldr.w	ip, [pc, #480]	; 8001c20 <main+0x300>
 8001a40:	60b4      	str	r4, [r6, #8]
 8001a42:	f44f 73a0 	mov.w	r3, #320	; 0x140
 8001a46:	e9c6 c300 	strd	ip, r3, [r6]
 8001a4a:	f44f 737a 	mov.w	r3, #1000	; 0x3e8
 8001a4e:	e9c6 3403 	strd	r3, r4, [r6, #12]
 8001a52:	4630      	mov	r0, r6
 8001a54:	2380      	movs	r3, #128	; 0x80
 8001a56:	6174      	str	r4, [r6, #20]
 8001a58:	61b3      	str	r3, [r6, #24]
 8001a5a:	f002 f921 	bl	8003ca0 <HAL_TIM_PWM_Init>
 8001a5e:	b108      	cbz	r0, 8001a64 <main+0x144>
 8001a60:	b672      	cpsid	i
 8001a62:	e7fe      	b.n	8001a62 <main+0x142>
 8001a64:	e9cd 0008 	strd	r0, r0, [sp, #32]
 8001a68:	a908      	add	r1, sp, #32
 8001a6a:	4630      	mov	r0, r6
 8001a6c:	f002 fd44 	bl	80044f8 <HAL_TIMEx_MasterConfigSynchronization>
 8001a70:	b108      	cbz	r0, 8001a76 <main+0x156>
 8001a72:	b672      	cpsid	i
 8001a74:	e7fe      	b.n	8001a74 <main+0x154>
 8001a76:	2360      	movs	r3, #96	; 0x60
 8001a78:	e9cd 300c 	strd	r3, r0, [sp, #48]	; 0x30
 8001a7c:	e9cd 0010 	strd	r0, r0, [sp, #64]	; 0x40
 8001a80:	900e      	str	r0, [sp, #56]	; 0x38
 8001a82:	9012      	str	r0, [sp, #72]	; 0x48
 8001a84:	220c      	movs	r2, #12
 8001a86:	a90c      	add	r1, sp, #48	; 0x30
 8001a88:	4630      	mov	r0, r6
 8001a8a:	f002 f9ed 	bl	8003e68 <HAL_TIM_PWM_ConfigChannel>
 8001a8e:	b108      	cbz	r0, 8001a94 <main+0x174>
 8001a90:	b672      	cpsid	i
 8001a92:	e7fe      	b.n	8001a92 <main+0x172>
 8001a94:	e9cd 0013 	strd	r0, r0, [sp, #76]	; 0x4c
 8001a98:	e9cd 0015 	strd	r0, r0, [sp, #84]	; 0x54
 8001a9c:	9017      	str	r0, [sp, #92]	; 0x5c
 8001a9e:	f44f 5300 	mov.w	r3, #8192	; 0x2000
 8001aa2:	901a      	str	r0, [sp, #104]	; 0x68
 8001aa4:	a913      	add	r1, sp, #76	; 0x4c
 8001aa6:	4630      	mov	r0, r6
 8001aa8:	9318      	str	r3, [sp, #96]	; 0x60
 8001aaa:	f002 fd63 	bl	8004574 <HAL_TIMEx_ConfigBreakDeadTime>
 8001aae:	4604      	mov	r4, r0
 8001ab0:	b108      	cbz	r0, 8001ab6 <main+0x196>
 8001ab2:	b672      	cpsid	i
 8001ab4:	e7fe      	b.n	8001ab4 <main+0x194>
 8001ab6:	f8df 916c 	ldr.w	r9, [pc, #364]	; 8001c24 <main+0x304>
 8001aba:	4630      	mov	r0, r6
 8001abc:	f000 fec4 	bl	8002848 <HAL_TIM_MspPostInit>
 8001ac0:	f04f 0a0a 	mov.w	sl, #10
 8001ac4:	f04f 4380 	mov.w	r3, #1073741824	; 0x40000000
 8001ac8:	f64f 78ff 	movw	r8, #65535	; 0xffff
 8001acc:	2603      	movs	r6, #3
 8001ace:	a913      	add	r1, sp, #76	; 0x4c
 8001ad0:	4648      	mov	r0, r9
 8001ad2:	e9cd 440c 	strd	r4, r4, [sp, #48]	; 0x30
 8001ad6:	e9c9 3400 	strd	r3, r4, [r9]
 8001ada:	e9c9 8403 	strd	r8, r4, [r9, #12]
 8001ade:	e9cd 6413 	strd	r6, r4, [sp, #76]	; 0x4c
 8001ae2:	e9cd 7415 	strd	r7, r4, [sp, #84]	; 0x54
 8001ae6:	e9cd a417 	strd	sl, r4, [sp, #92]	; 0x5c
 8001aea:	e9cd 7419 	strd	r7, r4, [sp, #100]	; 0x64
 8001aee:	f8c9 4008 	str.w	r4, [r9, #8]
 8001af2:	f8c9 4018 	str.w	r4, [r9, #24]
 8001af6:	f8cd a06c 	str.w	sl, [sp, #108]	; 0x6c
 8001afa:	f002 f929 	bl	8003d50 <HAL_TIM_Encoder_Init>
 8001afe:	b108      	cbz	r0, 8001b04 <main+0x1e4>
 8001b00:	b672      	cpsid	i
 8001b02:	e7fe      	b.n	8001b02 <main+0x1e2>
 8001b04:	e9cd 000c 	strd	r0, r0, [sp, #48]	; 0x30
 8001b08:	a90c      	add	r1, sp, #48	; 0x30
 8001b0a:	4648      	mov	r0, r9
 8001b0c:	f002 fcf4 	bl	80044f8 <HAL_TIMEx_MasterConfigSynchronization>
 8001b10:	b108      	cbz	r0, 8001b16 <main+0x1f6>
 8001b12:	b672      	cpsid	i
 8001b14:	e7fe      	b.n	8001b14 <main+0x1f4>
 8001b16:	4c3e      	ldr	r4, [pc, #248]	; (8001c10 <main+0x2f0>)
 8001b18:	4b3e      	ldr	r3, [pc, #248]	; (8001c14 <main+0x2f4>)
 8001b1a:	6120      	str	r0, [r4, #16]
 8001b1c:	e9cd 000c 	strd	r0, r0, [sp, #48]	; 0x30
 8001b20:	e9c4 3000 	strd	r3, r0, [r4]
 8001b24:	e9c4 0802 	strd	r0, r8, [r4, #8]
 8001b28:	e9cd 6013 	strd	r6, r0, [sp, #76]	; 0x4c
 8001b2c:	e9cd 7015 	strd	r7, r0, [sp, #84]	; 0x54
 8001b30:	e9cd a017 	strd	sl, r0, [sp, #92]	; 0x5c
 8001b34:	e9cd 7019 	strd	r7, r0, [sp, #100]	; 0x64
 8001b38:	61a0      	str	r0, [r4, #24]
 8001b3a:	a913      	add	r1, sp, #76	; 0x4c
 8001b3c:	4620      	mov	r0, r4
 8001b3e:	f8cd a06c 	str.w	sl, [sp, #108]	; 0x6c
 8001b42:	f002 f905 	bl	8003d50 <HAL_TIM_Encoder_Init>
 8001b46:	b108      	cbz	r0, 8001b4c <main+0x22c>
 8001b48:	b672      	cpsid	i
 8001b4a:	e7fe      	b.n	8001b4a <main+0x22a>
 8001b4c:	e9cd 000c 	strd	r0, r0, [sp, #48]	; 0x30
 8001b50:	a90c      	add	r1, sp, #48	; 0x30
 8001b52:	4620      	mov	r0, r4
 8001b54:	f002 fcd0 	bl	80044f8 <HAL_TIMEx_MasterConfigSynchronization>
 8001b58:	4604      	mov	r4, r0
 8001b5a:	b108      	cbz	r0, 8001b60 <main+0x240>
 8001b5c:	b672      	cpsid	i
 8001b5e:	e7fe      	b.n	8001b5e <main+0x23e>
 8001b60:	462a      	mov	r2, r5
 8001b62:	4601      	mov	r1, r0
 8001b64:	a808      	add	r0, sp, #32
 8001b66:	f004 ff19 	bl	800699c <memset>
 8001b6a:	221c      	movs	r2, #28
 8001b6c:	4621      	mov	r1, r4
 8001b6e:	a80c      	add	r0, sp, #48	; 0x30
 8001b70:	e9cd 4406 	strd	r4, r4, [sp, #24]
 8001b74:	f004 ff12 	bl	800699c <memset>
 8001b78:	2220      	movs	r2, #32
 8001b7a:	4621      	mov	r1, r4
 8001b7c:	a813      	add	r0, sp, #76	; 0x4c
 8001b7e:	f004 ff0d 	bl	800699c <memset>
 8001b82:	4d25      	ldr	r5, [pc, #148]	; (8001c18 <main+0x2f8>)
 8001b84:	4b25      	ldr	r3, [pc, #148]	; (8001c1c <main+0x2fc>)
 8001b86:	60ac      	str	r4, [r5, #8]
 8001b88:	e9c5 3400 	strd	r3, r4, [r5]
 8001b8c:	4628      	mov	r0, r5
 8001b8e:	f244 139f 	movw	r3, #16799	; 0x419f
 8001b92:	e9c5 3403 	strd	r3, r4, [r5, #12]
 8001b96:	e9c5 4405 	strd	r4, r4, [r5, #20]
 8001b9a:	f002 f855 	bl	8003c48 <HAL_TIM_Base_Init>
 8001b9e:	b108      	cbz	r0, 8001ba4 <main+0x284>
 8001ba0:	b672      	cpsid	i
 8001ba2:	e7fe      	b.n	8001ba2 <main+0x282>
 8001ba4:	f44f 5380 	mov.w	r3, #4096	; 0x1000
 8001ba8:	a908      	add	r1, sp, #32
 8001baa:	4628      	mov	r0, r5
 8001bac:	9308      	str	r3, [sp, #32]
 8001bae:	f002 fa90 	bl	80040d2 <HAL_TIM_ConfigClockSource>
 8001bb2:	b108      	cbz	r0, 8001bb8 <main+0x298>
 8001bb4:	b672      	cpsid	i
 8001bb6:	e7fe      	b.n	8001bb6 <main+0x296>
 8001bb8:	4817      	ldr	r0, [pc, #92]	; (8001c18 <main+0x2f8>)
 8001bba:	f002 f871 	bl	8003ca0 <HAL_TIM_PWM_Init>
 8001bbe:	b108      	cbz	r0, 8001bc4 <main+0x2a4>
 8001bc0:	b672      	cpsid	i
 8001bc2:	e7fe      	b.n	8001bc2 <main+0x2a2>
 8001bc4:	e9cd 0006 	strd	r0, r0, [sp, #24]
 8001bc8:	a906      	add	r1, sp, #24
 8001bca:	4813      	ldr	r0, [pc, #76]	; (8001c18 <main+0x2f8>)
 8001bcc:	f002 fc94 	bl	80044f8 <HAL_TIMEx_MasterConfigSynchronization>
 8001bd0:	4602      	mov	r2, r0
 8001bd2:	b108      	cbz	r0, 8001bd8 <main+0x2b8>
 8001bd4:	b672      	cpsid	i
 8001bd6:	e7fe      	b.n	8001bd6 <main+0x2b6>
 8001bd8:	2360      	movs	r3, #96	; 0x60
 8001bda:	e9cd 300c 	strd	r3, r0, [sp, #48]	; 0x30
 8001bde:	e9cd 000e 	strd	r0, r0, [sp, #56]	; 0x38
 8001be2:	e9cd 0010 	strd	r0, r0, [sp, #64]	; 0x40
 8001be6:	9012      	str	r0, [sp, #72]	; 0x48
 8001be8:	a90c      	add	r1, sp, #48	; 0x30
 8001bea:	480b      	ldr	r0, [pc, #44]	; (8001c18 <main+0x2f8>)
 8001bec:	f002 f93c 	bl	8003e68 <HAL_TIM_PWM_ConfigChannel>
 8001bf0:	b1d0      	cbz	r0, 8001c28 <main+0x308>
 8001bf2:	b672      	cpsid	i
 8001bf4:	e7fe      	b.n	8001bf4 <main+0x2d4>
 8001bf6:	bf00      	nop
 8001bf8:	40023800 	.word	0x40023800
 8001bfc:	40021000 	.word	0x40021000
 8001c00:	20004ca0 	.word	0x20004ca0
 8001c04:	40020000 	.word	0x40020000
 8001c08:	40020400 	.word	0x40020400
 8001c0c:	40020c00 	.word	0x40020c00
 8001c10:	20004bac 	.word	0x20004bac
 8001c14:	40000400 	.word	0x40000400
 8001c18:	200049e8 	.word	0x200049e8
 8001c1c:	40010400 	.word	0x40010400
 8001c20:	40010000 	.word	0x40010000
 8001c24:	20004d58 	.word	0x20004d58
 8001c28:	486a      	ldr	r0, [pc, #424]	; (8001dd4 <main+0x4b4>)
 8001c2a:	2204      	movs	r2, #4
 8001c2c:	a90c      	add	r1, sp, #48	; 0x30
 8001c2e:	f002 f91b 	bl	8003e68 <HAL_TIM_PWM_ConfigChannel>
 8001c32:	b108      	cbz	r0, 8001c38 <main+0x318>
 8001c34:	b672      	cpsid	i
 8001c36:	e7fe      	b.n	8001c36 <main+0x316>
 8001c38:	f44f 5300 	mov.w	r3, #8192	; 0x2000
 8001c3c:	e9cd 0013 	strd	r0, r0, [sp, #76]	; 0x4c
 8001c40:	e9cd 0015 	strd	r0, r0, [sp, #84]	; 0x54
 8001c44:	9017      	str	r0, [sp, #92]	; 0x5c
 8001c46:	901a      	str	r0, [sp, #104]	; 0x68
 8001c48:	a913      	add	r1, sp, #76	; 0x4c
 8001c4a:	4862      	ldr	r0, [pc, #392]	; (8001dd4 <main+0x4b4>)
 8001c4c:	9318      	str	r3, [sp, #96]	; 0x60
 8001c4e:	f002 fc91 	bl	8004574 <HAL_TIMEx_ConfigBreakDeadTime>
 8001c52:	4603      	mov	r3, r0
 8001c54:	b108      	cbz	r0, 8001c5a <main+0x33a>
 8001c56:	b672      	cpsid	i
 8001c58:	e7fe      	b.n	8001c58 <main+0x338>
 8001c5a:	485f      	ldr	r0, [pc, #380]	; (8001dd8 <main+0x4b8>)
 8001c5c:	495f      	ldr	r1, [pc, #380]	; (8001ddc <main+0x4bc>)
 8001c5e:	6103      	str	r3, [r0, #16]
 8001c60:	f44f 32e1 	mov.w	r2, #115200	; 0x1c200
 8001c64:	e9c0 1200 	strd	r1, r2, [r0]
 8001c68:	220c      	movs	r2, #12
 8001c6a:	e9c0 3302 	strd	r3, r3, [r0, #8]
 8001c6e:	e9c0 2305 	strd	r2, r3, [r0, #20]
 8001c72:	61c3      	str	r3, [r0, #28]
 8001c74:	f002 fd68 	bl	8004748 <HAL_UART_Init>
 8001c78:	4605      	mov	r5, r0
 8001c7a:	b108      	cbz	r0, 8001c80 <main+0x360>
 8001c7c:	b672      	cpsid	i
 8001c7e:	e7fe      	b.n	8001c7e <main+0x35e>
 8001c80:	4c57      	ldr	r4, [pc, #348]	; (8001de0 <main+0x4c0>)
 8001c82:	4f58      	ldr	r7, [pc, #352]	; (8001de4 <main+0x4c4>)
 8001c84:	4601      	mov	r1, r0
 8001c86:	2210      	movs	r2, #16
 8001c88:	a813      	add	r0, sp, #76	; 0x4c
 8001c8a:	f004 fe87 	bl	800699c <memset>
 8001c8e:	4b56      	ldr	r3, [pc, #344]	; (8001de8 <main+0x4c8>)
 8001c90:	60a5      	str	r5, [r4, #8]
 8001c92:	2601      	movs	r6, #1
 8001c94:	4620      	mov	r0, r4
 8001c96:	e9c4 3500 	strd	r3, r5, [r4]
 8001c9a:	6125      	str	r5, [r4, #16]
 8001c9c:	7625      	strb	r5, [r4, #24]
 8001c9e:	f884 5020 	strb.w	r5, [r4, #32]
 8001ca2:	62e5      	str	r5, [r4, #44]	; 0x2c
 8001ca4:	62a7      	str	r7, [r4, #40]	; 0x28
 8001ca6:	60e5      	str	r5, [r4, #12]
 8001ca8:	61e6      	str	r6, [r4, #28]
 8001caa:	f884 5030 	strb.w	r5, [r4, #48]	; 0x30
 8001cae:	6166      	str	r6, [r4, #20]
 8001cb0:	f000 ff12 	bl	8002ad8 <HAL_ADC_Init>
 8001cb4:	b108      	cbz	r0, 8001cba <main+0x39a>
 8001cb6:	b672      	cpsid	i
 8001cb8:	e7fe      	b.n	8001cb8 <main+0x398>
 8001cba:	230a      	movs	r3, #10
 8001cbc:	9015      	str	r0, [sp, #84]	; 0x54
 8001cbe:	a913      	add	r1, sp, #76	; 0x4c
 8001cc0:	4620      	mov	r0, r4
 8001cc2:	e9cd 3613 	strd	r3, r6, [sp, #76]	; 0x4c
 8001cc6:	f001 f887 	bl	8002dd8 <HAL_ADC_ConfigChannel>
 8001cca:	4605      	mov	r5, r0
 8001ccc:	b108      	cbz	r0, 8001cd2 <main+0x3b2>
 8001cce:	b672      	cpsid	i
 8001cd0:	e7fe      	b.n	8001cd0 <main+0x3b0>
 8001cd2:	4c46      	ldr	r4, [pc, #280]	; (8001dec <main+0x4cc>)
 8001cd4:	4601      	mov	r1, r0
 8001cd6:	2210      	movs	r2, #16
 8001cd8:	a813      	add	r0, sp, #76	; 0x4c
 8001cda:	f004 fe5f 	bl	800699c <memset>
 8001cde:	4b44      	ldr	r3, [pc, #272]	; (8001df0 <main+0x4d0>)
 8001ce0:	60a5      	str	r5, [r4, #8]
 8001ce2:	4620      	mov	r0, r4
 8001ce4:	e9c4 3500 	strd	r3, r5, [r4]
 8001ce8:	e9c4 750a 	strd	r7, r5, [r4, #40]	; 0x28
 8001cec:	6125      	str	r5, [r4, #16]
 8001cee:	7625      	strb	r5, [r4, #24]
 8001cf0:	f884 5020 	strb.w	r5, [r4, #32]
 8001cf4:	60e5      	str	r5, [r4, #12]
 8001cf6:	61e6      	str	r6, [r4, #28]
 8001cf8:	f884 5030 	strb.w	r5, [r4, #48]	; 0x30
 8001cfc:	6166      	str	r6, [r4, #20]
 8001cfe:	f000 feeb 	bl	8002ad8 <HAL_ADC_Init>
 8001d02:	b108      	cbz	r0, 8001d08 <main+0x3e8>
 8001d04:	b672      	cpsid	i
 8001d06:	e7fe      	b.n	8001d06 <main+0x3e6>
 8001d08:	230e      	movs	r3, #14
 8001d0a:	9015      	str	r0, [sp, #84]	; 0x54
 8001d0c:	a913      	add	r1, sp, #76	; 0x4c
 8001d0e:	4620      	mov	r0, r4
 8001d10:	e9cd 3613 	strd	r3, r6, [sp, #76]	; 0x4c
 8001d14:	f001 f860 	bl	8002dd8 <HAL_ADC_ConfigChannel>
 8001d18:	b108      	cbz	r0, 8001d1e <main+0x3fe>
 8001d1a:	b672      	cpsid	i
 8001d1c:	e7fe      	b.n	8001d1c <main+0x3fc>
 8001d1e:	4c35      	ldr	r4, [pc, #212]	; (8001df4 <main+0x4d4>)
 8001d20:	2210      	movs	r2, #16
 8001d22:	2100      	movs	r1, #0
 8001d24:	a813      	add	r0, sp, #76	; 0x4c
 8001d26:	f004 fe39 	bl	800699c <memset>
 8001d2a:	4a33      	ldr	r2, [pc, #204]	; (8001df8 <main+0x4d8>)
 8001d2c:	2300      	movs	r3, #0
 8001d2e:	260f      	movs	r6, #15
 8001d30:	f04f 37ff 	mov.w	r7, #4294967295
 8001d34:	4620      	mov	r0, r4
 8001d36:	e9cd 330c 	strd	r3, r3, [sp, #48]	; 0x30
 8001d3a:	e9c4 2600 	strd	r2, r6, [r4]
 8001d3e:	e9c4 7303 	strd	r7, r3, [r4, #12]
 8001d42:	60a3      	str	r3, [r4, #8]
 8001d44:	61a3      	str	r3, [r4, #24]
 8001d46:	f001 ff7f 	bl	8003c48 <HAL_TIM_Base_Init>
 8001d4a:	b108      	cbz	r0, 8001d50 <main+0x430>
 8001d4c:	b672      	cpsid	i
 8001d4e:	e7fe      	b.n	8001d4e <main+0x42e>
 8001d50:	f44f 5380 	mov.w	r3, #4096	; 0x1000
 8001d54:	a913      	add	r1, sp, #76	; 0x4c
 8001d56:	4620      	mov	r0, r4
 8001d58:	9313      	str	r3, [sp, #76]	; 0x4c
 8001d5a:	f002 f9ba 	bl	80040d2 <HAL_TIM_ConfigClockSource>
 8001d5e:	b108      	cbz	r0, 8001d64 <main+0x444>
 8001d60:	b672      	cpsid	i
 8001d62:	e7fe      	b.n	8001d62 <main+0x442>
 8001d64:	e9cd 000c 	strd	r0, r0, [sp, #48]	; 0x30
 8001d68:	a90c      	add	r1, sp, #48	; 0x30
 8001d6a:	4620      	mov	r0, r4
 8001d6c:	f002 fbc4 	bl	80044f8 <HAL_TIMEx_MasterConfigSynchronization>
 8001d70:	4605      	mov	r5, r0
 8001d72:	b108      	cbz	r0, 8001d78 <main+0x458>
 8001d74:	b672      	cpsid	i
 8001d76:	e7fe      	b.n	8001d76 <main+0x456>
 8001d78:	e9cd 000c 	strd	r0, r0, [sp, #48]	; 0x30
 8001d7c:	4601      	mov	r1, r0
 8001d7e:	2210      	movs	r2, #16
 8001d80:	a813      	add	r0, sp, #76	; 0x4c
 8001d82:	f004 fe0b 	bl	800699c <memset>
 8001d86:	4c1d      	ldr	r4, [pc, #116]	; (8001dfc <main+0x4dc>)
 8001d88:	4b1d      	ldr	r3, [pc, #116]	; (8001e00 <main+0x4e0>)
 8001d8a:	60a5      	str	r5, [r4, #8]
 8001d8c:	e9c4 3600 	strd	r3, r6, [r4]
 8001d90:	4620      	mov	r0, r4
 8001d92:	f64f 73ff 	movw	r3, #65535	; 0xffff
 8001d96:	e9c4 3503 	strd	r3, r5, [r4, #12]
 8001d9a:	61a5      	str	r5, [r4, #24]
 8001d9c:	f001 ffac 	bl	8003cf8 <HAL_TIM_IC_Init>
 8001da0:	b108      	cbz	r0, 8001da6 <main+0x486>
 8001da2:	b672      	cpsid	i
 8001da4:	e7fe      	b.n	8001da4 <main+0x484>
 8001da6:	e9cd 000c 	strd	r0, r0, [sp, #48]	; 0x30
 8001daa:	a90c      	add	r1, sp, #48	; 0x30
 8001dac:	4620      	mov	r0, r4
 8001dae:	f002 fba3 	bl	80044f8 <HAL_TIMEx_MasterConfigSynchronization>
 8001db2:	b108      	cbz	r0, 8001db8 <main+0x498>
 8001db4:	b672      	cpsid	i
 8001db6:	e7fe      	b.n	8001db6 <main+0x496>
 8001db8:	2301      	movs	r3, #1
 8001dba:	e9cd 3014 	strd	r3, r0, [sp, #80]	; 0x50
 8001dbe:	9013      	str	r0, [sp, #76]	; 0x4c
 8001dc0:	9016      	str	r0, [sp, #88]	; 0x58
 8001dc2:	2208      	movs	r2, #8
 8001dc4:	4620      	mov	r0, r4
 8001dc6:	a913      	add	r1, sp, #76	; 0x4c
 8001dc8:	f002 f8e6 	bl	8003f98 <HAL_TIM_IC_ConfigChannel>
 8001dcc:	4604      	mov	r4, r0
 8001dce:	b1c8      	cbz	r0, 8001e04 <main+0x4e4>
 8001dd0:	b672      	cpsid	i
 8001dd2:	e7fe      	b.n	8001dd2 <main+0x4b2>
 8001dd4:	200049e8 	.word	0x200049e8
 8001dd8:	20004a8c 	.word	0x20004a8c
 8001ddc:	40004800 	.word	0x40004800
 8001de0:	20004c04 	.word	0x20004c04
 8001de4:	0f000001 	.word	0x0f000001
 8001de8:	40012000 	.word	0x40012000
 8001dec:	20004ad4 	.word	0x20004ad4
 8001df0:	40012100 	.word	0x40012100
 8001df4:	20004b48 	.word	0x20004b48
 8001df8:	40000c00 	.word	0x40000c00
 8001dfc:	20004a38 	.word	0x20004a38
 8001e00:	40000800 	.word	0x40000800
 8001e04:	f004 fd06 	bl	8006814 <OLED_Init>
 8001e08:	4b6d      	ldr	r3, [pc, #436]	; (8001fc0 <main+0x6a0>)
 8001e0a:	4a6e      	ldr	r2, [pc, #440]	; (8001fc4 <main+0x6a4>)
 8001e0c:	601a      	str	r2, [r3, #0]
 8001e0e:	4b6e      	ldr	r3, [pc, #440]	; (8001fc8 <main+0x6a8>)
 8001e10:	4a6e      	ldr	r2, [pc, #440]	; (8001fcc <main+0x6ac>)
 8001e12:	601a      	str	r2, [r3, #0]
 8001e14:	4b6e      	ldr	r3, [pc, #440]	; (8001fd0 <main+0x6b0>)
 8001e16:	701c      	strb	r4, [r3, #0]
 8001e18:	4b6e      	ldr	r3, [pc, #440]	; (8001fd4 <main+0x6b4>)
 8001e1a:	2202      	movs	r2, #2
 8001e1c:	701a      	strb	r2, [r3, #0]
 8001e1e:	f7ff fc77 	bl	8001710 <changeProfile>
 8001e22:	4b6d      	ldr	r3, [pc, #436]	; (8001fd8 <main+0x6b8>)
 8001e24:	2200      	movs	r2, #0
 8001e26:	601a      	str	r2, [r3, #0]
 8001e28:	4b6c      	ldr	r3, [pc, #432]	; (8001fdc <main+0x6bc>)
 8001e2a:	601c      	str	r4, [r3, #0]
 8001e2c:	4b6c      	ldr	r3, [pc, #432]	; (8001fe0 <main+0x6c0>)
 8001e2e:	601f      	str	r7, [r3, #0]
 8001e30:	4b6c      	ldr	r3, [pc, #432]	; (8001fe4 <main+0x6c4>)
 8001e32:	f242 3228 	movw	r2, #9000	; 0x2328
 8001e36:	601a      	str	r2, [r3, #0]
 8001e38:	4b6b      	ldr	r3, [pc, #428]	; (8001fe8 <main+0x6c8>)
 8001e3a:	f242 521c 	movw	r2, #9500	; 0x251c
 8001e3e:	601a      	str	r2, [r3, #0]
 8001e40:	4b6a      	ldr	r3, [pc, #424]	; (8001fec <main+0x6cc>)
 8001e42:	f640 52ac 	movw	r2, #3500	; 0xdac
 8001e46:	601a      	str	r2, [r3, #0]
 8001e48:	4b69      	ldr	r3, [pc, #420]	; (8001ff0 <main+0x6d0>)
 8001e4a:	601e      	str	r6, [r3, #0]
 8001e4c:	4b69      	ldr	r3, [pc, #420]	; (8001ff4 <main+0x6d4>)
 8001e4e:	4618      	mov	r0, r3
 8001e50:	2214      	movs	r2, #20
 8001e52:	2100      	movs	r1, #0
 8001e54:	f004 fda2 	bl	800699c <memset>
 8001e58:	3401      	adds	r4, #1
 8001e5a:	4603      	mov	r3, r0
 8001e5c:	f5b4 7f7a 	cmp.w	r4, #1000	; 0x3e8
 8001e60:	f103 0314 	add.w	r3, r3, #20
 8001e64:	d1f3      	bne.n	8001e4e <main+0x52e>
 8001e66:	4b64      	ldr	r3, [pc, #400]	; (8001ff8 <main+0x6d8>)
 8001e68:	4864      	ldr	r0, [pc, #400]	; (8001ffc <main+0x6dc>)
 8001e6a:	2501      	movs	r5, #1
 8001e6c:	2214      	movs	r2, #20
 8001e6e:	2100      	movs	r1, #0
 8001e70:	701d      	strb	r5, [r3, #0]
 8001e72:	f004 fd93 	bl	800699c <memset>
 8001e76:	2100      	movs	r1, #0
 8001e78:	2214      	movs	r2, #20
 8001e7a:	4861      	ldr	r0, [pc, #388]	; (8002000 <main+0x6e0>)
 8001e7c:	f004 fd8e 	bl	800699c <memset>
 8001e80:	4b60      	ldr	r3, [pc, #384]	; (8002004 <main+0x6e4>)
 8001e82:	2400      	movs	r4, #0
 8001e84:	701c      	strb	r4, [r3, #0]
 8001e86:	4b60      	ldr	r3, [pc, #384]	; (8002008 <main+0x6e8>)
 8001e88:	701c      	strb	r4, [r3, #0]
 8001e8a:	4b60      	ldr	r3, [pc, #384]	; (800200c <main+0x6ec>)
 8001e8c:	701c      	strb	r4, [r3, #0]
 8001e8e:	4b60      	ldr	r3, [pc, #384]	; (8002010 <main+0x6f0>)
 8001e90:	701c      	strb	r4, [r3, #0]
 8001e92:	4b60      	ldr	r3, [pc, #384]	; (8002014 <main+0x6f4>)
 8001e94:	701c      	strb	r4, [r3, #0]
 8001e96:	4b60      	ldr	r3, [pc, #384]	; (8002018 <main+0x6f8>)
 8001e98:	701c      	strb	r4, [r3, #0]
 8001e9a:	4b60      	ldr	r3, [pc, #384]	; (800201c <main+0x6fc>)
 8001e9c:	224a      	movs	r2, #74	; 0x4a
 8001e9e:	601a      	str	r2, [r3, #0]
 8001ea0:	4b5f      	ldr	r3, [pc, #380]	; (8002020 <main+0x700>)
 8001ea2:	2232      	movs	r2, #50	; 0x32
 8001ea4:	601a      	str	r2, [r3, #0]
 8001ea6:	4b5f      	ldr	r3, [pc, #380]	; (8002024 <main+0x704>)
 8001ea8:	226d      	movs	r2, #109	; 0x6d
 8001eaa:	601a      	str	r2, [r3, #0]
 8001eac:	4b5e      	ldr	r3, [pc, #376]	; (8002028 <main+0x708>)
 8001eae:	4a5f      	ldr	r2, [pc, #380]	; (800202c <main+0x70c>)
 8001eb0:	601c      	str	r4, [r3, #0]
 8001eb2:	4b5f      	ldr	r3, [pc, #380]	; (8002030 <main+0x710>)
 8001eb4:	6014      	str	r4, [r2, #0]
 8001eb6:	601c      	str	r4, [r3, #0]
 8001eb8:	4b5e      	ldr	r3, [pc, #376]	; (8002034 <main+0x714>)
 8001eba:	6054      	str	r4, [r2, #4]
 8001ebc:	601c      	str	r4, [r3, #0]
 8001ebe:	605c      	str	r4, [r3, #4]
 8001ec0:	609c      	str	r4, [r3, #8]
 8001ec2:	60dc      	str	r4, [r3, #12]
 8001ec4:	611c      	str	r4, [r3, #16]
 8001ec6:	4b5c      	ldr	r3, [pc, #368]	; (8002038 <main+0x718>)
 8001ec8:	6094      	str	r4, [r2, #8]
 8001eca:	601c      	str	r4, [r3, #0]
 8001ecc:	4b5b      	ldr	r3, [pc, #364]	; (800203c <main+0x71c>)
 8001ece:	60d4      	str	r4, [r2, #12]
 8001ed0:	6114      	str	r4, [r2, #16]
 8001ed2:	f44f 62fa 	mov.w	r2, #2000	; 0x7d0
 8001ed6:	601a      	str	r2, [r3, #0]
 8001ed8:	4b59      	ldr	r3, [pc, #356]	; (8002040 <main+0x720>)
 8001eda:	601d      	str	r5, [r3, #0]
 8001edc:	4b59      	ldr	r3, [pc, #356]	; (8002044 <main+0x724>)
 8001ede:	2219      	movs	r2, #25
 8001ee0:	601a      	str	r2, [r3, #0]
 8001ee2:	4b59      	ldr	r3, [pc, #356]	; (8002048 <main+0x728>)
 8001ee4:	22c8      	movs	r2, #200	; 0xc8
 8001ee6:	601a      	str	r2, [r3, #0]
 8001ee8:	4b58      	ldr	r3, [pc, #352]	; (800204c <main+0x72c>)
 8001eea:	f640 32b8 	movw	r2, #3000	; 0xbb8
 8001eee:	601a      	str	r2, [r3, #0]
 8001ef0:	4b57      	ldr	r3, [pc, #348]	; (8002050 <main+0x730>)
 8001ef2:	4a58      	ldr	r2, [pc, #352]	; (8002054 <main+0x734>)
 8001ef4:	601d      	str	r5, [r3, #0]
 8001ef6:	230a      	movs	r3, #10
 8001ef8:	6013      	str	r3, [r2, #0]
 8001efa:	4a57      	ldr	r2, [pc, #348]	; (8002058 <main+0x738>)
 8001efc:	6013      	str	r3, [r2, #0]
 8001efe:	4b57      	ldr	r3, [pc, #348]	; (800205c <main+0x73c>)
 8001f00:	f44f 722f 	mov.w	r2, #700	; 0x2bc
 8001f04:	601a      	str	r2, [r3, #0]
 8001f06:	4b56      	ldr	r3, [pc, #344]	; (8002060 <main+0x740>)
 8001f08:	f44f 7296 	mov.w	r2, #300	; 0x12c
 8001f0c:	601a      	str	r2, [r3, #0]
 8001f0e:	f002 fe7f 	bl	8004c10 <osKernelInitialize>
 8001f12:	4a54      	ldr	r2, [pc, #336]	; (8002064 <main+0x744>)
 8001f14:	4854      	ldr	r0, [pc, #336]	; (8002068 <main+0x748>)
 8001f16:	4621      	mov	r1, r4
 8001f18:	f002 fea6 	bl	8004c68 <osThreadNew>
 8001f1c:	4b53      	ldr	r3, [pc, #332]	; (800206c <main+0x74c>)
 8001f1e:	4a54      	ldr	r2, [pc, #336]	; (8002070 <main+0x750>)
 8001f20:	6018      	str	r0, [r3, #0]
 8001f22:	4621      	mov	r1, r4
 8001f24:	4853      	ldr	r0, [pc, #332]	; (8002074 <main+0x754>)
 8001f26:	f002 fe9f 	bl	8004c68 <osThreadNew>
 8001f2a:	4b53      	ldr	r3, [pc, #332]	; (8002078 <main+0x758>)
 8001f2c:	4a53      	ldr	r2, [pc, #332]	; (800207c <main+0x75c>)
 8001f2e:	6018      	str	r0, [r3, #0]
 8001f30:	4621      	mov	r1, r4
 8001f32:	4853      	ldr	r0, [pc, #332]	; (8002080 <main+0x760>)
 8001f34:	f002 fe98 	bl	8004c68 <osThreadNew>
 8001f38:	4b52      	ldr	r3, [pc, #328]	; (8002084 <main+0x764>)
 8001f3a:	4a53      	ldr	r2, [pc, #332]	; (8002088 <main+0x768>)
 8001f3c:	6018      	str	r0, [r3, #0]
 8001f3e:	4621      	mov	r1, r4
 8001f40:	4852      	ldr	r0, [pc, #328]	; (800208c <main+0x76c>)
 8001f42:	f002 fe91 	bl	8004c68 <osThreadNew>
 8001f46:	4b52      	ldr	r3, [pc, #328]	; (8002090 <main+0x770>)
 8001f48:	4a52      	ldr	r2, [pc, #328]	; (8002094 <main+0x774>)
 8001f4a:	6018      	str	r0, [r3, #0]
 8001f4c:	4621      	mov	r1, r4
 8001f4e:	4852      	ldr	r0, [pc, #328]	; (8002098 <main+0x778>)
 8001f50:	f002 fe8a 	bl	8004c68 <osThreadNew>
 8001f54:	4b51      	ldr	r3, [pc, #324]	; (800209c <main+0x77c>)
 8001f56:	4a52      	ldr	r2, [pc, #328]	; (80020a0 <main+0x780>)
 8001f58:	6018      	str	r0, [r3, #0]
 8001f5a:	4621      	mov	r1, r4
 8001f5c:	4851      	ldr	r0, [pc, #324]	; (80020a4 <main+0x784>)
 8001f5e:	f002 fe83 	bl	8004c68 <osThreadNew>
 8001f62:	4b51      	ldr	r3, [pc, #324]	; (80020a8 <main+0x788>)
 8001f64:	4a51      	ldr	r2, [pc, #324]	; (80020ac <main+0x78c>)
 8001f66:	6018      	str	r0, [r3, #0]
 8001f68:	4621      	mov	r1, r4
 8001f6a:	4851      	ldr	r0, [pc, #324]	; (80020b0 <main+0x790>)
 8001f6c:	f002 fe7c 	bl	8004c68 <osThreadNew>
 8001f70:	4b50      	ldr	r3, [pc, #320]	; (80020b4 <main+0x794>)
 8001f72:	4a51      	ldr	r2, [pc, #324]	; (80020b8 <main+0x798>)
 8001f74:	6018      	str	r0, [r3, #0]
 8001f76:	4621      	mov	r1, r4
 8001f78:	4850      	ldr	r0, [pc, #320]	; (80020bc <main+0x79c>)
 8001f7a:	f002 fe75 	bl	8004c68 <osThreadNew>
 8001f7e:	4b50      	ldr	r3, [pc, #320]	; (80020c0 <main+0x7a0>)
 8001f80:	4a50      	ldr	r2, [pc, #320]	; (80020c4 <main+0x7a4>)
 8001f82:	6018      	str	r0, [r3, #0]
 8001f84:	4621      	mov	r1, r4
 8001f86:	4850      	ldr	r0, [pc, #320]	; (80020c8 <main+0x7a8>)
 8001f88:	f002 fe6e 	bl	8004c68 <osThreadNew>
 8001f8c:	4b4f      	ldr	r3, [pc, #316]	; (80020cc <main+0x7ac>)
 8001f8e:	4a50      	ldr	r2, [pc, #320]	; (80020d0 <main+0x7b0>)
 8001f90:	6018      	str	r0, [r3, #0]
 8001f92:	4621      	mov	r1, r4
 8001f94:	484f      	ldr	r0, [pc, #316]	; (80020d4 <main+0x7b4>)
 8001f96:	f002 fe67 	bl	8004c68 <osThreadNew>
 8001f9a:	4b4f      	ldr	r3, [pc, #316]	; (80020d8 <main+0x7b8>)
 8001f9c:	4a4f      	ldr	r2, [pc, #316]	; (80020dc <main+0x7bc>)
 8001f9e:	6018      	str	r0, [r3, #0]
 8001fa0:	4621      	mov	r1, r4
 8001fa2:	484f      	ldr	r0, [pc, #316]	; (80020e0 <main+0x7c0>)
 8001fa4:	f002 fe60 	bl	8004c68 <osThreadNew>
 8001fa8:	4b4e      	ldr	r3, [pc, #312]	; (80020e4 <main+0x7c4>)
 8001faa:	4a4f      	ldr	r2, [pc, #316]	; (80020e8 <main+0x7c8>)
 8001fac:	6018      	str	r0, [r3, #0]
 8001fae:	4621      	mov	r1, r4
 8001fb0:	484e      	ldr	r0, [pc, #312]	; (80020ec <main+0x7cc>)
 8001fb2:	f002 fe59 	bl	8004c68 <osThreadNew>
 8001fb6:	4b4e      	ldr	r3, [pc, #312]	; (80020f0 <main+0x7d0>)
 8001fb8:	6018      	str	r0, [r3, #0]
 8001fba:	f002 fe3b 	bl	8004c34 <osKernelStart>
 8001fbe:	e7fe      	b.n	8001fbe <main+0x69e>
 8001fc0:	20004dac 	.word	0x20004dac
 8001fc4:	40490fdb 	.word	0x40490fdb
 8001fc8:	20004b20 	.word	0x20004b20
 8001fcc:	40566666 	.word	0x40566666
 8001fd0:	20004c7d 	.word	0x20004c7d
 8001fd4:	20004c7e 	.word	0x20004c7e
 8001fd8:	20004d38 	.word	0x20004d38
 8001fdc:	20004c70 	.word	0x20004c70
 8001fe0:	200049a8 	.word	0x200049a8
 8001fe4:	20004a30 	.word	0x20004a30
 8001fe8:	20004c54 	.word	0x20004c54
 8001fec:	20004bf8 	.word	0x20004bf8
 8001ff0:	20004b34 	.word	0x20004b34
 8001ff4:	20004dbc 	.word	0x20004dbc
 8001ff8:	20004da4 	.word	0x20004da4
 8001ffc:	20004c8c 	.word	0x20004c8c
 8002000:	20004cf4 	.word	0x20004cf4
 8002004:	20004b3c 	.word	0x20004b3c
 8002008:	20004d35 	.word	0x20004d35
 800200c:	20004c7f 	.word	0x20004c7f
 8002010:	20004c7c 	.word	0x20004c7c
 8002014:	20004c00 	.word	0x20004c00
 8002018:	20004d34 	.word	0x20004d34
 800201c:	20009bec 	.word	0x20009bec
 8002020:	20004a88 	.word	0x20004a88
 8002024:	20009bdc 	.word	0x20009bdc
 8002028:	20004c80 	.word	0x20004c80
 800202c:	20004d44 	.word	0x20004d44
 8002030:	20004d2c 	.word	0x20004d2c
 8002034:	200049d4 	.word	0x200049d4
 8002038:	20004ba4 	.word	0x20004ba4
 800203c:	20004ce8 	.word	0x20004ce8
 8002040:	20004c88 	.word	0x20004c88
 8002044:	200049b8 	.word	0x200049b8
 8002048:	20004c64 	.word	0x20004c64
 800204c:	200049c0 	.word	0x200049c0
 8002050:	20004c50 	.word	0x20004c50
 8002054:	20004d10 	.word	0x20004d10
 8002058:	20004ad0 	.word	0x20004ad0
 800205c:	20004c68 	.word	0x20004c68
 8002060:	20004db8 	.word	0x20004db8
 8002064:	08007548 	.word	0x08007548
 8002068:	08001439 	.word	0x08001439
 800206c:	20004bfc 	.word	0x20004bfc
 8002070:	080074b8 	.word	0x080074b8
 8002074:	08000c65 	.word	0x08000c65
 8002078:	20004d30 	.word	0x20004d30
 800207c:	0800756c 	.word	0x0800756c
 8002080:	080015ed 	.word	0x080015ed
 8002084:	20004d24 	.word	0x20004d24
 8002088:	08007590 	.word	0x08007590
 800208c:	08000d2d 	.word	0x08000d2d
 8002090:	200049cc 	.word	0x200049cc
 8002094:	08007500 	.word	0x08007500
 8002098:	08000d8d 	.word	0x08000d8d
 800209c:	20004db0 	.word	0x20004db0
 80020a0:	08007524 	.word	0x08007524
 80020a4:	08000e0d 	.word	0x08000e0d
 80020a8:	20004d28 	.word	0x20004d28
 80020ac:	08007470 	.word	0x08007470
 80020b0:	08000e8d 	.word	0x08000e8d
 80020b4:	20004cf0 	.word	0x20004cf0
 80020b8:	08007494 	.word	0x08007494
 80020bc:	080010a1 	.word	0x080010a1
 80020c0:	20004b1c 	.word	0x20004b1c
 80020c4:	0800744c 	.word	0x0800744c
 80020c8:	080024a5 	.word	0x080024a5
 80020cc:	20004c74 	.word	0x20004c74
 80020d0:	08007428 	.word	0x08007428
 80020d4:	08000cc9 	.word	0x08000cc9
 80020d8:	20004a34 	.word	0x20004a34
 80020dc:	080074dc 	.word	0x080074dc
 80020e0:	080012b5 	.word	0x080012b5
 80020e4:	200049b4 	.word	0x200049b4
 80020e8:	080075b4 	.word	0x080075b4
 80020ec:	08002109 	.word	0x08002109
 80020f0:	20004c78 	.word	0x20004c78

080020f4 <microDelay>:
 80020f4:	4b03      	ldr	r3, [pc, #12]	; (8002104 <microDelay+0x10>)
 80020f6:	681b      	ldr	r3, [r3, #0]
 80020f8:	2200      	movs	r2, #0
 80020fa:	625a      	str	r2, [r3, #36]	; 0x24
 80020fc:	6a5a      	ldr	r2, [r3, #36]	; 0x24
 80020fe:	4282      	cmp	r2, r0
 8002100:	d3fc      	bcc.n	80020fc <microDelay+0x8>
 8002102:	4770      	bx	lr
 8002104:	20004b48 	.word	0x20004b48

08002108 <ultra>:
 8002108:	b508      	push	{r3, lr}
 800210a:	2108      	movs	r1, #8
 800210c:	480f      	ldr	r0, [pc, #60]	; (800214c <ultra+0x44>)
 800210e:	4c10      	ldr	r4, [pc, #64]	; (8002150 <ultra+0x48>)
 8002110:	4d0e      	ldr	r5, [pc, #56]	; (800214c <ultra+0x44>)
 8002112:	f002 f96d 	bl	80043f0 <HAL_TIM_IC_Start_IT>
 8002116:	480f      	ldr	r0, [pc, #60]	; (8002154 <ultra+0x4c>)
 8002118:	f001 fbe2 	bl	80038e0 <HAL_TIM_Base_Start>
 800211c:	2201      	movs	r2, #1
 800211e:	2110      	movs	r1, #16
 8002120:	4620      	mov	r0, r4
 8002122:	f001 f883 	bl	800322c <HAL_GPIO_WritePin>
 8002126:	200a      	movs	r0, #10
 8002128:	f7ff ffe4 	bl	80020f4 <microDelay>
 800212c:	4620      	mov	r0, r4
 800212e:	2200      	movs	r2, #0
 8002130:	2110      	movs	r1, #16
 8002132:	f001 f87b 	bl	800322c <HAL_GPIO_WritePin>
 8002136:	682a      	ldr	r2, [r5, #0]
 8002138:	68d3      	ldr	r3, [r2, #12]
 800213a:	f043 0308 	orr.w	r3, r3, #8
 800213e:	60d3      	str	r3, [r2, #12]
 8002140:	4b05      	ldr	r3, [pc, #20]	; (8002158 <ultra+0x50>)
 8002142:	6818      	ldr	r0, [r3, #0]
 8002144:	f002 fdd9 	bl	8004cfa <osDelay>
 8002148:	e7e8      	b.n	800211c <ultra+0x14>
 800214a:	bf00      	nop
 800214c:	20004a38 	.word	0x20004a38
 8002150:	40020400 	.word	0x40020400
 8002154:	20004b48 	.word	0x20004b48
 8002158:	20004db8 	.word	0x20004db8

0800215c <stopRobot>:
 800215c:	b538      	push	{r3, r4, r5, lr}
 800215e:	4b1b      	ldr	r3, [pc, #108]	; (80021cc <stopRobot+0x70>)
 8002160:	4d1b      	ldr	r5, [pc, #108]	; (80021d0 <stopRobot+0x74>)
 8002162:	2400      	movs	r4, #0
 8002164:	701c      	strb	r4, [r3, #0]
 8002166:	4b1b      	ldr	r3, [pc, #108]	; (80021d4 <stopRobot+0x78>)
 8002168:	601c      	str	r4, [r3, #0]
 800216a:	4b1b      	ldr	r3, [pc, #108]	; (80021d8 <stopRobot+0x7c>)
 800216c:	601c      	str	r4, [r3, #0]
 800216e:	4b1b      	ldr	r3, [pc, #108]	; (80021dc <stopRobot+0x80>)
 8002170:	701c      	strb	r4, [r3, #0]
 8002172:	4b1b      	ldr	r3, [pc, #108]	; (80021e0 <stopRobot+0x84>)
 8002174:	701c      	strb	r4, [r3, #0]
 8002176:	4b1b      	ldr	r3, [pc, #108]	; (80021e4 <stopRobot+0x88>)
 8002178:	6818      	ldr	r0, [r3, #0]
 800217a:	ebc0 1000 	rsb	r0, r0, r0, lsl #4
 800217e:	f002 fdbc 	bl	8004cfa <osDelay>
 8002182:	4b19      	ldr	r3, [pc, #100]	; (80021e8 <stopRobot+0x8c>)
 8002184:	681a      	ldr	r2, [r3, #0]
 8002186:	4b19      	ldr	r3, [pc, #100]	; (80021ec <stopRobot+0x90>)
 8002188:	601a      	str	r2, [r3, #0]
 800218a:	4b19      	ldr	r3, [pc, #100]	; (80021f0 <stopRobot+0x94>)
 800218c:	701c      	strb	r4, [r3, #0]
 800218e:	4b19      	ldr	r3, [pc, #100]	; (80021f4 <stopRobot+0x98>)
 8002190:	6818      	ldr	r0, [r3, #0]
 8002192:	f7fe fad9 	bl	8000748 <__aeabi_ui2d>
 8002196:	4b18      	ldr	r3, [pc, #96]	; (80021f8 <stopRobot+0x9c>)
 8002198:	f04f 3233 	mov.w	r2, #858993459	; 0x33333333
 800219c:	f7fe f868 	bl	8000270 <__aeabi_dmul>
 80021a0:	f7fe fb74 	bl	800088c <__aeabi_d2uiz>
 80021a4:	f002 fda9 	bl	8004cfa <osDelay>
 80021a8:	4b14      	ldr	r3, [pc, #80]	; (80021fc <stopRobot+0xa0>)
 80021aa:	701c      	strb	r4, [r3, #0]
 80021ac:	782b      	ldrb	r3, [r5, #0]
 80021ae:	b14b      	cbz	r3, 80021c4 <stopRobot+0x68>
 80021b0:	4b13      	ldr	r3, [pc, #76]	; (8002200 <stopRobot+0xa4>)
 80021b2:	4914      	ldr	r1, [pc, #80]	; (8002204 <stopRobot+0xa8>)
 80021b4:	6818      	ldr	r0, [r3, #0]
 80021b6:	4b14      	ldr	r3, [pc, #80]	; (8002208 <stopRobot+0xac>)
 80021b8:	2214      	movs	r2, #20
 80021ba:	fb02 3000 	mla	r0, r2, r0, r3
 80021be:	f004 fc1d 	bl	80069fc <strncpy>
 80021c2:	702c      	strb	r4, [r5, #0]
 80021c4:	4b11      	ldr	r3, [pc, #68]	; (800220c <stopRobot+0xb0>)
 80021c6:	2202      	movs	r2, #2
 80021c8:	701a      	strb	r2, [r3, #0]
 80021ca:	bd38      	pop	{r3, r4, r5, pc}
 80021cc:	20004c7c 	.word	0x20004c7c
 80021d0:	20004c00 	.word	0x20004c00
 80021d4:	20004d3c 	.word	0x20004d3c
 80021d8:	20004b28 	.word	0x20004b28
 80021dc:	20004b3c 	.word	0x20004b3c
 80021e0:	20004d35 	.word	0x20004d35
 80021e4:	20004c50 	.word	0x20004c50
 80021e8:	20009bec 	.word	0x20009bec
 80021ec:	20004b2c 	.word	0x20004b2c
 80021f0:	20004d34 	.word	0x20004d34
 80021f4:	20004c68 	.word	0x20004c68
 80021f8:	3ff33333 	.word	0x3ff33333
 80021fc:	20004c7f 	.word	0x20004c7f
 8002200:	20004c70 	.word	0x20004c70
 8002204:	20004b90 	.word	0x20004b90
 8002208:	20004dbc 	.word	0x20004dbc
 800220c:	20004da4 	.word	0x20004da4

08002210 <driveRobot>:
 8002210:	b537      	push	{r0, r1, r2, r4, r5, lr}
 8002212:	4c33      	ldr	r4, [pc, #204]	; (80022e0 <driveRobot+0xd0>)
 8002214:	2204      	movs	r2, #4
 8002216:	1d81      	adds	r1, r0, #6
 8002218:	4605      	mov	r5, r0
 800221a:	4668      	mov	r0, sp
 800221c:	f004 fbee 	bl	80069fc <strncpy>
 8002220:	7822      	ldrb	r2, [r4, #0]
 8002222:	b94a      	cbnz	r2, 8002238 <driveRobot+0x28>
 8002224:	4668      	mov	r0, sp
 8002226:	f004 fb7d 	bl	8006924 <atoi>
 800222a:	ee07 0a90 	vmov	s15, r0
 800222e:	4b2d      	ldr	r3, [pc, #180]	; (80022e4 <driveRobot+0xd4>)
 8002230:	eef8 7ae7 	vcvt.f32.s32	s15, s15
 8002234:	edc3 7a00 	vstr	s15, [r3]
 8002238:	4a2b      	ldr	r2, [pc, #172]	; (80022e8 <driveRobot+0xd8>)
 800223a:	792b      	ldrb	r3, [r5, #4]
 800223c:	7013      	strb	r3, [r2, #0]
 800223e:	7821      	ldrb	r1, [r4, #0]
 8002240:	4a2a      	ldr	r2, [pc, #168]	; (80022ec <driveRobot+0xdc>)
 8002242:	7013      	strb	r3, [r2, #0]
 8002244:	2900      	cmp	r1, #0
 8002246:	d132      	bne.n	80022ae <driveRobot+0x9e>
 8002248:	4b29      	ldr	r3, [pc, #164]	; (80022f0 <driveRobot+0xe0>)
 800224a:	ed93 7a00 	vldr	s14, [r3]
 800224e:	4829      	ldr	r0, [pc, #164]	; (80022f4 <driveRobot+0xe4>)
 8002250:	4b29      	ldr	r3, [pc, #164]	; (80022f8 <driveRobot+0xe8>)
 8002252:	4a2a      	ldr	r2, [pc, #168]	; (80022fc <driveRobot+0xec>)
 8002254:	ed83 7a00 	vstr	s14, [r3]
 8002258:	7803      	ldrb	r3, [r0, #0]
 800225a:	2b00      	cmp	r3, #0
 800225c:	d129      	bne.n	80022b2 <driveRobot+0xa2>
 800225e:	2900      	cmp	r1, #0
 8002260:	f04f 0401 	mov.w	r4, #1
 8002264:	4926      	ldr	r1, [pc, #152]	; (8002300 <driveRobot+0xf0>)
 8002266:	7004      	strb	r4, [r0, #0]
 8002268:	bf0c      	ite	eq
 800226a:	4620      	moveq	r0, r4
 800226c:	2000      	movne	r0, #0
 800226e:	7008      	strb	r0, [r1, #0]
 8002270:	4924      	ldr	r1, [pc, #144]	; (8002304 <driveRobot+0xf4>)
 8002272:	600b      	str	r3, [r1, #0]
 8002274:	4924      	ldr	r1, [pc, #144]	; (8002308 <driveRobot+0xf8>)
 8002276:	600b      	str	r3, [r1, #0]
 8002278:	4924      	ldr	r1, [pc, #144]	; (800230c <driveRobot+0xfc>)
 800227a:	600b      	str	r3, [r1, #0]
 800227c:	4924      	ldr	r1, [pc, #144]	; (8002310 <driveRobot+0x100>)
 800227e:	600b      	str	r3, [r1, #0]
 8002280:	4924      	ldr	r1, [pc, #144]	; (8002314 <driveRobot+0x104>)
 8002282:	600b      	str	r3, [r1, #0]
 8002284:	4924      	ldr	r1, [pc, #144]	; (8002318 <driveRobot+0x108>)
 8002286:	600b      	str	r3, [r1, #0]
 8002288:	f04f 0300 	mov.w	r3, #0
 800228c:	6013      	str	r3, [r2, #0]
 800228e:	4a23      	ldr	r2, [pc, #140]	; (800231c <driveRobot+0x10c>)
 8002290:	6013      	str	r3, [r2, #0]
 8002292:	4a23      	ldr	r2, [pc, #140]	; (8002320 <driveRobot+0x110>)
 8002294:	6013      	str	r3, [r2, #0]
 8002296:	4a23      	ldr	r2, [pc, #140]	; (8002324 <driveRobot+0x114>)
 8002298:	6013      	str	r3, [r2, #0]
 800229a:	bf0c      	ite	eq
 800229c:	4b22      	ldreq	r3, [pc, #136]	; (8002328 <driveRobot+0x118>)
 800229e:	4b23      	ldrne	r3, [pc, #140]	; (800232c <driveRobot+0x11c>)
 80022a0:	4a23      	ldr	r2, [pc, #140]	; (8002330 <driveRobot+0x120>)
 80022a2:	681b      	ldr	r3, [r3, #0]
 80022a4:	6013      	str	r3, [r2, #0]
 80022a6:	4a23      	ldr	r2, [pc, #140]	; (8002334 <driveRobot+0x124>)
 80022a8:	6013      	str	r3, [r2, #0]
 80022aa:	b003      	add	sp, #12
 80022ac:	bd30      	pop	{r4, r5, pc}
 80022ae:	4b22      	ldr	r3, [pc, #136]	; (8002338 <driveRobot+0x128>)
 80022b0:	e7cb      	b.n	800224a <driveRobot+0x3a>
 80022b2:	4b0c      	ldr	r3, [pc, #48]	; (80022e4 <driveRobot+0xd4>)
 80022b4:	edd3 7a00 	vldr	s15, [r3]
 80022b8:	ee77 7ac7 	vsub.f32	s15, s15, s14
 80022bc:	ed92 7a00 	vldr	s14, [r2]
 80022c0:	eef4 7ac7 	vcmpe.f32	s15, s14
 80022c4:	eef1 fa10 	vmrs	APSR_nzcv, fpscr
 80022c8:	d8ef      	bhi.n	80022aa <driveRobot+0x9a>
 80022ca:	4b14      	ldr	r3, [pc, #80]	; (800231c <driveRobot+0x10c>)
 80022cc:	ed93 7a00 	vldr	s14, [r3]
 80022d0:	eef4 7ac7 	vcmpe.f32	s15, s14
 80022d4:	eef1 fa10 	vmrs	APSR_nzcv, fpscr
 80022d8:	d8e7      	bhi.n	80022aa <driveRobot+0x9a>
 80022da:	f7ff ff3f 	bl	800215c <stopRobot>
 80022de:	e7e4      	b.n	80022aa <driveRobot+0x9a>
 80022e0:	20004c00 	.word	0x20004c00
 80022e4:	20009be8 	.word	0x20009be8
 80022e8:	20004b3c 	.word	0x20004b3c
 80022ec:	20004d35 	.word	0x20004d35
 80022f0:	20004c5c 	.word	0x20004c5c
 80022f4:	20004c7f 	.word	0x20004c7f
 80022f8:	20004d1c 	.word	0x20004d1c
 80022fc:	20004c6c 	.word	0x20004c6c
 8002300:	20004c7c 	.word	0x20004c7c
 8002304:	20004c58 	.word	0x20004c58
 8002308:	200049b0 	.word	0x200049b0
 800230c:	20004c60 	.word	0x20004c60
 8002310:	20004d40 	.word	0x20004d40
 8002314:	20004b40 	.word	0x20004b40
 8002318:	20004da0 	.word	0x20004da0
 800231c:	20004d20 	.word	0x20004d20
 8002320:	200049d0 	.word	0x200049d0
 8002324:	200049c4 	.word	0x200049c4
 8002328:	20004a30 	.word	0x20004a30
 800232c:	20004bf8 	.word	0x20004bf8
 8002330:	20004d3c 	.word	0x20004d3c
 8002334:	20004b28 	.word	0x20004b28
 8002338:	20004b44 	.word	0x20004b44

0800233c <turnRobot>:
 800233c:	b5f7      	push	{r0, r1, r2, r4, r5, r6, r7, lr}
 800233e:	4604      	mov	r4, r0
 8002340:	2203      	movs	r2, #3
 8002342:	1dc1      	adds	r1, r0, #7
 8002344:	a801      	add	r0, sp, #4
 8002346:	f004 fb59 	bl	80069fc <strncpy>
 800234a:	a801      	add	r0, sp, #4
 800234c:	f004 faea 	bl	8006924 <atoi>
 8002350:	4b3c      	ldr	r3, [pc, #240]	; (8002444 <turnRobot+0x108>)
 8002352:	7922      	ldrb	r2, [r4, #4]
 8002354:	6018      	str	r0, [r3, #0]
 8002356:	4b3c      	ldr	r3, [pc, #240]	; (8002448 <turnRobot+0x10c>)
 8002358:	4f3c      	ldr	r7, [pc, #240]	; (800244c <turnRobot+0x110>)
 800235a:	701a      	strb	r2, [r3, #0]
 800235c:	ee07 0a90 	vmov	s15, r0
 8002360:	483b      	ldr	r0, [pc, #236]	; (8002450 <turnRobot+0x114>)
 8002362:	7963      	ldrb	r3, [r4, #5]
 8002364:	4d3b      	ldr	r5, [pc, #236]	; (8002454 <turnRobot+0x118>)
 8002366:	703b      	strb	r3, [r7, #0]
 8002368:	2a4c      	cmp	r2, #76	; 0x4c
 800236a:	7003      	strb	r3, [r0, #0]
 800236c:	d155      	bne.n	800241a <turnRobot+0xde>
 800236e:	2b42      	cmp	r3, #66	; 0x42
 8002370:	d14a      	bne.n	8002408 <turnRobot+0xcc>
 8002372:	4b39      	ldr	r3, [pc, #228]	; (8002458 <turnRobot+0x11c>)
 8002374:	eef8 7ae7 	vcvt.f32.s32	s15, s15
 8002378:	edd3 6a00 	vldr	s13, [r3]
 800237c:	4b37      	ldr	r3, [pc, #220]	; (800245c <turnRobot+0x120>)
 800237e:	ed93 7a00 	vldr	s14, [r3]
 8002382:	eea7 7aa6 	vfma.f32	s14, s15, s13
 8002386:	ed85 7a00 	vstr	s14, [r5]
 800238a:	edd5 7a00 	vldr	s15, [r5]
 800238e:	eef5 7ac0 	vcmpe.f32	s15, #0.0
 8002392:	eef1 fa10 	vmrs	APSR_nzcv, fpscr
 8002396:	dd35      	ble.n	8002404 <turnRobot+0xc8>
 8002398:	2a4c      	cmp	r2, #76	; 0x4c
 800239a:	bf0c      	ite	eq
 800239c:	4b30      	ldreq	r3, [pc, #192]	; (8002460 <turnRobot+0x124>)
 800239e:	4b31      	ldrne	r3, [pc, #196]	; (8002464 <turnRobot+0x128>)
 80023a0:	4a31      	ldr	r2, [pc, #196]	; (8002468 <turnRobot+0x12c>)
 80023a2:	681b      	ldr	r3, [r3, #0]
 80023a4:	6013      	str	r3, [r2, #0]
 80023a6:	4b31      	ldr	r3, [pc, #196]	; (800246c <turnRobot+0x130>)
 80023a8:	2254      	movs	r2, #84	; 0x54
 80023aa:	701a      	strb	r2, [r3, #0]
 80023ac:	4b30      	ldr	r3, [pc, #192]	; (8002470 <turnRobot+0x134>)
 80023ae:	6818      	ldr	r0, [r3, #0]
 80023b0:	f7fe f9ca 	bl	8000748 <__aeabi_ui2d>
 80023b4:	4b2f      	ldr	r3, [pc, #188]	; (8002474 <turnRobot+0x138>)
 80023b6:	f04f 3233 	mov.w	r2, #858993459	; 0x33333333
 80023ba:	f7fd ff59 	bl	8000270 <__aeabi_dmul>
 80023be:	f7fe fa65 	bl	800088c <__aeabi_d2uiz>
 80023c2:	f002 fc9a 	bl	8004cfa <osDelay>
 80023c6:	2214      	movs	r2, #20
 80023c8:	4621      	mov	r1, r4
 80023ca:	482b      	ldr	r0, [pc, #172]	; (8002478 <turnRobot+0x13c>)
 80023cc:	f004 fb16 	bl	80069fc <strncpy>
 80023d0:	4b2a      	ldr	r3, [pc, #168]	; (800247c <turnRobot+0x140>)
 80023d2:	681e      	ldr	r6, [r3, #0]
 80023d4:	4b2a      	ldr	r3, [pc, #168]	; (8002480 <turnRobot+0x144>)
 80023d6:	2214      	movs	r2, #20
 80023d8:	fb02 3606 	mla	r6, r2, r6, r3
 80023dc:	4621      	mov	r1, r4
 80023de:	2204      	movs	r2, #4
 80023e0:	4630      	mov	r0, r6
 80023e2:	f004 fb0b 	bl	80069fc <strncpy>
 80023e6:	6828      	ldr	r0, [r5, #0]
 80023e8:	f7fe f9d0 	bl	800078c <__aeabi_f2d>
 80023ec:	4b25      	ldr	r3, [pc, #148]	; (8002484 <turnRobot+0x148>)
 80023ee:	2200      	movs	r2, #0
 80023f0:	f7fe f86e 	bl	80004d0 <__adddf3>
 80023f4:	f7fe fa22 	bl	800083c <__aeabi_d2iz>
 80023f8:	783a      	ldrb	r2, [r7, #0]
 80023fa:	4923      	ldr	r1, [pc, #140]	; (8002488 <turnRobot+0x14c>)
 80023fc:	4603      	mov	r3, r0
 80023fe:	1d30      	adds	r0, r6, #4
 8002400:	f004 fad4 	bl	80069ac <siprintf>
 8002404:	b003      	add	sp, #12
 8002406:	bdf0      	pop	{r4, r5, r6, r7, pc}
 8002408:	2b46      	cmp	r3, #70	; 0x46
 800240a:	d1be      	bne.n	800238a <turnRobot+0x4e>
 800240c:	4b1f      	ldr	r3, [pc, #124]	; (800248c <turnRobot+0x150>)
 800240e:	eef8 7ae7 	vcvt.f32.s32	s15, s15
 8002412:	edd3 6a00 	vldr	s13, [r3]
 8002416:	4b1e      	ldr	r3, [pc, #120]	; (8002490 <turnRobot+0x154>)
 8002418:	e7b1      	b.n	800237e <turnRobot+0x42>
 800241a:	2a52      	cmp	r2, #82	; 0x52
 800241c:	d1b5      	bne.n	800238a <turnRobot+0x4e>
 800241e:	2b42      	cmp	r3, #66	; 0x42
 8002420:	d106      	bne.n	8002430 <turnRobot+0xf4>
 8002422:	4b1c      	ldr	r3, [pc, #112]	; (8002494 <turnRobot+0x158>)
 8002424:	eef8 7ae7 	vcvt.f32.s32	s15, s15
 8002428:	edd3 6a00 	vldr	s13, [r3]
 800242c:	4b1a      	ldr	r3, [pc, #104]	; (8002498 <turnRobot+0x15c>)
 800242e:	e7a6      	b.n	800237e <turnRobot+0x42>
 8002430:	2b46      	cmp	r3, #70	; 0x46
 8002432:	d1aa      	bne.n	800238a <turnRobot+0x4e>
 8002434:	4b19      	ldr	r3, [pc, #100]	; (800249c <turnRobot+0x160>)
 8002436:	eef8 7ae7 	vcvt.f32.s32	s15, s15
 800243a:	edd3 6a00 	vldr	s13, [r3]
 800243e:	4b18      	ldr	r3, [pc, #96]	; (80024a0 <turnRobot+0x164>)
 8002440:	e79d      	b.n	800237e <turnRobot+0x42>
 8002442:	bf00      	nop
 8002444:	20004c84 	.word	0x20004c84
 8002448:	20004c00 	.word	0x20004c00
 800244c:	20004b3c 	.word	0x20004b3c
 8002450:	20004d35 	.word	0x20004d35
 8002454:	20009be8 	.word	0x20009be8
 8002458:	20004a84 	.word	0x20004a84
 800245c:	20004d14 	.word	0x20004d14
 8002460:	20004a88 	.word	0x20004a88
 8002464:	20009bdc 	.word	0x20009bdc
 8002468:	20004b2c 	.word	0x20004b2c
 800246c:	20004d34 	.word	0x20004d34
 8002470:	20004c68 	.word	0x20004c68
 8002474:	3ff33333 	.word	0x3ff33333
 8002478:	20004b90 	.word	0x20004b90
 800247c:	20004c70 	.word	0x20004c70
 8002480:	20004dbc 	.word	0x20004dbc
 8002484:	3fe00000 	.word	0x3fe00000
 8002488:	080073ab 	.word	0x080073ab
 800248c:	20004d0c 	.word	0x20004d0c
 8002490:	20004d08 	.word	0x20004d08
 8002494:	20009be0 	.word	0x20009be0
 8002498:	20009be4 	.word	0x20009be4
 800249c:	20004a80 	.word	0x20004a80
 80024a0:	200049c8 	.word	0x200049c8

080024a4 <dispatch>:
 80024a4:	b5f7      	push	{r0, r1, r2, r4, r5, r6, r7, lr}
 80024a6:	4d22      	ldr	r5, [pc, #136]	; (8002530 <dispatch+0x8c>)
 80024a8:	4c22      	ldr	r4, [pc, #136]	; (8002534 <dispatch+0x90>)
 80024aa:	782b      	ldrb	r3, [r5, #0]
 80024ac:	2b01      	cmp	r3, #1
 80024ae:	d112      	bne.n	80024d6 <dispatch+0x32>
 80024b0:	4e21      	ldr	r6, [pc, #132]	; (8002538 <dispatch+0x94>)
 80024b2:	4f22      	ldr	r7, [pc, #136]	; (800253c <dispatch+0x98>)
 80024b4:	6833      	ldr	r3, [r6, #0]
 80024b6:	683a      	ldr	r2, [r7, #0]
 80024b8:	4293      	cmp	r3, r2
 80024ba:	dc0c      	bgt.n	80024d6 <dispatch+0x32>
 80024bc:	f04f 0c14 	mov.w	ip, #20
 80024c0:	fb0c f103 	mul.w	r1, ip, r3
 80024c4:	1860      	adds	r0, r4, r1
 80024c6:	7902      	ldrb	r2, [r0, #4]
 80024c8:	f002 0efb 	and.w	lr, r2, #251	; 0xfb
 80024cc:	f1be 0f42 	cmp.w	lr, #66	; 0x42
 80024d0:	d106      	bne.n	80024e0 <dispatch+0x3c>
 80024d2:	f7ff fe9d 	bl	8002210 <driveRobot>
 80024d6:	4b1a      	ldr	r3, [pc, #104]	; (8002540 <dispatch+0x9c>)
 80024d8:	6818      	ldr	r0, [r3, #0]
 80024da:	f002 fc0e 	bl	8004cfa <osDelay>
 80024de:	e7e4      	b.n	80024aa <dispatch+0x6>
 80024e0:	2a4c      	cmp	r2, #76	; 0x4c
 80024e2:	d001      	beq.n	80024e8 <dispatch+0x44>
 80024e4:	2a52      	cmp	r2, #82	; 0x52
 80024e6:	d104      	bne.n	80024f2 <dispatch+0x4e>
 80024e8:	fb0c 4003 	mla	r0, ip, r3, r4
 80024ec:	f7ff ff26 	bl	800233c <turnRobot>
 80024f0:	e7f1      	b.n	80024d6 <dispatch+0x32>
 80024f2:	2a53      	cmp	r2, #83	; 0x53
 80024f4:	d102      	bne.n	80024fc <dispatch+0x58>
 80024f6:	f7ff fe31 	bl	800215c <stopRobot>
 80024fa:	e7ec      	b.n	80024d6 <dispatch+0x32>
 80024fc:	2a4a      	cmp	r2, #74	; 0x4a
 80024fe:	d110      	bne.n	8002522 <dispatch+0x7e>
 8002500:	3106      	adds	r1, #6
 8002502:	2204      	movs	r2, #4
 8002504:	4421      	add	r1, r4
 8002506:	4668      	mov	r0, sp
 8002508:	f004 fa78 	bl	80069fc <strncpy>
 800250c:	4668      	mov	r0, sp
 800250e:	f004 fa09 	bl	8006924 <atoi>
 8002512:	f5b0 7f7a 	cmp.w	r0, #1000	; 0x3e8
 8002516:	d2de      	bcs.n	80024d6 <dispatch+0x32>
 8002518:	683b      	ldr	r3, [r7, #0]
 800251a:	4283      	cmp	r3, r0
 800251c:	dbdb      	blt.n	80024d6 <dispatch+0x32>
 800251e:	6030      	str	r0, [r6, #0]
 8002520:	e7d9      	b.n	80024d6 <dispatch+0x32>
 8002522:	2a43      	cmp	r2, #67	; 0x43
 8002524:	bf0b      	itete	eq
 8002526:	2302      	moveq	r3, #2
 8002528:	3301      	addne	r3, #1
 800252a:	702b      	strbeq	r3, [r5, #0]
 800252c:	6033      	strne	r3, [r6, #0]
 800252e:	e7d2      	b.n	80024d6 <dispatch+0x32>
 8002530:	20004da4 	.word	0x20004da4
 8002534:	20004dbc 	.word	0x20004dbc
 8002538:	20004c70 	.word	0x20004c70
 800253c:	200049a8 	.word	0x200049a8
 8002540:	20004c88 	.word	0x20004c88

08002544 <HAL_MspInit>:
 8002544:	b082      	sub	sp, #8
 8002546:	4b0e      	ldr	r3, [pc, #56]	; (8002580 <HAL_MspInit+0x3c>)
 8002548:	2200      	movs	r2, #0
 800254a:	9200      	str	r2, [sp, #0]
 800254c:	6c59      	ldr	r1, [r3, #68]	; 0x44
 800254e:	f441 4180 	orr.w	r1, r1, #16384	; 0x4000
 8002552:	6459      	str	r1, [r3, #68]	; 0x44
 8002554:	6c59      	ldr	r1, [r3, #68]	; 0x44
 8002556:	f401 4180 	and.w	r1, r1, #16384	; 0x4000
 800255a:	9100      	str	r1, [sp, #0]
 800255c:	9900      	ldr	r1, [sp, #0]
 800255e:	9201      	str	r2, [sp, #4]
 8002560:	6c19      	ldr	r1, [r3, #64]	; 0x40
 8002562:	f041 5180 	orr.w	r1, r1, #268435456	; 0x10000000
 8002566:	6419      	str	r1, [r3, #64]	; 0x40
 8002568:	6c1b      	ldr	r3, [r3, #64]	; 0x40
 800256a:	f003 5380 	and.w	r3, r3, #268435456	; 0x10000000
 800256e:	9301      	str	r3, [sp, #4]
 8002570:	9b01      	ldr	r3, [sp, #4]
 8002572:	210f      	movs	r1, #15
 8002574:	f06f 0001 	mvn.w	r0, #1
 8002578:	b002      	add	sp, #8
 800257a:	f000 bcd1 	b.w	8002f20 <HAL_NVIC_SetPriority>
 800257e:	bf00      	nop
 8002580:	40023800 	.word	0x40023800

08002584 <HAL_ADC_MspInit>:
 8002584:	b510      	push	{r4, lr}
 8002586:	2214      	movs	r2, #20
 8002588:	b08a      	sub	sp, #40	; 0x28
 800258a:	4604      	mov	r4, r0
 800258c:	2100      	movs	r1, #0
 800258e:	eb0d 0002 	add.w	r0, sp, r2
 8002592:	f004 fa03 	bl	800699c <memset>
 8002596:	6823      	ldr	r3, [r4, #0]
 8002598:	4a1f      	ldr	r2, [pc, #124]	; (8002618 <HAL_ADC_MspInit+0x94>)
 800259a:	4293      	cmp	r3, r2
 800259c:	d120      	bne.n	80025e0 <HAL_ADC_MspInit+0x5c>
 800259e:	4b1f      	ldr	r3, [pc, #124]	; (800261c <HAL_ADC_MspInit+0x98>)
 80025a0:	2200      	movs	r2, #0
 80025a2:	9201      	str	r2, [sp, #4]
 80025a4:	6c59      	ldr	r1, [r3, #68]	; 0x44
 80025a6:	f441 7180 	orr.w	r1, r1, #256	; 0x100
 80025aa:	6459      	str	r1, [r3, #68]	; 0x44
 80025ac:	6c59      	ldr	r1, [r3, #68]	; 0x44
 80025ae:	f401 7180 	and.w	r1, r1, #256	; 0x100
 80025b2:	9101      	str	r1, [sp, #4]
 80025b4:	9901      	ldr	r1, [sp, #4]
 80025b6:	9202      	str	r2, [sp, #8]
 80025b8:	6b19      	ldr	r1, [r3, #48]	; 0x30
 80025ba:	f041 0104 	orr.w	r1, r1, #4
 80025be:	6319      	str	r1, [r3, #48]	; 0x30
 80025c0:	6b1b      	ldr	r3, [r3, #48]	; 0x30
 80025c2:	f003 0304 	and.w	r3, r3, #4
 80025c6:	9302      	str	r3, [sp, #8]
 80025c8:	9b02      	ldr	r3, [sp, #8]
 80025ca:	2301      	movs	r3, #1
 80025cc:	9305      	str	r3, [sp, #20]
 80025ce:	4814      	ldr	r0, [pc, #80]	; (8002620 <HAL_ADC_MspInit+0x9c>)
 80025d0:	2303      	movs	r3, #3
 80025d2:	a905      	add	r1, sp, #20
 80025d4:	e9cd 3206 	strd	r3, r2, [sp, #24]
 80025d8:	f000 fd4e 	bl	8003078 <HAL_GPIO_Init>
 80025dc:	b00a      	add	sp, #40	; 0x28
 80025de:	bd10      	pop	{r4, pc}
 80025e0:	4a10      	ldr	r2, [pc, #64]	; (8002624 <HAL_ADC_MspInit+0xa0>)
 80025e2:	4293      	cmp	r3, r2
 80025e4:	d1fa      	bne.n	80025dc <HAL_ADC_MspInit+0x58>
 80025e6:	4b0d      	ldr	r3, [pc, #52]	; (800261c <HAL_ADC_MspInit+0x98>)
 80025e8:	2200      	movs	r2, #0
 80025ea:	9203      	str	r2, [sp, #12]
 80025ec:	6c59      	ldr	r1, [r3, #68]	; 0x44
 80025ee:	f441 7100 	orr.w	r1, r1, #512	; 0x200
 80025f2:	6459      	str	r1, [r3, #68]	; 0x44
 80025f4:	6c59      	ldr	r1, [r3, #68]	; 0x44
 80025f6:	f401 7100 	and.w	r1, r1, #512	; 0x200
 80025fa:	9103      	str	r1, [sp, #12]
 80025fc:	9903      	ldr	r1, [sp, #12]
 80025fe:	9204      	str	r2, [sp, #16]
 8002600:	6b19      	ldr	r1, [r3, #48]	; 0x30
 8002602:	f041 0104 	orr.w	r1, r1, #4
 8002606:	6319      	str	r1, [r3, #48]	; 0x30
 8002608:	6b1b      	ldr	r3, [r3, #48]	; 0x30
 800260a:	f003 0304 	and.w	r3, r3, #4
 800260e:	9304      	str	r3, [sp, #16]
 8002610:	9b04      	ldr	r3, [sp, #16]
 8002612:	2310      	movs	r3, #16
 8002614:	e7da      	b.n	80025cc <HAL_ADC_MspInit+0x48>
 8002616:	bf00      	nop
 8002618:	40012000 	.word	0x40012000
 800261c:	40023800 	.word	0x40023800
 8002620:	40020800 	.word	0x40020800
 8002624:	40012100 	.word	0x40012100

08002628 <HAL_TIM_PWM_MspInit>:
 8002628:	6802      	ldr	r2, [r0, #0]
 800262a:	4b09      	ldr	r3, [pc, #36]	; (8002650 <HAL_TIM_PWM_MspInit+0x28>)
 800262c:	429a      	cmp	r2, r3
 800262e:	b082      	sub	sp, #8
 8002630:	d10b      	bne.n	800264a <HAL_TIM_PWM_MspInit+0x22>
 8002632:	2300      	movs	r3, #0
 8002634:	9301      	str	r3, [sp, #4]
 8002636:	4b07      	ldr	r3, [pc, #28]	; (8002654 <HAL_TIM_PWM_MspInit+0x2c>)
 8002638:	6c5a      	ldr	r2, [r3, #68]	; 0x44
 800263a:	f042 0201 	orr.w	r2, r2, #1
 800263e:	645a      	str	r2, [r3, #68]	; 0x44
 8002640:	6c5b      	ldr	r3, [r3, #68]	; 0x44
 8002642:	f003 0301 	and.w	r3, r3, #1
 8002646:	9301      	str	r3, [sp, #4]
 8002648:	9b01      	ldr	r3, [sp, #4]
 800264a:	b002      	add	sp, #8
 800264c:	4770      	bx	lr
 800264e:	bf00      	nop
 8002650:	40010000 	.word	0x40010000
 8002654:	40023800 	.word	0x40023800

08002658 <HAL_TIM_Encoder_MspInit>:
 8002658:	b570      	push	{r4, r5, r6, lr}
 800265a:	2214      	movs	r2, #20
 800265c:	b08a      	sub	sp, #40	; 0x28
 800265e:	4604      	mov	r4, r0
 8002660:	2100      	movs	r1, #0
 8002662:	eb0d 0002 	add.w	r0, sp, r2
 8002666:	f004 f999 	bl	800699c <memset>
 800266a:	6823      	ldr	r3, [r4, #0]
 800266c:	f1b3 4f80 	cmp.w	r3, #1073741824	; 0x40000000
 8002670:	d139      	bne.n	80026e6 <HAL_TIM_Encoder_MspInit+0x8e>
 8002672:	f503 330e 	add.w	r3, r3, #145408	; 0x23800
 8002676:	2400      	movs	r4, #0
 8002678:	9400      	str	r4, [sp, #0]
 800267a:	6c1a      	ldr	r2, [r3, #64]	; 0x40
 800267c:	482b      	ldr	r0, [pc, #172]	; (800272c <HAL_TIM_Encoder_MspInit+0xd4>)
 800267e:	f042 0201 	orr.w	r2, r2, #1
 8002682:	641a      	str	r2, [r3, #64]	; 0x40
 8002684:	6c1a      	ldr	r2, [r3, #64]	; 0x40
 8002686:	f002 0201 	and.w	r2, r2, #1
 800268a:	9200      	str	r2, [sp, #0]
 800268c:	9a00      	ldr	r2, [sp, #0]
 800268e:	9401      	str	r4, [sp, #4]
 8002690:	6b1a      	ldr	r2, [r3, #48]	; 0x30
 8002692:	f042 0201 	orr.w	r2, r2, #1
 8002696:	631a      	str	r2, [r3, #48]	; 0x30
 8002698:	6b1a      	ldr	r2, [r3, #48]	; 0x30
 800269a:	f002 0201 	and.w	r2, r2, #1
 800269e:	9201      	str	r2, [sp, #4]
 80026a0:	9a01      	ldr	r2, [sp, #4]
 80026a2:	9402      	str	r4, [sp, #8]
 80026a4:	6b1a      	ldr	r2, [r3, #48]	; 0x30
 80026a6:	f042 0202 	orr.w	r2, r2, #2
 80026aa:	631a      	str	r2, [r3, #48]	; 0x30
 80026ac:	6b1b      	ldr	r3, [r3, #48]	; 0x30
 80026ae:	f003 0302 	and.w	r3, r3, #2
 80026b2:	9302      	str	r3, [sp, #8]
 80026b4:	9b02      	ldr	r3, [sp, #8]
 80026b6:	2602      	movs	r6, #2
 80026b8:	f44f 4300 	mov.w	r3, #32768	; 0x8000
 80026bc:	2501      	movs	r5, #1
 80026be:	a905      	add	r1, sp, #20
 80026c0:	e9cd 3605 	strd	r3, r6, [sp, #20]
 80026c4:	e9cd 4407 	strd	r4, r4, [sp, #28]
 80026c8:	9509      	str	r5, [sp, #36]	; 0x24
 80026ca:	f000 fcd5 	bl	8003078 <HAL_GPIO_Init>
 80026ce:	2308      	movs	r3, #8
 80026d0:	e9cd 3605 	strd	r3, r6, [sp, #20]
 80026d4:	e9cd 4407 	strd	r4, r4, [sp, #28]
 80026d8:	4815      	ldr	r0, [pc, #84]	; (8002730 <HAL_TIM_Encoder_MspInit+0xd8>)
 80026da:	9509      	str	r5, [sp, #36]	; 0x24
 80026dc:	a905      	add	r1, sp, #20
 80026de:	f000 fccb 	bl	8003078 <HAL_GPIO_Init>
 80026e2:	b00a      	add	sp, #40	; 0x28
 80026e4:	bd70      	pop	{r4, r5, r6, pc}
 80026e6:	4a13      	ldr	r2, [pc, #76]	; (8002734 <HAL_TIM_Encoder_MspInit+0xdc>)
 80026e8:	4293      	cmp	r3, r2
 80026ea:	d1fa      	bne.n	80026e2 <HAL_TIM_Encoder_MspInit+0x8a>
 80026ec:	4b12      	ldr	r3, [pc, #72]	; (8002738 <HAL_TIM_Encoder_MspInit+0xe0>)
 80026ee:	480f      	ldr	r0, [pc, #60]	; (800272c <HAL_TIM_Encoder_MspInit+0xd4>)
 80026f0:	2200      	movs	r2, #0
 80026f2:	9203      	str	r2, [sp, #12]
 80026f4:	6c19      	ldr	r1, [r3, #64]	; 0x40
 80026f6:	f041 0102 	orr.w	r1, r1, #2
 80026fa:	6419      	str	r1, [r3, #64]	; 0x40
 80026fc:	6c19      	ldr	r1, [r3, #64]	; 0x40
 80026fe:	f001 0102 	and.w	r1, r1, #2
 8002702:	9103      	str	r1, [sp, #12]
 8002704:	9903      	ldr	r1, [sp, #12]
 8002706:	9204      	str	r2, [sp, #16]
 8002708:	6b19      	ldr	r1, [r3, #48]	; 0x30
 800270a:	f041 0101 	orr.w	r1, r1, #1
 800270e:	6319      	str	r1, [r3, #48]	; 0x30
 8002710:	6b1b      	ldr	r3, [r3, #48]	; 0x30
 8002712:	f003 0301 	and.w	r3, r3, #1
 8002716:	9304      	str	r3, [sp, #16]
 8002718:	21c0      	movs	r1, #192	; 0xc0
 800271a:	9b04      	ldr	r3, [sp, #16]
 800271c:	2302      	movs	r3, #2
 800271e:	e9cd 1305 	strd	r1, r3, [sp, #20]
 8002722:	e9cd 2207 	strd	r2, r2, [sp, #28]
 8002726:	9309      	str	r3, [sp, #36]	; 0x24
 8002728:	a905      	add	r1, sp, #20
 800272a:	e7d8      	b.n	80026de <HAL_TIM_Encoder_MspInit+0x86>
 800272c:	40020000 	.word	0x40020000
 8002730:	40020400 	.word	0x40020400
 8002734:	40000400 	.word	0x40000400
 8002738:	40023800 	.word	0x40023800

0800273c <HAL_TIM_IC_MspInit>:
 800273c:	b510      	push	{r4, lr}
 800273e:	4604      	mov	r4, r0
 8002740:	b088      	sub	sp, #32
 8002742:	2214      	movs	r2, #20
 8002744:	2100      	movs	r1, #0
 8002746:	a803      	add	r0, sp, #12
 8002748:	f004 f928 	bl	800699c <memset>
 800274c:	6822      	ldr	r2, [r4, #0]
 800274e:	4b18      	ldr	r3, [pc, #96]	; (80027b0 <HAL_TIM_IC_MspInit+0x74>)
 8002750:	429a      	cmp	r2, r3
 8002752:	d12a      	bne.n	80027aa <HAL_TIM_IC_MspInit+0x6e>
 8002754:	f503 330c 	add.w	r3, r3, #143360	; 0x23000
 8002758:	2400      	movs	r4, #0
 800275a:	9401      	str	r4, [sp, #4]
 800275c:	6c1a      	ldr	r2, [r3, #64]	; 0x40
 800275e:	4815      	ldr	r0, [pc, #84]	; (80027b4 <HAL_TIM_IC_MspInit+0x78>)
 8002760:	f042 0204 	orr.w	r2, r2, #4
 8002764:	641a      	str	r2, [r3, #64]	; 0x40
 8002766:	6c1a      	ldr	r2, [r3, #64]	; 0x40
 8002768:	f002 0204 	and.w	r2, r2, #4
 800276c:	9201      	str	r2, [sp, #4]
 800276e:	9a01      	ldr	r2, [sp, #4]
 8002770:	9402      	str	r4, [sp, #8]
 8002772:	6b1a      	ldr	r2, [r3, #48]	; 0x30
 8002774:	f042 0208 	orr.w	r2, r2, #8
 8002778:	631a      	str	r2, [r3, #48]	; 0x30
 800277a:	6b1b      	ldr	r3, [r3, #48]	; 0x30
 800277c:	f003 0308 	and.w	r3, r3, #8
 8002780:	9302      	str	r3, [sp, #8]
 8002782:	f44f 4280 	mov.w	r2, #16384	; 0x4000
 8002786:	9b02      	ldr	r3, [sp, #8]
 8002788:	a903      	add	r1, sp, #12
 800278a:	2302      	movs	r3, #2
 800278c:	e9cd 2303 	strd	r2, r3, [sp, #12]
 8002790:	9307      	str	r3, [sp, #28]
 8002792:	e9cd 4405 	strd	r4, r4, [sp, #20]
 8002796:	f000 fc6f 	bl	8003078 <HAL_GPIO_Init>
 800279a:	201e      	movs	r0, #30
 800279c:	4622      	mov	r2, r4
 800279e:	2105      	movs	r1, #5
 80027a0:	f000 fbbe 	bl	8002f20 <HAL_NVIC_SetPriority>
 80027a4:	201e      	movs	r0, #30
 80027a6:	f000 fbed 	bl	8002f84 <HAL_NVIC_EnableIRQ>
 80027aa:	b008      	add	sp, #32
 80027ac:	bd10      	pop	{r4, pc}
 80027ae:	bf00      	nop
 80027b0:	40000800 	.word	0x40000800
 80027b4:	40020c00 	.word	0x40020c00

080027b8 <HAL_TIM_Base_MspInit>:
 80027b8:	b510      	push	{r4, lr}
 80027ba:	4604      	mov	r4, r0
 80027bc:	b088      	sub	sp, #32
 80027be:	2214      	movs	r2, #20
 80027c0:	2100      	movs	r1, #0
 80027c2:	a803      	add	r0, sp, #12
 80027c4:	f004 f8ea 	bl	800699c <memset>
 80027c8:	6823      	ldr	r3, [r4, #0]
 80027ca:	4a1b      	ldr	r2, [pc, #108]	; (8002838 <HAL_TIM_Base_MspInit+0x80>)
 80027cc:	4293      	cmp	r3, r2
 80027ce:	d10d      	bne.n	80027ec <HAL_TIM_Base_MspInit+0x34>
 80027d0:	2300      	movs	r3, #0
 80027d2:	9300      	str	r3, [sp, #0]
 80027d4:	4b19      	ldr	r3, [pc, #100]	; (800283c <HAL_TIM_Base_MspInit+0x84>)
 80027d6:	6c1a      	ldr	r2, [r3, #64]	; 0x40
 80027d8:	f042 0208 	orr.w	r2, r2, #8
 80027dc:	641a      	str	r2, [r3, #64]	; 0x40
 80027de:	6c1b      	ldr	r3, [r3, #64]	; 0x40
 80027e0:	f003 0308 	and.w	r3, r3, #8
 80027e4:	9300      	str	r3, [sp, #0]
 80027e6:	9b00      	ldr	r3, [sp, #0]
 80027e8:	b008      	add	sp, #32
 80027ea:	bd10      	pop	{r4, pc}
 80027ec:	4a14      	ldr	r2, [pc, #80]	; (8002840 <HAL_TIM_Base_MspInit+0x88>)
 80027ee:	4293      	cmp	r3, r2
 80027f0:	d1fa      	bne.n	80027e8 <HAL_TIM_Base_MspInit+0x30>
 80027f2:	4b12      	ldr	r3, [pc, #72]	; (800283c <HAL_TIM_Base_MspInit+0x84>)
 80027f4:	4813      	ldr	r0, [pc, #76]	; (8002844 <HAL_TIM_Base_MspInit+0x8c>)
 80027f6:	2200      	movs	r2, #0
 80027f8:	9201      	str	r2, [sp, #4]
 80027fa:	6c59      	ldr	r1, [r3, #68]	; 0x44
 80027fc:	f041 0102 	orr.w	r1, r1, #2
 8002800:	6459      	str	r1, [r3, #68]	; 0x44
 8002802:	6c59      	ldr	r1, [r3, #68]	; 0x44
 8002804:	f001 0102 	and.w	r1, r1, #2
 8002808:	9101      	str	r1, [sp, #4]
 800280a:	9901      	ldr	r1, [sp, #4]
 800280c:	9202      	str	r2, [sp, #8]
 800280e:	6b19      	ldr	r1, [r3, #48]	; 0x30
 8002810:	f041 0104 	orr.w	r1, r1, #4
 8002814:	6319      	str	r1, [r3, #48]	; 0x30
 8002816:	6b1b      	ldr	r3, [r3, #48]	; 0x30
 8002818:	f003 0304 	and.w	r3, r3, #4
 800281c:	9302      	str	r3, [sp, #8]
 800281e:	9b02      	ldr	r3, [sp, #8]
 8002820:	21c0      	movs	r1, #192	; 0xc0
 8002822:	2302      	movs	r3, #2
 8002824:	e9cd 1303 	strd	r1, r3, [sp, #12]
 8002828:	2303      	movs	r3, #3
 800282a:	a903      	add	r1, sp, #12
 800282c:	e9cd 2205 	strd	r2, r2, [sp, #20]
 8002830:	9307      	str	r3, [sp, #28]
 8002832:	f000 fc21 	bl	8003078 <HAL_GPIO_Init>
 8002836:	e7d7      	b.n	80027e8 <HAL_TIM_Base_MspInit+0x30>
 8002838:	40000c00 	.word	0x40000c00
 800283c:	40023800 	.word	0x40023800
 8002840:	40010400 	.word	0x40010400
 8002844:	40020800 	.word	0x40020800

08002848 <HAL_TIM_MspPostInit>:
 8002848:	b510      	push	{r4, lr}
 800284a:	4604      	mov	r4, r0
 800284c:	b086      	sub	sp, #24
 800284e:	2214      	movs	r2, #20
 8002850:	2100      	movs	r1, #0
 8002852:	a801      	add	r0, sp, #4
 8002854:	f004 f8a2 	bl	800699c <memset>
 8002858:	6822      	ldr	r2, [r4, #0]
 800285a:	4b0f      	ldr	r3, [pc, #60]	; (8002898 <HAL_TIM_MspPostInit+0x50>)
 800285c:	429a      	cmp	r2, r3
 800285e:	d118      	bne.n	8002892 <HAL_TIM_MspPostInit+0x4a>
 8002860:	4a0e      	ldr	r2, [pc, #56]	; (800289c <HAL_TIM_MspPostInit+0x54>)
 8002862:	480f      	ldr	r0, [pc, #60]	; (80028a0 <HAL_TIM_MspPostInit+0x58>)
 8002864:	2300      	movs	r3, #0
 8002866:	9300      	str	r3, [sp, #0]
 8002868:	6b11      	ldr	r1, [r2, #48]	; 0x30
 800286a:	f041 0110 	orr.w	r1, r1, #16
 800286e:	6311      	str	r1, [r2, #48]	; 0x30
 8002870:	6b12      	ldr	r2, [r2, #48]	; 0x30
 8002872:	f002 0210 	and.w	r2, r2, #16
 8002876:	9200      	str	r2, [sp, #0]
 8002878:	f44f 4180 	mov.w	r1, #16384	; 0x4000
 800287c:	9a00      	ldr	r2, [sp, #0]
 800287e:	2202      	movs	r2, #2
 8002880:	e9cd 1201 	strd	r1, r2, [sp, #4]
 8002884:	e9cd 3303 	strd	r3, r3, [sp, #12]
 8002888:	a901      	add	r1, sp, #4
 800288a:	2301      	movs	r3, #1
 800288c:	9305      	str	r3, [sp, #20]
 800288e:	f000 fbf3 	bl	8003078 <HAL_GPIO_Init>
 8002892:	b006      	add	sp, #24
 8002894:	bd10      	pop	{r4, pc}
 8002896:	bf00      	nop
 8002898:	40010000 	.word	0x40010000
 800289c:	40023800 	.word	0x40023800
 80028a0:	40021000 	.word	0x40021000

080028a4 <HAL_UART_MspInit>:
 80028a4:	b510      	push	{r4, lr}
 80028a6:	4604      	mov	r4, r0
 80028a8:	b088      	sub	sp, #32
 80028aa:	2214      	movs	r2, #20
 80028ac:	2100      	movs	r1, #0
 80028ae:	a803      	add	r0, sp, #12
 80028b0:	f004 f874 	bl	800699c <memset>
 80028b4:	6822      	ldr	r2, [r4, #0]
 80028b6:	4b19      	ldr	r3, [pc, #100]	; (800291c <HAL_UART_MspInit+0x78>)
 80028b8:	429a      	cmp	r2, r3
 80028ba:	d12c      	bne.n	8002916 <HAL_UART_MspInit+0x72>
 80028bc:	f503 33f8 	add.w	r3, r3, #126976	; 0x1f000
 80028c0:	2400      	movs	r4, #0
 80028c2:	9401      	str	r4, [sp, #4]
 80028c4:	6c1a      	ldr	r2, [r3, #64]	; 0x40
 80028c6:	4816      	ldr	r0, [pc, #88]	; (8002920 <HAL_UART_MspInit+0x7c>)
 80028c8:	f442 2280 	orr.w	r2, r2, #262144	; 0x40000
 80028cc:	641a      	str	r2, [r3, #64]	; 0x40
 80028ce:	6c1a      	ldr	r2, [r3, #64]	; 0x40
 80028d0:	f402 2280 	and.w	r2, r2, #262144	; 0x40000
 80028d4:	9201      	str	r2, [sp, #4]
 80028d6:	9a01      	ldr	r2, [sp, #4]
 80028d8:	9402      	str	r4, [sp, #8]
 80028da:	6b1a      	ldr	r2, [r3, #48]	; 0x30
 80028dc:	f042 0204 	orr.w	r2, r2, #4
 80028e0:	631a      	str	r2, [r3, #48]	; 0x30
 80028e2:	6b1b      	ldr	r3, [r3, #48]	; 0x30
 80028e4:	9405      	str	r4, [sp, #20]
 80028e6:	f003 0304 	and.w	r3, r3, #4
 80028ea:	9302      	str	r3, [sp, #8]
 80028ec:	f44f 6240 	mov.w	r2, #3072	; 0xc00
 80028f0:	9b02      	ldr	r3, [sp, #8]
 80028f2:	2302      	movs	r3, #2
 80028f4:	e9cd 2303 	strd	r2, r3, [sp, #12]
 80028f8:	2103      	movs	r1, #3
 80028fa:	2307      	movs	r3, #7
 80028fc:	e9cd 1306 	strd	r1, r3, [sp, #24]
 8002900:	a903      	add	r1, sp, #12
 8002902:	f000 fbb9 	bl	8003078 <HAL_GPIO_Init>
 8002906:	2027      	movs	r0, #39	; 0x27
 8002908:	4622      	mov	r2, r4
 800290a:	2105      	movs	r1, #5
 800290c:	f000 fb08 	bl	8002f20 <HAL_NVIC_SetPriority>
 8002910:	2027      	movs	r0, #39	; 0x27
 8002912:	f000 fb37 	bl	8002f84 <HAL_NVIC_EnableIRQ>
 8002916:	b008      	add	sp, #32
 8002918:	bd10      	pop	{r4, pc}
 800291a:	bf00      	nop
 800291c:	40004800 	.word	0x40004800
 8002920:	40020800 	.word	0x40020800

08002924 <NMI_Handler>:
 8002924:	e7fe      	b.n	8002924 <NMI_Handler>

08002926 <HardFault_Handler>:
 8002926:	e7fe      	b.n	8002926 <HardFault_Handler>

08002928 <MemManage_Handler>:
 8002928:	e7fe      	b.n	8002928 <MemManage_Handler>

0800292a <BusFault_Handler>:
 800292a:	e7fe      	b.n	800292a <BusFault_Handler>

0800292c <UsageFault_Handler>:
 800292c:	e7fe      	b.n	800292c <UsageFault_Handler>

0800292e <DebugMon_Handler>:
 800292e:	4770      	bx	lr

08002930 <SysTick_Handler>:
 8002930:	b508      	push	{r3, lr}
 8002932:	f000 f8ab 	bl	8002a8c <HAL_IncTick>
 8002936:	f003 f9a1 	bl	8005c7c <xTaskGetSchedulerState>
 800293a:	2801      	cmp	r0, #1
 800293c:	d003      	beq.n	8002946 <SysTick_Handler+0x16>
 800293e:	e8bd 4008 	ldmia.w	sp!, {r3, lr}
 8002942:	f003 bca7 	b.w	8006294 <xPortSysTickHandler>
 8002946:	bd08      	pop	{r3, pc}

08002948 <EXTI9_5_IRQHandler>:
 8002948:	f44f 7080 	mov.w	r0, #256	; 0x100
 800294c:	f000 bc7c 	b.w	8003248 <HAL_GPIO_EXTI_IRQHandler>

08002950 <TIM4_IRQHandler>:
 8002950:	4801      	ldr	r0, [pc, #4]	; (8002958 <TIM4_IRQHandler+0x8>)
 8002952:	f001 b870 	b.w	8003a36 <HAL_TIM_IRQHandler>
 8002956:	bf00      	nop
 8002958:	20004a38 	.word	0x20004a38

0800295c <USART3_IRQHandler>:
 800295c:	4801      	ldr	r0, [pc, #4]	; (8002964 <USART3_IRQHandler+0x8>)
 800295e:	f001 bfdd 	b.w	800491c <HAL_UART_IRQHandler>
 8002962:	bf00      	nop
 8002964:	20004a8c 	.word	0x20004a8c

08002968 <_sbrk>:
 8002968:	4b0b      	ldr	r3, [pc, #44]	; (8002998 <_sbrk+0x30>)
 800296a:	6819      	ldr	r1, [r3, #0]
 800296c:	b510      	push	{r4, lr}
 800296e:	4602      	mov	r2, r0
 8002970:	b909      	cbnz	r1, 8002976 <_sbrk+0xe>
 8002972:	490a      	ldr	r1, [pc, #40]	; (800299c <_sbrk+0x34>)
 8002974:	6019      	str	r1, [r3, #0]
 8002976:	6818      	ldr	r0, [r3, #0]
 8002978:	4909      	ldr	r1, [pc, #36]	; (80029a0 <_sbrk+0x38>)
 800297a:	4c0a      	ldr	r4, [pc, #40]	; (80029a4 <_sbrk+0x3c>)
 800297c:	4402      	add	r2, r0
 800297e:	1b09      	subs	r1, r1, r4
 8002980:	428a      	cmp	r2, r1
 8002982:	d906      	bls.n	8002992 <_sbrk+0x2a>
 8002984:	f003 ffd2 	bl	800692c <__errno>
 8002988:	230c      	movs	r3, #12
 800298a:	6003      	str	r3, [r0, #0]
 800298c:	f04f 30ff 	mov.w	r0, #4294967295
 8002990:	bd10      	pop	{r4, pc}
 8002992:	601a      	str	r2, [r3, #0]
 8002994:	e7fc      	b.n	8002990 <_sbrk+0x28>
 8002996:	bf00      	nop
 8002998:	20000090 	.word	0x20000090
 800299c:	2000a048 	.word	0x2000a048
 80029a0:	20020000 	.word	0x20020000
 80029a4:	00000400 	.word	0x00000400

080029a8 <SystemInit>:
 80029a8:	4a03      	ldr	r2, [pc, #12]	; (80029b8 <SystemInit+0x10>)
 80029aa:	f8d2 3088 	ldr.w	r3, [r2, #136]	; 0x88
 80029ae:	f443 0370 	orr.w	r3, r3, #15728640	; 0xf00000
 80029b2:	f8c2 3088 	str.w	r3, [r2, #136]	; 0x88
 80029b6:	4770      	bx	lr
 80029b8:	e000ed00 	.word	0xe000ed00

080029bc <Reset_Handler>:
 80029bc:	f8df d034 	ldr.w	sp, [pc, #52]	; 80029f4 <LoopFillZerobss+0x12>
 80029c0:	480d      	ldr	r0, [pc, #52]	; (80029f8 <LoopFillZerobss+0x16>)
 80029c2:	490e      	ldr	r1, [pc, #56]	; (80029fc <LoopFillZerobss+0x1a>)
 80029c4:	4a0e      	ldr	r2, [pc, #56]	; (8002a00 <LoopFillZerobss+0x1e>)
 80029c6:	2300      	movs	r3, #0
 80029c8:	e002      	b.n	80029d0 <LoopCopyDataInit>

080029ca <CopyDataInit>:
 80029ca:	58d4      	ldr	r4, [r2, r3]
 80029cc:	50c4      	str	r4, [r0, r3]
 80029ce:	3304      	adds	r3, #4

080029d0 <LoopCopyDataInit>:
 80029d0:	18c4      	adds	r4, r0, r3
 80029d2:	428c      	cmp	r4, r1
 80029d4:	d3f9      	bcc.n	80029ca <CopyDataInit>
 80029d6:	4a0b      	ldr	r2, [pc, #44]	; (8002a04 <LoopFillZerobss+0x22>)
 80029d8:	4c0b      	ldr	r4, [pc, #44]	; (8002a08 <LoopFillZerobss+0x26>)
 80029da:	2300      	movs	r3, #0
 80029dc:	e001      	b.n	80029e2 <LoopFillZerobss>

080029de <FillZerobss>:
 80029de:	6013      	str	r3, [r2, #0]
 80029e0:	3204      	adds	r2, #4

080029e2 <LoopFillZerobss>:
 80029e2:	42a2      	cmp	r2, r4
 80029e4:	d3fb      	bcc.n	80029de <FillZerobss>
 80029e6:	f7ff ffdf 	bl	80029a8 <SystemInit>
 80029ea:	f003 ffa5 	bl	8006938 <__libc_init_array>
 80029ee:	f7fe ff97 	bl	8001920 <main>
 80029f2:	4770      	bx	lr
 80029f4:	20020000 	.word	0x20020000
 80029f8:	20000000 	.word	0x20000000
 80029fc:	20000074 	.word	0x20000074
 8002a00:	080081ac 	.word	0x080081ac
 8002a04:	20000074 	.word	0x20000074
 8002a08:	2000a044 	.word	0x2000a044

08002a0c <ADC_IRQHandler>:
 8002a0c:	e7fe      	b.n	8002a0c <ADC_IRQHandler>
	...

08002a10 <HAL_InitTick>:
 8002a10:	b538      	push	{r3, r4, r5, lr}
 8002a12:	4a0e      	ldr	r2, [pc, #56]	; (8002a4c <HAL_InitTick+0x3c>)
 8002a14:	4b0e      	ldr	r3, [pc, #56]	; (8002a50 <HAL_InitTick+0x40>)
 8002a16:	4605      	mov	r5, r0
 8002a18:	7818      	ldrb	r0, [r3, #0]
 8002a1a:	f44f 737a 	mov.w	r3, #1000	; 0x3e8
 8002a1e:	fbb3 f3f0 	udiv	r3, r3, r0
 8002a22:	6810      	ldr	r0, [r2, #0]
 8002a24:	fbb0 f0f3 	udiv	r0, r0, r3
 8002a28:	f000 faba 	bl	8002fa0 <HAL_SYSTICK_Config>
 8002a2c:	4604      	mov	r4, r0
 8002a2e:	b958      	cbnz	r0, 8002a48 <HAL_InitTick+0x38>
 8002a30:	2d0f      	cmp	r5, #15
 8002a32:	d809      	bhi.n	8002a48 <HAL_InitTick+0x38>
 8002a34:	4602      	mov	r2, r0
 8002a36:	4629      	mov	r1, r5
 8002a38:	f04f 30ff 	mov.w	r0, #4294967295
 8002a3c:	f000 fa70 	bl	8002f20 <HAL_NVIC_SetPriority>
 8002a40:	4b04      	ldr	r3, [pc, #16]	; (8002a54 <HAL_InitTick+0x44>)
 8002a42:	4620      	mov	r0, r4
 8002a44:	601d      	str	r5, [r3, #0]
 8002a46:	bd38      	pop	{r3, r4, r5, pc}
 8002a48:	2001      	movs	r0, #1
 8002a4a:	e7fc      	b.n	8002a46 <HAL_InitTick+0x36>
 8002a4c:	20000000 	.word	0x20000000
 8002a50:	20000004 	.word	0x20000004
 8002a54:	20000008 	.word	0x20000008

08002a58 <HAL_Init>:
 8002a58:	b508      	push	{r3, lr}
 8002a5a:	4b0b      	ldr	r3, [pc, #44]	; (8002a88 <HAL_Init+0x30>)
 8002a5c:	681a      	ldr	r2, [r3, #0]
 8002a5e:	f442 7200 	orr.w	r2, r2, #512	; 0x200
 8002a62:	601a      	str	r2, [r3, #0]
 8002a64:	681a      	ldr	r2, [r3, #0]
 8002a66:	f442 6280 	orr.w	r2, r2, #1024	; 0x400
 8002a6a:	601a      	str	r2, [r3, #0]
 8002a6c:	681a      	ldr	r2, [r3, #0]
 8002a6e:	f442 7280 	orr.w	r2, r2, #256	; 0x100
 8002a72:	601a      	str	r2, [r3, #0]
 8002a74:	2003      	movs	r0, #3
 8002a76:	f000 fa41 	bl	8002efc <HAL_NVIC_SetPriorityGrouping>
 8002a7a:	200f      	movs	r0, #15
 8002a7c:	f7ff ffc8 	bl	8002a10 <HAL_InitTick>
 8002a80:	f7ff fd60 	bl	8002544 <HAL_MspInit>
 8002a84:	2000      	movs	r0, #0
 8002a86:	bd08      	pop	{r3, pc}
 8002a88:	40023c00 	.word	0x40023c00

08002a8c <HAL_IncTick>:
 8002a8c:	4a03      	ldr	r2, [pc, #12]	; (8002a9c <HAL_IncTick+0x10>)
 8002a8e:	4b04      	ldr	r3, [pc, #16]	; (8002aa0 <HAL_IncTick+0x14>)
 8002a90:	6811      	ldr	r1, [r2, #0]
 8002a92:	781b      	ldrb	r3, [r3, #0]
 8002a94:	440b      	add	r3, r1
 8002a96:	6013      	str	r3, [r2, #0]
 8002a98:	4770      	bx	lr
 8002a9a:	bf00      	nop
 8002a9c:	20009bf0 	.word	0x20009bf0
 8002aa0:	20000004 	.word	0x20000004

08002aa4 <HAL_GetTick>:
 8002aa4:	4b01      	ldr	r3, [pc, #4]	; (8002aac <HAL_GetTick+0x8>)
 8002aa6:	6818      	ldr	r0, [r3, #0]
 8002aa8:	4770      	bx	lr
 8002aaa:	bf00      	nop
 8002aac:	20009bf0 	.word	0x20009bf0

08002ab0 <HAL_Delay>:
 8002ab0:	b538      	push	{r3, r4, r5, lr}
 8002ab2:	4604      	mov	r4, r0
 8002ab4:	f7ff fff6 	bl	8002aa4 <HAL_GetTick>
 8002ab8:	1c63      	adds	r3, r4, #1
 8002aba:	bf1c      	itt	ne
 8002abc:	4b05      	ldrne	r3, [pc, #20]	; (8002ad4 <HAL_Delay+0x24>)
 8002abe:	781b      	ldrbne	r3, [r3, #0]
 8002ac0:	4605      	mov	r5, r0
 8002ac2:	bf18      	it	ne
 8002ac4:	18e4      	addne	r4, r4, r3
 8002ac6:	f7ff ffed 	bl	8002aa4 <HAL_GetTick>
 8002aca:	1b43      	subs	r3, r0, r5
 8002acc:	42a3      	cmp	r3, r4
 8002ace:	d3fa      	bcc.n	8002ac6 <HAL_Delay+0x16>
 8002ad0:	bd38      	pop	{r3, r4, r5, pc}
 8002ad2:	bf00      	nop
 8002ad4:	20000004 	.word	0x20000004

08002ad8 <HAL_ADC_Init>:
 8002ad8:	b538      	push	{r3, r4, r5, lr}
 8002ada:	4604      	mov	r4, r0
 8002adc:	2800      	cmp	r0, #0
 8002ade:	f000 809b 	beq.w	8002c18 <HAL_ADC_Init+0x140>
 8002ae2:	6c05      	ldr	r5, [r0, #64]	; 0x40
 8002ae4:	b925      	cbnz	r5, 8002af0 <HAL_ADC_Init+0x18>
 8002ae6:	f7ff fd4d 	bl	8002584 <HAL_ADC_MspInit>
 8002aea:	6465      	str	r5, [r4, #68]	; 0x44
 8002aec:	f884 503c 	strb.w	r5, [r4, #60]	; 0x3c
 8002af0:	6c23      	ldr	r3, [r4, #64]	; 0x40
 8002af2:	06db      	lsls	r3, r3, #27
 8002af4:	f100 808e 	bmi.w	8002c14 <HAL_ADC_Init+0x13c>
 8002af8:	6c23      	ldr	r3, [r4, #64]	; 0x40
 8002afa:	f423 5388 	bic.w	r3, r3, #4352	; 0x1100
 8002afe:	f023 0302 	bic.w	r3, r3, #2
 8002b02:	f043 0302 	orr.w	r3, r3, #2
 8002b06:	6423      	str	r3, [r4, #64]	; 0x40
 8002b08:	4b44      	ldr	r3, [pc, #272]	; (8002c1c <HAL_ADC_Init+0x144>)
 8002b0a:	685a      	ldr	r2, [r3, #4]
 8002b0c:	f422 3240 	bic.w	r2, r2, #196608	; 0x30000
 8002b10:	605a      	str	r2, [r3, #4]
 8002b12:	685a      	ldr	r2, [r3, #4]
 8002b14:	6861      	ldr	r1, [r4, #4]
 8002b16:	430a      	orrs	r2, r1
 8002b18:	605a      	str	r2, [r3, #4]
 8002b1a:	6823      	ldr	r3, [r4, #0]
 8002b1c:	6921      	ldr	r1, [r4, #16]
 8002b1e:	685a      	ldr	r2, [r3, #4]
 8002b20:	f422 7280 	bic.w	r2, r2, #256	; 0x100
 8002b24:	605a      	str	r2, [r3, #4]
 8002b26:	685a      	ldr	r2, [r3, #4]
 8002b28:	ea42 2201 	orr.w	r2, r2, r1, lsl #8
 8002b2c:	605a      	str	r2, [r3, #4]
 8002b2e:	685a      	ldr	r2, [r3, #4]
 8002b30:	68a1      	ldr	r1, [r4, #8]
 8002b32:	f022 7240 	bic.w	r2, r2, #50331648	; 0x3000000
 8002b36:	605a      	str	r2, [r3, #4]
 8002b38:	685a      	ldr	r2, [r3, #4]
 8002b3a:	430a      	orrs	r2, r1
 8002b3c:	605a      	str	r2, [r3, #4]
 8002b3e:	689a      	ldr	r2, [r3, #8]
 8002b40:	68e1      	ldr	r1, [r4, #12]
 8002b42:	f422 6200 	bic.w	r2, r2, #2048	; 0x800
 8002b46:	609a      	str	r2, [r3, #8]
 8002b48:	689a      	ldr	r2, [r3, #8]
 8002b4a:	430a      	orrs	r2, r1
 8002b4c:	609a      	str	r2, [r3, #8]
 8002b4e:	4934      	ldr	r1, [pc, #208]	; (8002c20 <HAL_ADC_Init+0x148>)
 8002b50:	6aa2      	ldr	r2, [r4, #40]	; 0x28
 8002b52:	428a      	cmp	r2, r1
 8002b54:	d052      	beq.n	8002bfc <HAL_ADC_Init+0x124>
 8002b56:	6899      	ldr	r1, [r3, #8]
 8002b58:	f021 6170 	bic.w	r1, r1, #251658240	; 0xf000000
 8002b5c:	6099      	str	r1, [r3, #8]
 8002b5e:	6899      	ldr	r1, [r3, #8]
 8002b60:	430a      	orrs	r2, r1
 8002b62:	609a      	str	r2, [r3, #8]
 8002b64:	689a      	ldr	r2, [r3, #8]
 8002b66:	6ae1      	ldr	r1, [r4, #44]	; 0x2c
 8002b68:	f022 5240 	bic.w	r2, r2, #805306368	; 0x30000000
 8002b6c:	609a      	str	r2, [r3, #8]
 8002b6e:	689a      	ldr	r2, [r3, #8]
 8002b70:	430a      	orrs	r2, r1
 8002b72:	609a      	str	r2, [r3, #8]
 8002b74:	689a      	ldr	r2, [r3, #8]
 8002b76:	f022 0202 	bic.w	r2, r2, #2
 8002b7a:	609a      	str	r2, [r3, #8]
 8002b7c:	689a      	ldr	r2, [r3, #8]
 8002b7e:	7e21      	ldrb	r1, [r4, #24]
 8002b80:	ea42 0241 	orr.w	r2, r2, r1, lsl #1
 8002b84:	609a      	str	r2, [r3, #8]
 8002b86:	f894 2020 	ldrb.w	r2, [r4, #32]
 8002b8a:	2a00      	cmp	r2, #0
 8002b8c:	d03e      	beq.n	8002c0c <HAL_ADC_Init+0x134>
 8002b8e:	685a      	ldr	r2, [r3, #4]
 8002b90:	6a61      	ldr	r1, [r4, #36]	; 0x24
 8002b92:	f442 6200 	orr.w	r2, r2, #2048	; 0x800
 8002b96:	605a      	str	r2, [r3, #4]
 8002b98:	685a      	ldr	r2, [r3, #4]
 8002b9a:	f422 4260 	bic.w	r2, r2, #57344	; 0xe000
 8002b9e:	605a      	str	r2, [r3, #4]
 8002ba0:	685a      	ldr	r2, [r3, #4]
 8002ba2:	3901      	subs	r1, #1
 8002ba4:	ea42 3241 	orr.w	r2, r2, r1, lsl #13
 8002ba8:	605a      	str	r2, [r3, #4]
 8002baa:	6ada      	ldr	r2, [r3, #44]	; 0x2c
 8002bac:	69e1      	ldr	r1, [r4, #28]
 8002bae:	f422 0270 	bic.w	r2, r2, #15728640	; 0xf00000
 8002bb2:	62da      	str	r2, [r3, #44]	; 0x2c
 8002bb4:	6ada      	ldr	r2, [r3, #44]	; 0x2c
 8002bb6:	3901      	subs	r1, #1
 8002bb8:	ea42 5201 	orr.w	r2, r2, r1, lsl #20
 8002bbc:	62da      	str	r2, [r3, #44]	; 0x2c
 8002bbe:	689a      	ldr	r2, [r3, #8]
 8002bc0:	f422 7200 	bic.w	r2, r2, #512	; 0x200
 8002bc4:	609a      	str	r2, [r3, #8]
 8002bc6:	689a      	ldr	r2, [r3, #8]
 8002bc8:	f894 1030 	ldrb.w	r1, [r4, #48]	; 0x30
 8002bcc:	ea42 2241 	orr.w	r2, r2, r1, lsl #9
 8002bd0:	609a      	str	r2, [r3, #8]
 8002bd2:	689a      	ldr	r2, [r3, #8]
 8002bd4:	6961      	ldr	r1, [r4, #20]
 8002bd6:	f422 6280 	bic.w	r2, r2, #1024	; 0x400
 8002bda:	609a      	str	r2, [r3, #8]
 8002bdc:	689a      	ldr	r2, [r3, #8]
 8002bde:	2000      	movs	r0, #0
 8002be0:	ea42 2281 	orr.w	r2, r2, r1, lsl #10
 8002be4:	609a      	str	r2, [r3, #8]
 8002be6:	6460      	str	r0, [r4, #68]	; 0x44
 8002be8:	6c23      	ldr	r3, [r4, #64]	; 0x40
 8002bea:	f023 0303 	bic.w	r3, r3, #3
 8002bee:	f043 0301 	orr.w	r3, r3, #1
 8002bf2:	6423      	str	r3, [r4, #64]	; 0x40
 8002bf4:	2300      	movs	r3, #0
 8002bf6:	f884 303c 	strb.w	r3, [r4, #60]	; 0x3c
 8002bfa:	bd38      	pop	{r3, r4, r5, pc}
 8002bfc:	689a      	ldr	r2, [r3, #8]
 8002bfe:	f022 6270 	bic.w	r2, r2, #251658240	; 0xf000000
 8002c02:	609a      	str	r2, [r3, #8]
 8002c04:	689a      	ldr	r2, [r3, #8]
 8002c06:	f022 5240 	bic.w	r2, r2, #805306368	; 0x30000000
 8002c0a:	e7b2      	b.n	8002b72 <HAL_ADC_Init+0x9a>
 8002c0c:	685a      	ldr	r2, [r3, #4]
 8002c0e:	f422 6200 	bic.w	r2, r2, #2048	; 0x800
 8002c12:	e7c9      	b.n	8002ba8 <HAL_ADC_Init+0xd0>
 8002c14:	2001      	movs	r0, #1
 8002c16:	e7ed      	b.n	8002bf4 <HAL_ADC_Init+0x11c>
 8002c18:	2001      	movs	r0, #1
 8002c1a:	e7ee      	b.n	8002bfa <HAL_ADC_Init+0x122>
 8002c1c:	40012300 	.word	0x40012300
 8002c20:	0f000001 	.word	0x0f000001

08002c24 <HAL_ADC_Start>:
 8002c24:	b513      	push	{r0, r1, r4, lr}
 8002c26:	2300      	movs	r3, #0
 8002c28:	9301      	str	r3, [sp, #4]
 8002c2a:	f890 303c 	ldrb.w	r3, [r0, #60]	; 0x3c
 8002c2e:	2b01      	cmp	r3, #1
 8002c30:	d06c      	beq.n	8002d0c <HAL_ADC_Start+0xe8>
 8002c32:	2301      	movs	r3, #1
 8002c34:	6802      	ldr	r2, [r0, #0]
 8002c36:	f880 303c 	strb.w	r3, [r0, #60]	; 0x3c
 8002c3a:	6893      	ldr	r3, [r2, #8]
 8002c3c:	07d9      	lsls	r1, r3, #31
 8002c3e:	d50c      	bpl.n	8002c5a <HAL_ADC_Start+0x36>
 8002c40:	6893      	ldr	r3, [r2, #8]
 8002c42:	f013 0301 	ands.w	r3, r3, #1
 8002c46:	d11a      	bne.n	8002c7e <HAL_ADC_Start+0x5a>
 8002c48:	6c02      	ldr	r2, [r0, #64]	; 0x40
 8002c4a:	f042 0210 	orr.w	r2, r2, #16
 8002c4e:	6402      	str	r2, [r0, #64]	; 0x40
 8002c50:	6c42      	ldr	r2, [r0, #68]	; 0x44
 8002c52:	f042 0201 	orr.w	r2, r2, #1
 8002c56:	6442      	str	r2, [r0, #68]	; 0x44
 8002c58:	e056      	b.n	8002d08 <HAL_ADC_Start+0xe4>
 8002c5a:	6893      	ldr	r3, [r2, #8]
 8002c5c:	492d      	ldr	r1, [pc, #180]	; (8002d14 <HAL_ADC_Start+0xf0>)
 8002c5e:	f043 0301 	orr.w	r3, r3, #1
 8002c62:	6093      	str	r3, [r2, #8]
 8002c64:	4b2c      	ldr	r3, [pc, #176]	; (8002d18 <HAL_ADC_Start+0xf4>)
 8002c66:	681b      	ldr	r3, [r3, #0]
 8002c68:	fbb3 f3f1 	udiv	r3, r3, r1
 8002c6c:	eb03 0343 	add.w	r3, r3, r3, lsl #1
 8002c70:	9301      	str	r3, [sp, #4]
 8002c72:	9b01      	ldr	r3, [sp, #4]
 8002c74:	2b00      	cmp	r3, #0
 8002c76:	d0e3      	beq.n	8002c40 <HAL_ADC_Start+0x1c>
 8002c78:	9b01      	ldr	r3, [sp, #4]
 8002c7a:	3b01      	subs	r3, #1
 8002c7c:	e7f8      	b.n	8002c70 <HAL_ADC_Start+0x4c>
 8002c7e:	6c03      	ldr	r3, [r0, #64]	; 0x40
 8002c80:	4c26      	ldr	r4, [pc, #152]	; (8002d1c <HAL_ADC_Start+0xf8>)
 8002c82:	f423 63e0 	bic.w	r3, r3, #1792	; 0x700
 8002c86:	f023 0301 	bic.w	r3, r3, #1
 8002c8a:	f443 7380 	orr.w	r3, r3, #256	; 0x100
 8002c8e:	6403      	str	r3, [r0, #64]	; 0x40
 8002c90:	6853      	ldr	r3, [r2, #4]
 8002c92:	055b      	lsls	r3, r3, #21
 8002c94:	bf41      	itttt	mi
 8002c96:	6c03      	ldrmi	r3, [r0, #64]	; 0x40
 8002c98:	f423 5340 	bicmi.w	r3, r3, #12288	; 0x3000
 8002c9c:	f443 5380 	orrmi.w	r3, r3, #4096	; 0x1000
 8002ca0:	6403      	strmi	r3, [r0, #64]	; 0x40
 8002ca2:	6c03      	ldr	r3, [r0, #64]	; 0x40
 8002ca4:	f413 5380 	ands.w	r3, r3, #4096	; 0x1000
 8002ca8:	bf1c      	itt	ne
 8002caa:	6c43      	ldrne	r3, [r0, #68]	; 0x44
 8002cac:	f023 0306 	bicne.w	r3, r3, #6
 8002cb0:	6443      	str	r3, [r0, #68]	; 0x44
 8002cb2:	f06f 0122 	mvn.w	r1, #34	; 0x22
 8002cb6:	2300      	movs	r3, #0
 8002cb8:	f880 303c 	strb.w	r3, [r0, #60]	; 0x3c
 8002cbc:	6011      	str	r1, [r2, #0]
 8002cbe:	4918      	ldr	r1, [pc, #96]	; (8002d20 <HAL_ADC_Start+0xfc>)
 8002cc0:	6848      	ldr	r0, [r1, #4]
 8002cc2:	f010 001f 	ands.w	r0, r0, #31
 8002cc6:	d119      	bne.n	8002cfc <HAL_ADC_Start+0xd8>
 8002cc8:	42a2      	cmp	r2, r4
 8002cca:	d006      	beq.n	8002cda <HAL_ADC_Start+0xb6>
 8002ccc:	4b15      	ldr	r3, [pc, #84]	; (8002d24 <HAL_ADC_Start+0x100>)
 8002cce:	429a      	cmp	r2, r3
 8002cd0:	d10d      	bne.n	8002cee <HAL_ADC_Start+0xca>
 8002cd2:	684b      	ldr	r3, [r1, #4]
 8002cd4:	f013 0f1f 	tst.w	r3, #31
 8002cd8:	d107      	bne.n	8002cea <HAL_ADC_Start+0xc6>
 8002cda:	6890      	ldr	r0, [r2, #8]
 8002cdc:	f010 5040 	ands.w	r0, r0, #805306368	; 0x30000000
 8002ce0:	d116      	bne.n	8002d10 <HAL_ADC_Start+0xec>
 8002ce2:	6893      	ldr	r3, [r2, #8]
 8002ce4:	f043 4380 	orr.w	r3, r3, #1073741824	; 0x40000000
 8002ce8:	6093      	str	r3, [r2, #8]
 8002cea:	b002      	add	sp, #8
 8002cec:	bd10      	pop	{r4, pc}
 8002cee:	4b0e      	ldr	r3, [pc, #56]	; (8002d28 <HAL_ADC_Start+0x104>)
 8002cf0:	429a      	cmp	r2, r3
 8002cf2:	d1fa      	bne.n	8002cea <HAL_ADC_Start+0xc6>
 8002cf4:	684b      	ldr	r3, [r1, #4]
 8002cf6:	f013 0f10 	tst.w	r3, #16
 8002cfa:	e7ed      	b.n	8002cd8 <HAL_ADC_Start+0xb4>
 8002cfc:	42a2      	cmp	r2, r4
 8002cfe:	d107      	bne.n	8002d10 <HAL_ADC_Start+0xec>
 8002d00:	6890      	ldr	r0, [r2, #8]
 8002d02:	f010 5040 	ands.w	r0, r0, #805306368	; 0x30000000
 8002d06:	d0ec      	beq.n	8002ce2 <HAL_ADC_Start+0xbe>
 8002d08:	4618      	mov	r0, r3
 8002d0a:	e7ee      	b.n	8002cea <HAL_ADC_Start+0xc6>
 8002d0c:	2002      	movs	r0, #2
 8002d0e:	e7ec      	b.n	8002cea <HAL_ADC_Start+0xc6>
 8002d10:	2000      	movs	r0, #0
 8002d12:	e7ea      	b.n	8002cea <HAL_ADC_Start+0xc6>
 8002d14:	000f4240 	.word	0x000f4240
 8002d18:	20000000 	.word	0x20000000
 8002d1c:	40012000 	.word	0x40012000
 8002d20:	40012300 	.word	0x40012300
 8002d24:	40012100 	.word	0x40012100
 8002d28:	40012200 	.word	0x40012200

08002d2c <HAL_ADC_PollForConversion>:
 8002d2c:	6803      	ldr	r3, [r0, #0]
 8002d2e:	689a      	ldr	r2, [r3, #8]
 8002d30:	0552      	lsls	r2, r2, #21
 8002d32:	b570      	push	{r4, r5, r6, lr}
 8002d34:	4604      	mov	r4, r0
 8002d36:	460d      	mov	r5, r1
 8002d38:	d50b      	bpl.n	8002d52 <HAL_ADC_PollForConversion+0x26>
 8002d3a:	689b      	ldr	r3, [r3, #8]
 8002d3c:	05de      	lsls	r6, r3, #23
 8002d3e:	d508      	bpl.n	8002d52 <HAL_ADC_PollForConversion+0x26>
 8002d40:	6c03      	ldr	r3, [r0, #64]	; 0x40
 8002d42:	f043 0320 	orr.w	r3, r3, #32
 8002d46:	6403      	str	r3, [r0, #64]	; 0x40
 8002d48:	2300      	movs	r3, #0
 8002d4a:	f880 303c 	strb.w	r3, [r0, #60]	; 0x3c
 8002d4e:	2001      	movs	r0, #1
 8002d50:	bd70      	pop	{r4, r5, r6, pc}
 8002d52:	f7ff fea7 	bl	8002aa4 <HAL_GetTick>
 8002d56:	4606      	mov	r6, r0
 8002d58:	6823      	ldr	r3, [r4, #0]
 8002d5a:	681a      	ldr	r2, [r3, #0]
 8002d5c:	0791      	lsls	r1, r2, #30
 8002d5e:	d50c      	bpl.n	8002d7a <HAL_ADC_PollForConversion+0x4e>
 8002d60:	f06f 0212 	mvn.w	r2, #18
 8002d64:	601a      	str	r2, [r3, #0]
 8002d66:	6c22      	ldr	r2, [r4, #64]	; 0x40
 8002d68:	f442 7200 	orr.w	r2, r2, #512	; 0x200
 8002d6c:	6422      	str	r2, [r4, #64]	; 0x40
 8002d6e:	689a      	ldr	r2, [r3, #8]
 8002d70:	f012 5f40 	tst.w	r2, #805306368	; 0x30000000
 8002d74:	d017      	beq.n	8002da6 <HAL_ADC_PollForConversion+0x7a>
 8002d76:	2000      	movs	r0, #0
 8002d78:	e7ea      	b.n	8002d50 <HAL_ADC_PollForConversion+0x24>
 8002d7a:	1c68      	adds	r0, r5, #1
 8002d7c:	d0ed      	beq.n	8002d5a <HAL_ADC_PollForConversion+0x2e>
 8002d7e:	b965      	cbnz	r5, 8002d9a <HAL_ADC_PollForConversion+0x6e>
 8002d80:	6823      	ldr	r3, [r4, #0]
 8002d82:	681b      	ldr	r3, [r3, #0]
 8002d84:	f013 0302 	ands.w	r3, r3, #2
 8002d88:	d1e6      	bne.n	8002d58 <HAL_ADC_PollForConversion+0x2c>
 8002d8a:	6c22      	ldr	r2, [r4, #64]	; 0x40
 8002d8c:	f884 303c 	strb.w	r3, [r4, #60]	; 0x3c
 8002d90:	f042 0204 	orr.w	r2, r2, #4
 8002d94:	6422      	str	r2, [r4, #64]	; 0x40
 8002d96:	2003      	movs	r0, #3
 8002d98:	e7da      	b.n	8002d50 <HAL_ADC_PollForConversion+0x24>
 8002d9a:	f7ff fe83 	bl	8002aa4 <HAL_GetTick>
 8002d9e:	1b80      	subs	r0, r0, r6
 8002da0:	42a8      	cmp	r0, r5
 8002da2:	d8ed      	bhi.n	8002d80 <HAL_ADC_PollForConversion+0x54>
 8002da4:	e7d8      	b.n	8002d58 <HAL_ADC_PollForConversion+0x2c>
 8002da6:	7e20      	ldrb	r0, [r4, #24]
 8002da8:	2800      	cmp	r0, #0
 8002daa:	d1e4      	bne.n	8002d76 <HAL_ADC_PollForConversion+0x4a>
 8002dac:	6ada      	ldr	r2, [r3, #44]	; 0x2c
 8002dae:	f412 0f70 	tst.w	r2, #15728640	; 0xf00000
 8002db2:	d002      	beq.n	8002dba <HAL_ADC_PollForConversion+0x8e>
 8002db4:	689b      	ldr	r3, [r3, #8]
 8002db6:	055a      	lsls	r2, r3, #21
 8002db8:	d4dd      	bmi.n	8002d76 <HAL_ADC_PollForConversion+0x4a>
 8002dba:	6c23      	ldr	r3, [r4, #64]	; 0x40
 8002dbc:	f423 7380 	bic.w	r3, r3, #256	; 0x100
 8002dc0:	6423      	str	r3, [r4, #64]	; 0x40
 8002dc2:	6c23      	ldr	r3, [r4, #64]	; 0x40
 8002dc4:	04db      	lsls	r3, r3, #19
 8002dc6:	d4d6      	bmi.n	8002d76 <HAL_ADC_PollForConversion+0x4a>
 8002dc8:	6c23      	ldr	r3, [r4, #64]	; 0x40
 8002dca:	f043 0301 	orr.w	r3, r3, #1
 8002dce:	6423      	str	r3, [r4, #64]	; 0x40
 8002dd0:	e7be      	b.n	8002d50 <HAL_ADC_PollForConversion+0x24>

08002dd2 <HAL_ADC_GetValue>:
 8002dd2:	6803      	ldr	r3, [r0, #0]
 8002dd4:	6cd8      	ldr	r0, [r3, #76]	; 0x4c
 8002dd6:	4770      	bx	lr

08002dd8 <HAL_ADC_ConfigChannel>:
 8002dd8:	b5f7      	push	{r0, r1, r2, r4, r5, r6, r7, lr}
 8002dda:	2300      	movs	r3, #0
 8002ddc:	9301      	str	r3, [sp, #4]
 8002dde:	f890 303c 	ldrb.w	r3, [r0, #60]	; 0x3c
 8002de2:	2b01      	cmp	r3, #1
 8002de4:	d066      	beq.n	8002eb4 <HAL_ADC_ConfigChannel+0xdc>
 8002de6:	2301      	movs	r3, #1
 8002de8:	f880 303c 	strb.w	r3, [r0, #60]	; 0x3c
 8002dec:	680d      	ldr	r5, [r1, #0]
 8002dee:	6803      	ldr	r3, [r0, #0]
 8002df0:	688e      	ldr	r6, [r1, #8]
 8002df2:	2d09      	cmp	r5, #9
 8002df4:	b2ac      	uxth	r4, r5
 8002df6:	d931      	bls.n	8002e5c <HAL_ADC_ConfigChannel+0x84>
 8002df8:	eb04 0244 	add.w	r2, r4, r4, lsl #1
 8002dfc:	68df      	ldr	r7, [r3, #12]
 8002dfe:	3a1e      	subs	r2, #30
 8002e00:	f04f 0c07 	mov.w	ip, #7
 8002e04:	fa0c fc02 	lsl.w	ip, ip, r2
 8002e08:	ea27 070c 	bic.w	r7, r7, ip
 8002e0c:	60df      	str	r7, [r3, #12]
 8002e0e:	68df      	ldr	r7, [r3, #12]
 8002e10:	fa06 f202 	lsl.w	r2, r6, r2
 8002e14:	433a      	orrs	r2, r7
 8002e16:	60da      	str	r2, [r3, #12]
 8002e18:	6849      	ldr	r1, [r1, #4]
 8002e1a:	2906      	cmp	r1, #6
 8002e1c:	eb01 0281 	add.w	r2, r1, r1, lsl #2
 8002e20:	d82c      	bhi.n	8002e7c <HAL_ADC_ConfigChannel+0xa4>
 8002e22:	6b59      	ldr	r1, [r3, #52]	; 0x34
 8002e24:	3a05      	subs	r2, #5
 8002e26:	261f      	movs	r6, #31
 8002e28:	4096      	lsls	r6, r2
 8002e2a:	ea21 0106 	bic.w	r1, r1, r6
 8002e2e:	6359      	str	r1, [r3, #52]	; 0x34
 8002e30:	6b59      	ldr	r1, [r3, #52]	; 0x34
 8002e32:	fa04 f202 	lsl.w	r2, r4, r2
 8002e36:	430a      	orrs	r2, r1
 8002e38:	635a      	str	r2, [r3, #52]	; 0x34
 8002e3a:	4a2c      	ldr	r2, [pc, #176]	; (8002eec <HAL_ADC_ConfigChannel+0x114>)
 8002e3c:	4293      	cmp	r3, r2
 8002e3e:	d107      	bne.n	8002e50 <HAL_ADC_ConfigChannel+0x78>
 8002e40:	2d12      	cmp	r5, #18
 8002e42:	d139      	bne.n	8002eb8 <HAL_ADC_ConfigChannel+0xe0>
 8002e44:	f8d2 3304 	ldr.w	r3, [r2, #772]	; 0x304
 8002e48:	f443 0380 	orr.w	r3, r3, #4194304	; 0x400000
 8002e4c:	f8c2 3304 	str.w	r3, [r2, #772]	; 0x304
 8002e50:	2300      	movs	r3, #0
 8002e52:	f880 303c 	strb.w	r3, [r0, #60]	; 0x3c
 8002e56:	4618      	mov	r0, r3
 8002e58:	b003      	add	sp, #12
 8002e5a:	bdf0      	pop	{r4, r5, r6, r7, pc}
 8002e5c:	691f      	ldr	r7, [r3, #16]
 8002e5e:	eb05 0245 	add.w	r2, r5, r5, lsl #1
 8002e62:	f04f 0c07 	mov.w	ip, #7
 8002e66:	fa0c fc02 	lsl.w	ip, ip, r2
 8002e6a:	ea27 070c 	bic.w	r7, r7, ip
 8002e6e:	611f      	str	r7, [r3, #16]
 8002e70:	691f      	ldr	r7, [r3, #16]
 8002e72:	fa06 f202 	lsl.w	r2, r6, r2
 8002e76:	433a      	orrs	r2, r7
 8002e78:	611a      	str	r2, [r3, #16]
 8002e7a:	e7cd      	b.n	8002e18 <HAL_ADC_ConfigChannel+0x40>
 8002e7c:	290c      	cmp	r1, #12
 8002e7e:	f04f 011f 	mov.w	r1, #31
 8002e82:	d80b      	bhi.n	8002e9c <HAL_ADC_ConfigChannel+0xc4>
 8002e84:	6b1e      	ldr	r6, [r3, #48]	; 0x30
 8002e86:	3a23      	subs	r2, #35	; 0x23
 8002e88:	4091      	lsls	r1, r2
 8002e8a:	ea26 0101 	bic.w	r1, r6, r1
 8002e8e:	6319      	str	r1, [r3, #48]	; 0x30
 8002e90:	6b19      	ldr	r1, [r3, #48]	; 0x30
 8002e92:	fa04 f202 	lsl.w	r2, r4, r2
 8002e96:	430a      	orrs	r2, r1
 8002e98:	631a      	str	r2, [r3, #48]	; 0x30
 8002e9a:	e7ce      	b.n	8002e3a <HAL_ADC_ConfigChannel+0x62>
 8002e9c:	6ade      	ldr	r6, [r3, #44]	; 0x2c
 8002e9e:	3a41      	subs	r2, #65	; 0x41
 8002ea0:	4091      	lsls	r1, r2
 8002ea2:	ea26 0101 	bic.w	r1, r6, r1
 8002ea6:	62d9      	str	r1, [r3, #44]	; 0x2c
 8002ea8:	6ad9      	ldr	r1, [r3, #44]	; 0x2c
 8002eaa:	fa04 f202 	lsl.w	r2, r4, r2
 8002eae:	430a      	orrs	r2, r1
 8002eb0:	62da      	str	r2, [r3, #44]	; 0x2c
 8002eb2:	e7c2      	b.n	8002e3a <HAL_ADC_ConfigChannel+0x62>
 8002eb4:	2002      	movs	r0, #2
 8002eb6:	e7cf      	b.n	8002e58 <HAL_ADC_ConfigChannel+0x80>
 8002eb8:	f1a5 0310 	sub.w	r3, r5, #16
 8002ebc:	2b01      	cmp	r3, #1
 8002ebe:	d8c7      	bhi.n	8002e50 <HAL_ADC_ConfigChannel+0x78>
 8002ec0:	4a0b      	ldr	r2, [pc, #44]	; (8002ef0 <HAL_ADC_ConfigChannel+0x118>)
 8002ec2:	6853      	ldr	r3, [r2, #4]
 8002ec4:	2d10      	cmp	r5, #16
 8002ec6:	f443 0300 	orr.w	r3, r3, #8388608	; 0x800000
 8002eca:	6053      	str	r3, [r2, #4]
 8002ecc:	d1c0      	bne.n	8002e50 <HAL_ADC_ConfigChannel+0x78>
 8002ece:	4b09      	ldr	r3, [pc, #36]	; (8002ef4 <HAL_ADC_ConfigChannel+0x11c>)
 8002ed0:	4a09      	ldr	r2, [pc, #36]	; (8002ef8 <HAL_ADC_ConfigChannel+0x120>)
 8002ed2:	681b      	ldr	r3, [r3, #0]
 8002ed4:	fbb3 f2f2 	udiv	r2, r3, r2
 8002ed8:	230a      	movs	r3, #10
 8002eda:	4353      	muls	r3, r2
 8002edc:	9301      	str	r3, [sp, #4]
 8002ede:	9b01      	ldr	r3, [sp, #4]
 8002ee0:	2b00      	cmp	r3, #0
 8002ee2:	d0b5      	beq.n	8002e50 <HAL_ADC_ConfigChannel+0x78>
 8002ee4:	9b01      	ldr	r3, [sp, #4]
 8002ee6:	3b01      	subs	r3, #1
 8002ee8:	e7f8      	b.n	8002edc <HAL_ADC_ConfigChannel+0x104>
 8002eea:	bf00      	nop
 8002eec:	40012000 	.word	0x40012000
 8002ef0:	40012300 	.word	0x40012300
 8002ef4:	20000000 	.word	0x20000000
 8002ef8:	000f4240 	.word	0x000f4240

08002efc <HAL_NVIC_SetPriorityGrouping>:
 8002efc:	4907      	ldr	r1, [pc, #28]	; (8002f1c <HAL_NVIC_SetPriorityGrouping+0x20>)
 8002efe:	68ca      	ldr	r2, [r1, #12]
 8002f00:	f422 62e0 	bic.w	r2, r2, #1792	; 0x700
 8002f04:	0203      	lsls	r3, r0, #8
 8002f06:	0412      	lsls	r2, r2, #16
 8002f08:	f403 63e0 	and.w	r3, r3, #1792	; 0x700
 8002f0c:	0c12      	lsrs	r2, r2, #16
 8002f0e:	4313      	orrs	r3, r2
 8002f10:	f043 63bf 	orr.w	r3, r3, #100139008	; 0x5f80000
 8002f14:	f443 3300 	orr.w	r3, r3, #131072	; 0x20000
 8002f18:	60cb      	str	r3, [r1, #12]
 8002f1a:	4770      	bx	lr
 8002f1c:	e000ed00 	.word	0xe000ed00

08002f20 <HAL_NVIC_SetPriority>:
 8002f20:	4b16      	ldr	r3, [pc, #88]	; (8002f7c <HAL_NVIC_SetPriority+0x5c>)
 8002f22:	b530      	push	{r4, r5, lr}
 8002f24:	68dc      	ldr	r4, [r3, #12]
 8002f26:	f3c4 2402 	ubfx	r4, r4, #8, #3
 8002f2a:	f1c4 0507 	rsb	r5, r4, #7
 8002f2e:	1d23      	adds	r3, r4, #4
 8002f30:	2d04      	cmp	r5, #4
 8002f32:	bf28      	it	cs
 8002f34:	2504      	movcs	r5, #4
 8002f36:	2b06      	cmp	r3, #6
 8002f38:	f04f 33ff 	mov.w	r3, #4294967295
 8002f3c:	bf8c      	ite	hi
 8002f3e:	3c03      	subhi	r4, #3
 8002f40:	2400      	movls	r4, #0
 8002f42:	fa03 f505 	lsl.w	r5, r3, r5
 8002f46:	ea21 0105 	bic.w	r1, r1, r5
 8002f4a:	40a3      	lsls	r3, r4
 8002f4c:	ea22 0203 	bic.w	r2, r2, r3
 8002f50:	40a1      	lsls	r1, r4
 8002f52:	2800      	cmp	r0, #0
 8002f54:	ea41 0302 	orr.w	r3, r1, r2
 8002f58:	bfac      	ite	ge
 8002f5a:	f100 4060 	addge.w	r0, r0, #3758096384	; 0xe0000000
 8002f5e:	4a08      	ldrlt	r2, [pc, #32]	; (8002f80 <HAL_NVIC_SetPriority+0x60>)
 8002f60:	ea4f 1303 	mov.w	r3, r3, lsl #4
 8002f64:	bfb8      	it	lt
 8002f66:	f000 000f 	andlt.w	r0, r0, #15
 8002f6a:	b2db      	uxtb	r3, r3
 8002f6c:	bfaa      	itet	ge
 8002f6e:	f500 4061 	addge.w	r0, r0, #57600	; 0xe100
 8002f72:	5413      	strblt	r3, [r2, r0]
 8002f74:	f880 3300 	strbge.w	r3, [r0, #768]	; 0x300
 8002f78:	bd30      	pop	{r4, r5, pc}
 8002f7a:	bf00      	nop
 8002f7c:	e000ed00 	.word	0xe000ed00
 8002f80:	e000ed14 	.word	0xe000ed14

08002f84 <HAL_NVIC_EnableIRQ>:
 8002f84:	2800      	cmp	r0, #0
 8002f86:	db08      	blt.n	8002f9a <HAL_NVIC_EnableIRQ+0x16>
 8002f88:	0942      	lsrs	r2, r0, #5
 8002f8a:	2301      	movs	r3, #1
 8002f8c:	f000 001f 	and.w	r0, r0, #31
 8002f90:	fa03 f000 	lsl.w	r0, r3, r0
 8002f94:	4b01      	ldr	r3, [pc, #4]	; (8002f9c <HAL_NVIC_EnableIRQ+0x18>)
 8002f96:	f843 0022 	str.w	r0, [r3, r2, lsl #2]
 8002f9a:	4770      	bx	lr
 8002f9c:	e000e100 	.word	0xe000e100

08002fa0 <HAL_SYSTICK_Config>:
 8002fa0:	3801      	subs	r0, #1
 8002fa2:	f1b0 7f80 	cmp.w	r0, #16777216	; 0x1000000
 8002fa6:	d20a      	bcs.n	8002fbe <HAL_SYSTICK_Config+0x1e>
 8002fa8:	4b06      	ldr	r3, [pc, #24]	; (8002fc4 <HAL_SYSTICK_Config+0x24>)
 8002faa:	4a07      	ldr	r2, [pc, #28]	; (8002fc8 <HAL_SYSTICK_Config+0x28>)
 8002fac:	6058      	str	r0, [r3, #4]
 8002fae:	21f0      	movs	r1, #240	; 0xf0
 8002fb0:	f882 1023 	strb.w	r1, [r2, #35]	; 0x23
 8002fb4:	2000      	movs	r0, #0
 8002fb6:	2207      	movs	r2, #7
 8002fb8:	6098      	str	r0, [r3, #8]
 8002fba:	601a      	str	r2, [r3, #0]
 8002fbc:	4770      	bx	lr
 8002fbe:	2001      	movs	r0, #1
 8002fc0:	4770      	bx	lr
 8002fc2:	bf00      	nop
 8002fc4:	e000e010 	.word	0xe000e010
 8002fc8:	e000ed00 	.word	0xe000ed00

08002fcc <HAL_DMA_Abort>:
 8002fcc:	b570      	push	{r4, r5, r6, lr}
 8002fce:	4604      	mov	r4, r0
 8002fd0:	6d86      	ldr	r6, [r0, #88]	; 0x58
 8002fd2:	f7ff fd67 	bl	8002aa4 <HAL_GetTick>
 8002fd6:	f894 3035 	ldrb.w	r3, [r4, #53]	; 0x35
 8002fda:	2b02      	cmp	r3, #2
 8002fdc:	4605      	mov	r5, r0
 8002fde:	d006      	beq.n	8002fee <HAL_DMA_Abort+0x22>
 8002fe0:	2380      	movs	r3, #128	; 0x80
 8002fe2:	6563      	str	r3, [r4, #84]	; 0x54
 8002fe4:	2300      	movs	r3, #0
 8002fe6:	f884 3034 	strb.w	r3, [r4, #52]	; 0x34
 8002fea:	2001      	movs	r0, #1
 8002fec:	bd70      	pop	{r4, r5, r6, pc}
 8002fee:	6823      	ldr	r3, [r4, #0]
 8002ff0:	681a      	ldr	r2, [r3, #0]
 8002ff2:	f022 0216 	bic.w	r2, r2, #22
 8002ff6:	601a      	str	r2, [r3, #0]
 8002ff8:	695a      	ldr	r2, [r3, #20]
 8002ffa:	f022 0280 	bic.w	r2, r2, #128	; 0x80
 8002ffe:	615a      	str	r2, [r3, #20]
 8003000:	6c22      	ldr	r2, [r4, #64]	; 0x40
 8003002:	b90a      	cbnz	r2, 8003008 <HAL_DMA_Abort+0x3c>
 8003004:	6ca2      	ldr	r2, [r4, #72]	; 0x48
 8003006:	b11a      	cbz	r2, 8003010 <HAL_DMA_Abort+0x44>
 8003008:	681a      	ldr	r2, [r3, #0]
 800300a:	f022 0208 	bic.w	r2, r2, #8
 800300e:	601a      	str	r2, [r3, #0]
 8003010:	681a      	ldr	r2, [r3, #0]
 8003012:	f022 0201 	bic.w	r2, r2, #1
 8003016:	601a      	str	r2, [r3, #0]
 8003018:	6823      	ldr	r3, [r4, #0]
 800301a:	681b      	ldr	r3, [r3, #0]
 800301c:	f013 0301 	ands.w	r3, r3, #1
 8003020:	d10a      	bne.n	8003038 <HAL_DMA_Abort+0x6c>
 8003022:	6de1      	ldr	r1, [r4, #92]	; 0x5c
 8003024:	223f      	movs	r2, #63	; 0x3f
 8003026:	408a      	lsls	r2, r1
 8003028:	60b2      	str	r2, [r6, #8]
 800302a:	2201      	movs	r2, #1
 800302c:	f884 2035 	strb.w	r2, [r4, #53]	; 0x35
 8003030:	f884 3034 	strb.w	r3, [r4, #52]	; 0x34
 8003034:	4618      	mov	r0, r3
 8003036:	e7d9      	b.n	8002fec <HAL_DMA_Abort+0x20>
 8003038:	f7ff fd34 	bl	8002aa4 <HAL_GetTick>
 800303c:	1b40      	subs	r0, r0, r5
 800303e:	2805      	cmp	r0, #5
 8003040:	d9ea      	bls.n	8003018 <HAL_DMA_Abort+0x4c>
 8003042:	2320      	movs	r3, #32
 8003044:	6563      	str	r3, [r4, #84]	; 0x54
 8003046:	2003      	movs	r0, #3
 8003048:	2300      	movs	r3, #0
 800304a:	f884 0035 	strb.w	r0, [r4, #53]	; 0x35
 800304e:	f884 3034 	strb.w	r3, [r4, #52]	; 0x34
 8003052:	e7cb      	b.n	8002fec <HAL_DMA_Abort+0x20>

08003054 <HAL_DMA_Abort_IT>:
 8003054:	f890 3035 	ldrb.w	r3, [r0, #53]	; 0x35
 8003058:	2b02      	cmp	r3, #2
 800305a:	d003      	beq.n	8003064 <HAL_DMA_Abort_IT+0x10>
 800305c:	2380      	movs	r3, #128	; 0x80
 800305e:	6543      	str	r3, [r0, #84]	; 0x54
 8003060:	2001      	movs	r0, #1
 8003062:	4770      	bx	lr
 8003064:	6802      	ldr	r2, [r0, #0]
 8003066:	2305      	movs	r3, #5
 8003068:	f880 3035 	strb.w	r3, [r0, #53]	; 0x35
 800306c:	6813      	ldr	r3, [r2, #0]
 800306e:	f023 0301 	bic.w	r3, r3, #1
 8003072:	6013      	str	r3, [r2, #0]
 8003074:	2000      	movs	r0, #0
 8003076:	4770      	bx	lr

08003078 <HAL_GPIO_Init>:
 8003078:	e92d 4ff7 	stmdb	sp!, {r0, r1, r2, r4, r5, r6, r7, r8, r9, sl, fp, lr}
 800307c:	f8df 91a8 	ldr.w	r9, [pc, #424]	; 8003228 <HAL_GPIO_Init+0x1b0>
 8003080:	4a67      	ldr	r2, [pc, #412]	; (8003220 <HAL_GPIO_Init+0x1a8>)
 8003082:	2300      	movs	r3, #0
 8003084:	680d      	ldr	r5, [r1, #0]
 8003086:	2401      	movs	r4, #1
 8003088:	409c      	lsls	r4, r3
 800308a:	ea04 0c05 	and.w	ip, r4, r5
 800308e:	43ac      	bics	r4, r5
 8003090:	f040 80b1 	bne.w	80031f6 <HAL_GPIO_Init+0x17e>
 8003094:	684d      	ldr	r5, [r1, #4]
 8003096:	f005 0403 	and.w	r4, r5, #3
 800309a:	ea4f 0843 	mov.w	r8, r3, lsl #1
 800309e:	2603      	movs	r6, #3
 80030a0:	1e67      	subs	r7, r4, #1
 80030a2:	fa06 f608 	lsl.w	r6, r6, r8
 80030a6:	2f01      	cmp	r7, #1
 80030a8:	ea6f 0606 	mvn.w	r6, r6
 80030ac:	d834      	bhi.n	8003118 <HAL_GPIO_Init+0xa0>
 80030ae:	6887      	ldr	r7, [r0, #8]
 80030b0:	ea07 0e06 	and.w	lr, r7, r6
 80030b4:	68cf      	ldr	r7, [r1, #12]
 80030b6:	fa07 f708 	lsl.w	r7, r7, r8
 80030ba:	ea47 070e 	orr.w	r7, r7, lr
 80030be:	6087      	str	r7, [r0, #8]
 80030c0:	6847      	ldr	r7, [r0, #4]
 80030c2:	ea27 0e0c 	bic.w	lr, r7, ip
 80030c6:	f3c5 1700 	ubfx	r7, r5, #4, #1
 80030ca:	409f      	lsls	r7, r3
 80030cc:	ea47 070e 	orr.w	r7, r7, lr
 80030d0:	6047      	str	r7, [r0, #4]
 80030d2:	68c7      	ldr	r7, [r0, #12]
 80030d4:	ea07 0e06 	and.w	lr, r7, r6
 80030d8:	688f      	ldr	r7, [r1, #8]
 80030da:	fa07 f708 	lsl.w	r7, r7, r8
 80030de:	ea47 070e 	orr.w	r7, r7, lr
 80030e2:	2c02      	cmp	r4, #2
 80030e4:	60c7      	str	r7, [r0, #12]
 80030e6:	d119      	bne.n	800311c <HAL_GPIO_Init+0xa4>
 80030e8:	ea4f 0ad3 	mov.w	sl, r3, lsr #3
 80030ec:	eb00 0a8a 	add.w	sl, r0, sl, lsl #2
 80030f0:	f003 0b07 	and.w	fp, r3, #7
 80030f4:	f8da 7020 	ldr.w	r7, [sl, #32]
 80030f8:	ea4f 0b8b 	mov.w	fp, fp, lsl #2
 80030fc:	f04f 0e0f 	mov.w	lr, #15
 8003100:	fa0e fe0b 	lsl.w	lr, lr, fp
 8003104:	ea27 0e0e 	bic.w	lr, r7, lr
 8003108:	690f      	ldr	r7, [r1, #16]
 800310a:	fa07 f70b 	lsl.w	r7, r7, fp
 800310e:	ea47 070e 	orr.w	r7, r7, lr
 8003112:	f8ca 7020 	str.w	r7, [sl, #32]
 8003116:	e001      	b.n	800311c <HAL_GPIO_Init+0xa4>
 8003118:	2c03      	cmp	r4, #3
 800311a:	d1da      	bne.n	80030d2 <HAL_GPIO_Init+0x5a>
 800311c:	6807      	ldr	r7, [r0, #0]
 800311e:	fa04 f408 	lsl.w	r4, r4, r8
 8003122:	403e      	ands	r6, r7
 8003124:	4326      	orrs	r6, r4
 8003126:	f415 3f40 	tst.w	r5, #196608	; 0x30000
 800312a:	6006      	str	r6, [r0, #0]
 800312c:	d063      	beq.n	80031f6 <HAL_GPIO_Init+0x17e>
 800312e:	f04f 0a00 	mov.w	sl, #0
 8003132:	f8cd a004 	str.w	sl, [sp, #4]
 8003136:	f8d9 6044 	ldr.w	r6, [r9, #68]	; 0x44
 800313a:	4c3a      	ldr	r4, [pc, #232]	; (8003224 <HAL_GPIO_Init+0x1ac>)
 800313c:	f446 4680 	orr.w	r6, r6, #16384	; 0x4000
 8003140:	f8c9 6044 	str.w	r6, [r9, #68]	; 0x44
 8003144:	f8d9 6044 	ldr.w	r6, [r9, #68]	; 0x44
 8003148:	f406 4680 	and.w	r6, r6, #16384	; 0x4000
 800314c:	9601      	str	r6, [sp, #4]
 800314e:	9e01      	ldr	r6, [sp, #4]
 8003150:	f023 0603 	bic.w	r6, r3, #3
 8003154:	f106 4680 	add.w	r6, r6, #1073741824	; 0x40000000
 8003158:	f506 369c 	add.w	r6, r6, #79872	; 0x13800
 800315c:	f003 0e03 	and.w	lr, r3, #3
 8003160:	f8d6 8008 	ldr.w	r8, [r6, #8]
 8003164:	ea4f 0e8e 	mov.w	lr, lr, lsl #2
 8003168:	270f      	movs	r7, #15
 800316a:	fa07 f70e 	lsl.w	r7, r7, lr
 800316e:	42a0      	cmp	r0, r4
 8003170:	ea28 0707 	bic.w	r7, r8, r7
 8003174:	d046      	beq.n	8003204 <HAL_GPIO_Init+0x18c>
 8003176:	f504 6480 	add.w	r4, r4, #1024	; 0x400
 800317a:	42a0      	cmp	r0, r4
 800317c:	d044      	beq.n	8003208 <HAL_GPIO_Init+0x190>
 800317e:	f504 6480 	add.w	r4, r4, #1024	; 0x400
 8003182:	42a0      	cmp	r0, r4
 8003184:	d042      	beq.n	800320c <HAL_GPIO_Init+0x194>
 8003186:	f504 6480 	add.w	r4, r4, #1024	; 0x400
 800318a:	42a0      	cmp	r0, r4
 800318c:	d040      	beq.n	8003210 <HAL_GPIO_Init+0x198>
 800318e:	f504 6480 	add.w	r4, r4, #1024	; 0x400
 8003192:	42a0      	cmp	r0, r4
 8003194:	d03e      	beq.n	8003214 <HAL_GPIO_Init+0x19c>
 8003196:	f504 6480 	add.w	r4, r4, #1024	; 0x400
 800319a:	42a0      	cmp	r0, r4
 800319c:	d03c      	beq.n	8003218 <HAL_GPIO_Init+0x1a0>
 800319e:	f504 6480 	add.w	r4, r4, #1024	; 0x400
 80031a2:	42a0      	cmp	r0, r4
 80031a4:	d03a      	beq.n	800321c <HAL_GPIO_Init+0x1a4>
 80031a6:	f504 6480 	add.w	r4, r4, #1024	; 0x400
 80031aa:	42a0      	cmp	r0, r4
 80031ac:	bf0c      	ite	eq
 80031ae:	2407      	moveq	r4, #7
 80031b0:	2408      	movne	r4, #8
 80031b2:	fa04 f40e 	lsl.w	r4, r4, lr
 80031b6:	433c      	orrs	r4, r7
 80031b8:	60b4      	str	r4, [r6, #8]
 80031ba:	6814      	ldr	r4, [r2, #0]
 80031bc:	ea6f 060c 	mvn.w	r6, ip
 80031c0:	03ef      	lsls	r7, r5, #15
 80031c2:	bf54      	ite	pl
 80031c4:	4034      	andpl	r4, r6
 80031c6:	ea4c 0404 	orrmi.w	r4, ip, r4
 80031ca:	6014      	str	r4, [r2, #0]
 80031cc:	6854      	ldr	r4, [r2, #4]
 80031ce:	03af      	lsls	r7, r5, #14
 80031d0:	bf54      	ite	pl
 80031d2:	4034      	andpl	r4, r6
 80031d4:	ea4c 0404 	orrmi.w	r4, ip, r4
 80031d8:	6054      	str	r4, [r2, #4]
 80031da:	6894      	ldr	r4, [r2, #8]
 80031dc:	02ef      	lsls	r7, r5, #11
 80031de:	bf54      	ite	pl
 80031e0:	4034      	andpl	r4, r6
 80031e2:	ea4c 0404 	orrmi.w	r4, ip, r4
 80031e6:	6094      	str	r4, [r2, #8]
 80031e8:	68d4      	ldr	r4, [r2, #12]
 80031ea:	02ad      	lsls	r5, r5, #10
 80031ec:	bf54      	ite	pl
 80031ee:	4034      	andpl	r4, r6
 80031f0:	ea4c 0404 	orrmi.w	r4, ip, r4
 80031f4:	60d4      	str	r4, [r2, #12]
 80031f6:	3301      	adds	r3, #1
 80031f8:	2b10      	cmp	r3, #16
 80031fa:	f47f af43 	bne.w	8003084 <HAL_GPIO_Init+0xc>
 80031fe:	b003      	add	sp, #12
 8003200:	e8bd 8ff0 	ldmia.w	sp!, {r4, r5, r6, r7, r8, r9, sl, fp, pc}
 8003204:	4654      	mov	r4, sl
 8003206:	e7d4      	b.n	80031b2 <HAL_GPIO_Init+0x13a>
 8003208:	2401      	movs	r4, #1
 800320a:	e7d2      	b.n	80031b2 <HAL_GPIO_Init+0x13a>
 800320c:	2402      	movs	r4, #2
 800320e:	e7d0      	b.n	80031b2 <HAL_GPIO_Init+0x13a>
 8003210:	2403      	movs	r4, #3
 8003212:	e7ce      	b.n	80031b2 <HAL_GPIO_Init+0x13a>
 8003214:	2404      	movs	r4, #4
 8003216:	e7cc      	b.n	80031b2 <HAL_GPIO_Init+0x13a>
 8003218:	2405      	movs	r4, #5
 800321a:	e7ca      	b.n	80031b2 <HAL_GPIO_Init+0x13a>
 800321c:	2406      	movs	r4, #6
 800321e:	e7c8      	b.n	80031b2 <HAL_GPIO_Init+0x13a>
 8003220:	40013c00 	.word	0x40013c00
 8003224:	40020000 	.word	0x40020000
 8003228:	40023800 	.word	0x40023800

0800322c <HAL_GPIO_WritePin>:
 800322c:	b10a      	cbz	r2, 8003232 <HAL_GPIO_WritePin+0x6>
 800322e:	6181      	str	r1, [r0, #24]
 8003230:	4770      	bx	lr
 8003232:	0409      	lsls	r1, r1, #16
 8003234:	e7fb      	b.n	800322e <HAL_GPIO_WritePin+0x2>

08003236 <HAL_GPIO_TogglePin>:
 8003236:	6943      	ldr	r3, [r0, #20]
 8003238:	ea01 0203 	and.w	r2, r1, r3
 800323c:	ea21 0103 	bic.w	r1, r1, r3
 8003240:	ea41 4102 	orr.w	r1, r1, r2, lsl #16
 8003244:	6181      	str	r1, [r0, #24]
 8003246:	4770      	bx	lr

08003248 <HAL_GPIO_EXTI_IRQHandler>:
 8003248:	4a04      	ldr	r2, [pc, #16]	; (800325c <HAL_GPIO_EXTI_IRQHandler+0x14>)
 800324a:	6951      	ldr	r1, [r2, #20]
 800324c:	4201      	tst	r1, r0
 800324e:	b508      	push	{r3, lr}
 8003250:	d002      	beq.n	8003258 <HAL_GPIO_EXTI_IRQHandler+0x10>
 8003252:	6150      	str	r0, [r2, #20]
 8003254:	f7fe fb52 	bl	80018fc <HAL_GPIO_EXTI_Callback>
 8003258:	bd08      	pop	{r3, pc}
 800325a:	bf00      	nop
 800325c:	40013c00 	.word	0x40013c00

08003260 <HAL_PWR_EnableBkUpAccess>:
 8003260:	4b04      	ldr	r3, [pc, #16]	; (8003274 <HAL_PWR_EnableBkUpAccess+0x14>)
 8003262:	2201      	movs	r2, #1
 8003264:	601a      	str	r2, [r3, #0]
 8003266:	4b04      	ldr	r3, [pc, #16]	; (8003278 <HAL_PWR_EnableBkUpAccess+0x18>)
 8003268:	b082      	sub	sp, #8
 800326a:	681b      	ldr	r3, [r3, #0]
 800326c:	9301      	str	r3, [sp, #4]
 800326e:	9b01      	ldr	r3, [sp, #4]
 8003270:	b002      	add	sp, #8
 8003272:	4770      	bx	lr
 8003274:	420e0020 	.word	0x420e0020
 8003278:	40007000 	.word	0x40007000

0800327c <HAL_PWR_DisableBkUpAccess>:
 800327c:	4b04      	ldr	r3, [pc, #16]	; (8003290 <HAL_PWR_DisableBkUpAccess+0x14>)
 800327e:	2200      	movs	r2, #0
 8003280:	601a      	str	r2, [r3, #0]
 8003282:	4b04      	ldr	r3, [pc, #16]	; (8003294 <HAL_PWR_DisableBkUpAccess+0x18>)
 8003284:	b082      	sub	sp, #8
 8003286:	681b      	ldr	r3, [r3, #0]
 8003288:	9301      	str	r3, [sp, #4]
 800328a:	9b01      	ldr	r3, [sp, #4]
 800328c:	b002      	add	sp, #8
 800328e:	4770      	bx	lr
 8003290:	420e0020 	.word	0x420e0020
 8003294:	40007000 	.word	0x40007000

08003298 <HAL_RCC_OscConfig>:
 8003298:	e92d 41f3 	stmdb	sp!, {r0, r1, r4, r5, r6, r7, r8, lr}
 800329c:	4604      	mov	r4, r0
 800329e:	b340      	cbz	r0, 80032f2 <HAL_RCC_OscConfig+0x5a>
 80032a0:	6803      	ldr	r3, [r0, #0]
 80032a2:	07dd      	lsls	r5, r3, #31
 80032a4:	d410      	bmi.n	80032c8 <HAL_RCC_OscConfig+0x30>
 80032a6:	6823      	ldr	r3, [r4, #0]
 80032a8:	0798      	lsls	r0, r3, #30
 80032aa:	d45e      	bmi.n	800336a <HAL_RCC_OscConfig+0xd2>
 80032ac:	6823      	ldr	r3, [r4, #0]
 80032ae:	071a      	lsls	r2, r3, #28
 80032b0:	f100 80a0 	bmi.w	80033f4 <HAL_RCC_OscConfig+0x15c>
 80032b4:	6823      	ldr	r3, [r4, #0]
 80032b6:	075b      	lsls	r3, r3, #29
 80032b8:	f100 80be 	bmi.w	8003438 <HAL_RCC_OscConfig+0x1a0>
 80032bc:	69a0      	ldr	r0, [r4, #24]
 80032be:	2800      	cmp	r0, #0
 80032c0:	f040 811f 	bne.w	8003502 <HAL_RCC_OscConfig+0x26a>
 80032c4:	2000      	movs	r0, #0
 80032c6:	e02b      	b.n	8003320 <HAL_RCC_OscConfig+0x88>
 80032c8:	4ba6      	ldr	r3, [pc, #664]	; (8003564 <HAL_RCC_OscConfig+0x2cc>)
 80032ca:	689a      	ldr	r2, [r3, #8]
 80032cc:	f002 020c 	and.w	r2, r2, #12
 80032d0:	2a04      	cmp	r2, #4
 80032d2:	d007      	beq.n	80032e4 <HAL_RCC_OscConfig+0x4c>
 80032d4:	689a      	ldr	r2, [r3, #8]
 80032d6:	f002 020c 	and.w	r2, r2, #12
 80032da:	2a08      	cmp	r2, #8
 80032dc:	d10b      	bne.n	80032f6 <HAL_RCC_OscConfig+0x5e>
 80032de:	685a      	ldr	r2, [r3, #4]
 80032e0:	0251      	lsls	r1, r2, #9
 80032e2:	d508      	bpl.n	80032f6 <HAL_RCC_OscConfig+0x5e>
 80032e4:	4b9f      	ldr	r3, [pc, #636]	; (8003564 <HAL_RCC_OscConfig+0x2cc>)
 80032e6:	681b      	ldr	r3, [r3, #0]
 80032e8:	039a      	lsls	r2, r3, #14
 80032ea:	d5dc      	bpl.n	80032a6 <HAL_RCC_OscConfig+0xe>
 80032ec:	6863      	ldr	r3, [r4, #4]
 80032ee:	2b00      	cmp	r3, #0
 80032f0:	d1d9      	bne.n	80032a6 <HAL_RCC_OscConfig+0xe>
 80032f2:	2001      	movs	r0, #1
 80032f4:	e014      	b.n	8003320 <HAL_RCC_OscConfig+0x88>
 80032f6:	6862      	ldr	r2, [r4, #4]
 80032f8:	f5b2 3f80 	cmp.w	r2, #65536	; 0x10000
 80032fc:	d113      	bne.n	8003326 <HAL_RCC_OscConfig+0x8e>
 80032fe:	681a      	ldr	r2, [r3, #0]
 8003300:	f442 3280 	orr.w	r2, r2, #65536	; 0x10000
 8003304:	601a      	str	r2, [r3, #0]
 8003306:	f7ff fbcd 	bl	8002aa4 <HAL_GetTick>
 800330a:	4e96      	ldr	r6, [pc, #600]	; (8003564 <HAL_RCC_OscConfig+0x2cc>)
 800330c:	4605      	mov	r5, r0
 800330e:	6833      	ldr	r3, [r6, #0]
 8003310:	039b      	lsls	r3, r3, #14
 8003312:	d4c8      	bmi.n	80032a6 <HAL_RCC_OscConfig+0xe>
 8003314:	f7ff fbc6 	bl	8002aa4 <HAL_GetTick>
 8003318:	1b40      	subs	r0, r0, r5
 800331a:	2864      	cmp	r0, #100	; 0x64
 800331c:	d9f7      	bls.n	800330e <HAL_RCC_OscConfig+0x76>
 800331e:	2003      	movs	r0, #3
 8003320:	b002      	add	sp, #8
 8003322:	e8bd 81f0 	ldmia.w	sp!, {r4, r5, r6, r7, r8, pc}
 8003326:	4d8f      	ldr	r5, [pc, #572]	; (8003564 <HAL_RCC_OscConfig+0x2cc>)
 8003328:	f5b2 2fa0 	cmp.w	r2, #327680	; 0x50000
 800332c:	682b      	ldr	r3, [r5, #0]
 800332e:	d107      	bne.n	8003340 <HAL_RCC_OscConfig+0xa8>
 8003330:	f443 2380 	orr.w	r3, r3, #262144	; 0x40000
 8003334:	602b      	str	r3, [r5, #0]
 8003336:	682b      	ldr	r3, [r5, #0]
 8003338:	f443 3380 	orr.w	r3, r3, #65536	; 0x10000
 800333c:	602b      	str	r3, [r5, #0]
 800333e:	e7e2      	b.n	8003306 <HAL_RCC_OscConfig+0x6e>
 8003340:	f423 3380 	bic.w	r3, r3, #65536	; 0x10000
 8003344:	602b      	str	r3, [r5, #0]
 8003346:	682b      	ldr	r3, [r5, #0]
 8003348:	f423 2380 	bic.w	r3, r3, #262144	; 0x40000
 800334c:	602b      	str	r3, [r5, #0]
 800334e:	2a00      	cmp	r2, #0
 8003350:	d1d9      	bne.n	8003306 <HAL_RCC_OscConfig+0x6e>
 8003352:	f7ff fba7 	bl	8002aa4 <HAL_GetTick>
 8003356:	4606      	mov	r6, r0
 8003358:	682b      	ldr	r3, [r5, #0]
 800335a:	039f      	lsls	r7, r3, #14
 800335c:	d5a3      	bpl.n	80032a6 <HAL_RCC_OscConfig+0xe>
 800335e:	f7ff fba1 	bl	8002aa4 <HAL_GetTick>
 8003362:	1b80      	subs	r0, r0, r6
 8003364:	2864      	cmp	r0, #100	; 0x64
 8003366:	d9f7      	bls.n	8003358 <HAL_RCC_OscConfig+0xc0>
 8003368:	e7d9      	b.n	800331e <HAL_RCC_OscConfig+0x86>
 800336a:	4b7e      	ldr	r3, [pc, #504]	; (8003564 <HAL_RCC_OscConfig+0x2cc>)
 800336c:	689a      	ldr	r2, [r3, #8]
 800336e:	f012 0f0c 	tst.w	r2, #12
 8003372:	d007      	beq.n	8003384 <HAL_RCC_OscConfig+0xec>
 8003374:	689a      	ldr	r2, [r3, #8]
 8003376:	f002 020c 	and.w	r2, r2, #12
 800337a:	2a08      	cmp	r2, #8
 800337c:	d111      	bne.n	80033a2 <HAL_RCC_OscConfig+0x10a>
 800337e:	685b      	ldr	r3, [r3, #4]
 8003380:	025e      	lsls	r6, r3, #9
 8003382:	d40e      	bmi.n	80033a2 <HAL_RCC_OscConfig+0x10a>
 8003384:	4b77      	ldr	r3, [pc, #476]	; (8003564 <HAL_RCC_OscConfig+0x2cc>)
 8003386:	681a      	ldr	r2, [r3, #0]
 8003388:	0795      	lsls	r5, r2, #30
 800338a:	d502      	bpl.n	8003392 <HAL_RCC_OscConfig+0xfa>
 800338c:	68e2      	ldr	r2, [r4, #12]
 800338e:	2a01      	cmp	r2, #1
 8003390:	d1af      	bne.n	80032f2 <HAL_RCC_OscConfig+0x5a>
 8003392:	681a      	ldr	r2, [r3, #0]
 8003394:	6921      	ldr	r1, [r4, #16]
 8003396:	f022 02f8 	bic.w	r2, r2, #248	; 0xf8
 800339a:	ea42 02c1 	orr.w	r2, r2, r1, lsl #3
 800339e:	601a      	str	r2, [r3, #0]
 80033a0:	e784      	b.n	80032ac <HAL_RCC_OscConfig+0x14>
 80033a2:	68e2      	ldr	r2, [r4, #12]
 80033a4:	4b70      	ldr	r3, [pc, #448]	; (8003568 <HAL_RCC_OscConfig+0x2d0>)
 80033a6:	b1b2      	cbz	r2, 80033d6 <HAL_RCC_OscConfig+0x13e>
 80033a8:	2201      	movs	r2, #1
 80033aa:	601a      	str	r2, [r3, #0]
 80033ac:	f7ff fb7a 	bl	8002aa4 <HAL_GetTick>
 80033b0:	4d6c      	ldr	r5, [pc, #432]	; (8003564 <HAL_RCC_OscConfig+0x2cc>)
 80033b2:	4606      	mov	r6, r0
 80033b4:	682b      	ldr	r3, [r5, #0]
 80033b6:	0798      	lsls	r0, r3, #30
 80033b8:	d507      	bpl.n	80033ca <HAL_RCC_OscConfig+0x132>
 80033ba:	682b      	ldr	r3, [r5, #0]
 80033bc:	6922      	ldr	r2, [r4, #16]
 80033be:	f023 03f8 	bic.w	r3, r3, #248	; 0xf8
 80033c2:	ea43 03c2 	orr.w	r3, r3, r2, lsl #3
 80033c6:	602b      	str	r3, [r5, #0]
 80033c8:	e770      	b.n	80032ac <HAL_RCC_OscConfig+0x14>
 80033ca:	f7ff fb6b 	bl	8002aa4 <HAL_GetTick>
 80033ce:	1b80      	subs	r0, r0, r6
 80033d0:	2802      	cmp	r0, #2
 80033d2:	d9ef      	bls.n	80033b4 <HAL_RCC_OscConfig+0x11c>
 80033d4:	e7a3      	b.n	800331e <HAL_RCC_OscConfig+0x86>
 80033d6:	601a      	str	r2, [r3, #0]
 80033d8:	f7ff fb64 	bl	8002aa4 <HAL_GetTick>
 80033dc:	4e61      	ldr	r6, [pc, #388]	; (8003564 <HAL_RCC_OscConfig+0x2cc>)
 80033de:	4605      	mov	r5, r0
 80033e0:	6833      	ldr	r3, [r6, #0]
 80033e2:	0799      	lsls	r1, r3, #30
 80033e4:	f57f af62 	bpl.w	80032ac <HAL_RCC_OscConfig+0x14>
 80033e8:	f7ff fb5c 	bl	8002aa4 <HAL_GetTick>
 80033ec:	1b40      	subs	r0, r0, r5
 80033ee:	2802      	cmp	r0, #2
 80033f0:	d9f6      	bls.n	80033e0 <HAL_RCC_OscConfig+0x148>
 80033f2:	e794      	b.n	800331e <HAL_RCC_OscConfig+0x86>
 80033f4:	6962      	ldr	r2, [r4, #20]
 80033f6:	4b5d      	ldr	r3, [pc, #372]	; (800356c <HAL_RCC_OscConfig+0x2d4>)
 80033f8:	b17a      	cbz	r2, 800341a <HAL_RCC_OscConfig+0x182>
 80033fa:	2201      	movs	r2, #1
 80033fc:	601a      	str	r2, [r3, #0]
 80033fe:	f7ff fb51 	bl	8002aa4 <HAL_GetTick>
 8003402:	4e58      	ldr	r6, [pc, #352]	; (8003564 <HAL_RCC_OscConfig+0x2cc>)
 8003404:	4605      	mov	r5, r0
 8003406:	6f73      	ldr	r3, [r6, #116]	; 0x74
 8003408:	079f      	lsls	r7, r3, #30
 800340a:	f53f af53 	bmi.w	80032b4 <HAL_RCC_OscConfig+0x1c>
 800340e:	f7ff fb49 	bl	8002aa4 <HAL_GetTick>
 8003412:	1b40      	subs	r0, r0, r5
 8003414:	2802      	cmp	r0, #2
 8003416:	d9f6      	bls.n	8003406 <HAL_RCC_OscConfig+0x16e>
 8003418:	e781      	b.n	800331e <HAL_RCC_OscConfig+0x86>
 800341a:	601a      	str	r2, [r3, #0]
 800341c:	f7ff fb42 	bl	8002aa4 <HAL_GetTick>
 8003420:	4e50      	ldr	r6, [pc, #320]	; (8003564 <HAL_RCC_OscConfig+0x2cc>)
 8003422:	4605      	mov	r5, r0
 8003424:	6f73      	ldr	r3, [r6, #116]	; 0x74
 8003426:	0798      	lsls	r0, r3, #30
 8003428:	f57f af44 	bpl.w	80032b4 <HAL_RCC_OscConfig+0x1c>
 800342c:	f7ff fb3a 	bl	8002aa4 <HAL_GetTick>
 8003430:	1b40      	subs	r0, r0, r5
 8003432:	2802      	cmp	r0, #2
 8003434:	d9f6      	bls.n	8003424 <HAL_RCC_OscConfig+0x18c>
 8003436:	e772      	b.n	800331e <HAL_RCC_OscConfig+0x86>
 8003438:	4b4a      	ldr	r3, [pc, #296]	; (8003564 <HAL_RCC_OscConfig+0x2cc>)
 800343a:	6c1a      	ldr	r2, [r3, #64]	; 0x40
 800343c:	f012 5280 	ands.w	r2, r2, #268435456	; 0x10000000
 8003440:	d128      	bne.n	8003494 <HAL_RCC_OscConfig+0x1fc>
 8003442:	9201      	str	r2, [sp, #4]
 8003444:	6c1a      	ldr	r2, [r3, #64]	; 0x40
 8003446:	f042 5280 	orr.w	r2, r2, #268435456	; 0x10000000
 800344a:	641a      	str	r2, [r3, #64]	; 0x40
 800344c:	6c1b      	ldr	r3, [r3, #64]	; 0x40
 800344e:	f003 5380 	and.w	r3, r3, #268435456	; 0x10000000
 8003452:	9301      	str	r3, [sp, #4]
 8003454:	9b01      	ldr	r3, [sp, #4]
 8003456:	2701      	movs	r7, #1
 8003458:	4d45      	ldr	r5, [pc, #276]	; (8003570 <HAL_RCC_OscConfig+0x2d8>)
 800345a:	682b      	ldr	r3, [r5, #0]
 800345c:	05d9      	lsls	r1, r3, #23
 800345e:	d51b      	bpl.n	8003498 <HAL_RCC_OscConfig+0x200>
 8003460:	68a3      	ldr	r3, [r4, #8]
 8003462:	4d40      	ldr	r5, [pc, #256]	; (8003564 <HAL_RCC_OscConfig+0x2cc>)
 8003464:	2b01      	cmp	r3, #1
 8003466:	d127      	bne.n	80034b8 <HAL_RCC_OscConfig+0x220>
 8003468:	6f2b      	ldr	r3, [r5, #112]	; 0x70
 800346a:	f043 0301 	orr.w	r3, r3, #1
 800346e:	672b      	str	r3, [r5, #112]	; 0x70
 8003470:	f7ff fb18 	bl	8002aa4 <HAL_GetTick>
 8003474:	4e3b      	ldr	r6, [pc, #236]	; (8003564 <HAL_RCC_OscConfig+0x2cc>)
 8003476:	4605      	mov	r5, r0
 8003478:	f241 3888 	movw	r8, #5000	; 0x1388
 800347c:	6f33      	ldr	r3, [r6, #112]	; 0x70
 800347e:	079b      	lsls	r3, r3, #30
 8003480:	d539      	bpl.n	80034f6 <HAL_RCC_OscConfig+0x25e>
 8003482:	2f00      	cmp	r7, #0
 8003484:	f43f af1a 	beq.w	80032bc <HAL_RCC_OscConfig+0x24>
 8003488:	4a36      	ldr	r2, [pc, #216]	; (8003564 <HAL_RCC_OscConfig+0x2cc>)
 800348a:	6c13      	ldr	r3, [r2, #64]	; 0x40
 800348c:	f023 5380 	bic.w	r3, r3, #268435456	; 0x10000000
 8003490:	6413      	str	r3, [r2, #64]	; 0x40
 8003492:	e713      	b.n	80032bc <HAL_RCC_OscConfig+0x24>
 8003494:	2700      	movs	r7, #0
 8003496:	e7df      	b.n	8003458 <HAL_RCC_OscConfig+0x1c0>
 8003498:	682b      	ldr	r3, [r5, #0]
 800349a:	f443 7380 	orr.w	r3, r3, #256	; 0x100
 800349e:	602b      	str	r3, [r5, #0]
 80034a0:	f7ff fb00 	bl	8002aa4 <HAL_GetTick>
 80034a4:	4606      	mov	r6, r0
 80034a6:	682b      	ldr	r3, [r5, #0]
 80034a8:	05da      	lsls	r2, r3, #23
 80034aa:	d4d9      	bmi.n	8003460 <HAL_RCC_OscConfig+0x1c8>
 80034ac:	f7ff fafa 	bl	8002aa4 <HAL_GetTick>
 80034b0:	1b80      	subs	r0, r0, r6
 80034b2:	2802      	cmp	r0, #2
 80034b4:	d9f7      	bls.n	80034a6 <HAL_RCC_OscConfig+0x20e>
 80034b6:	e732      	b.n	800331e <HAL_RCC_OscConfig+0x86>
 80034b8:	2b05      	cmp	r3, #5
 80034ba:	d104      	bne.n	80034c6 <HAL_RCC_OscConfig+0x22e>
 80034bc:	6f2b      	ldr	r3, [r5, #112]	; 0x70
 80034be:	f043 0304 	orr.w	r3, r3, #4
 80034c2:	672b      	str	r3, [r5, #112]	; 0x70
 80034c4:	e7d0      	b.n	8003468 <HAL_RCC_OscConfig+0x1d0>
 80034c6:	6f2a      	ldr	r2, [r5, #112]	; 0x70
 80034c8:	f022 0201 	bic.w	r2, r2, #1
 80034cc:	672a      	str	r2, [r5, #112]	; 0x70
 80034ce:	6f2a      	ldr	r2, [r5, #112]	; 0x70
 80034d0:	f022 0204 	bic.w	r2, r2, #4
 80034d4:	672a      	str	r2, [r5, #112]	; 0x70
 80034d6:	2b00      	cmp	r3, #0
 80034d8:	d1ca      	bne.n	8003470 <HAL_RCC_OscConfig+0x1d8>
 80034da:	f7ff fae3 	bl	8002aa4 <HAL_GetTick>
 80034de:	f241 3888 	movw	r8, #5000	; 0x1388
 80034e2:	4606      	mov	r6, r0
 80034e4:	6f2b      	ldr	r3, [r5, #112]	; 0x70
 80034e6:	0798      	lsls	r0, r3, #30
 80034e8:	d5cb      	bpl.n	8003482 <HAL_RCC_OscConfig+0x1ea>
 80034ea:	f7ff fadb 	bl	8002aa4 <HAL_GetTick>
 80034ee:	1b80      	subs	r0, r0, r6
 80034f0:	4540      	cmp	r0, r8
 80034f2:	d9f7      	bls.n	80034e4 <HAL_RCC_OscConfig+0x24c>
 80034f4:	e713      	b.n	800331e <HAL_RCC_OscConfig+0x86>
 80034f6:	f7ff fad5 	bl	8002aa4 <HAL_GetTick>
 80034fa:	1b40      	subs	r0, r0, r5
 80034fc:	4540      	cmp	r0, r8
 80034fe:	d9bd      	bls.n	800347c <HAL_RCC_OscConfig+0x1e4>
 8003500:	e70d      	b.n	800331e <HAL_RCC_OscConfig+0x86>
 8003502:	4d18      	ldr	r5, [pc, #96]	; (8003564 <HAL_RCC_OscConfig+0x2cc>)
 8003504:	68ab      	ldr	r3, [r5, #8]
 8003506:	f003 030c 	and.w	r3, r3, #12
 800350a:	2b08      	cmp	r3, #8
 800350c:	d047      	beq.n	800359e <HAL_RCC_OscConfig+0x306>
 800350e:	4e19      	ldr	r6, [pc, #100]	; (8003574 <HAL_RCC_OscConfig+0x2dc>)
 8003510:	2300      	movs	r3, #0
 8003512:	2802      	cmp	r0, #2
 8003514:	6033      	str	r3, [r6, #0]
 8003516:	d135      	bne.n	8003584 <HAL_RCC_OscConfig+0x2ec>
 8003518:	f7ff fac4 	bl	8002aa4 <HAL_GetTick>
 800351c:	4607      	mov	r7, r0
 800351e:	682b      	ldr	r3, [r5, #0]
 8003520:	0199      	lsls	r1, r3, #6
 8003522:	d429      	bmi.n	8003578 <HAL_RCC_OscConfig+0x2e0>
 8003524:	e9d4 3207 	ldrd	r3, r2, [r4, #28]
 8003528:	4313      	orrs	r3, r2
 800352a:	6a62      	ldr	r2, [r4, #36]	; 0x24
 800352c:	ea43 1382 	orr.w	r3, r3, r2, lsl #6
 8003530:	6ae2      	ldr	r2, [r4, #44]	; 0x2c
 8003532:	ea43 6302 	orr.w	r3, r3, r2, lsl #24
 8003536:	6aa2      	ldr	r2, [r4, #40]	; 0x28
 8003538:	0852      	lsrs	r2, r2, #1
 800353a:	3a01      	subs	r2, #1
 800353c:	ea43 4302 	orr.w	r3, r3, r2, lsl #16
 8003540:	606b      	str	r3, [r5, #4]
 8003542:	2301      	movs	r3, #1
 8003544:	6033      	str	r3, [r6, #0]
 8003546:	f7ff faad 	bl	8002aa4 <HAL_GetTick>
 800354a:	4d06      	ldr	r5, [pc, #24]	; (8003564 <HAL_RCC_OscConfig+0x2cc>)
 800354c:	4604      	mov	r4, r0
 800354e:	682b      	ldr	r3, [r5, #0]
 8003550:	019a      	lsls	r2, r3, #6
 8003552:	f53f aeb7 	bmi.w	80032c4 <HAL_RCC_OscConfig+0x2c>
 8003556:	f7ff faa5 	bl	8002aa4 <HAL_GetTick>
 800355a:	1b00      	subs	r0, r0, r4
 800355c:	2802      	cmp	r0, #2
 800355e:	d9f6      	bls.n	800354e <HAL_RCC_OscConfig+0x2b6>
 8003560:	e6dd      	b.n	800331e <HAL_RCC_OscConfig+0x86>
 8003562:	bf00      	nop
 8003564:	40023800 	.word	0x40023800
 8003568:	42470000 	.word	0x42470000
 800356c:	42470e80 	.word	0x42470e80
 8003570:	40007000 	.word	0x40007000
 8003574:	42470060 	.word	0x42470060
 8003578:	f7ff fa94 	bl	8002aa4 <HAL_GetTick>
 800357c:	1bc0      	subs	r0, r0, r7
 800357e:	2802      	cmp	r0, #2
 8003580:	d9cd      	bls.n	800351e <HAL_RCC_OscConfig+0x286>
 8003582:	e6cc      	b.n	800331e <HAL_RCC_OscConfig+0x86>
 8003584:	f7ff fa8e 	bl	8002aa4 <HAL_GetTick>
 8003588:	4604      	mov	r4, r0
 800358a:	682b      	ldr	r3, [r5, #0]
 800358c:	019b      	lsls	r3, r3, #6
 800358e:	f57f ae99 	bpl.w	80032c4 <HAL_RCC_OscConfig+0x2c>
 8003592:	f7ff fa87 	bl	8002aa4 <HAL_GetTick>
 8003596:	1b00      	subs	r0, r0, r4
 8003598:	2802      	cmp	r0, #2
 800359a:	d9f6      	bls.n	800358a <HAL_RCC_OscConfig+0x2f2>
 800359c:	e6bf      	b.n	800331e <HAL_RCC_OscConfig+0x86>
 800359e:	2801      	cmp	r0, #1
 80035a0:	f43f aebe 	beq.w	8003320 <HAL_RCC_OscConfig+0x88>
 80035a4:	686b      	ldr	r3, [r5, #4]
 80035a6:	69e2      	ldr	r2, [r4, #28]
 80035a8:	f403 0180 	and.w	r1, r3, #4194304	; 0x400000
 80035ac:	4291      	cmp	r1, r2
 80035ae:	f47f aea0 	bne.w	80032f2 <HAL_RCC_OscConfig+0x5a>
 80035b2:	6a21      	ldr	r1, [r4, #32]
 80035b4:	f003 023f 	and.w	r2, r3, #63	; 0x3f
 80035b8:	428a      	cmp	r2, r1
 80035ba:	f47f ae9a 	bne.w	80032f2 <HAL_RCC_OscConfig+0x5a>
 80035be:	6a61      	ldr	r1, [r4, #36]	; 0x24
 80035c0:	f647 72c0 	movw	r2, #32704	; 0x7fc0
 80035c4:	401a      	ands	r2, r3
 80035c6:	ebb2 1f81 	cmp.w	r2, r1, lsl #6
 80035ca:	f47f ae92 	bne.w	80032f2 <HAL_RCC_OscConfig+0x5a>
 80035ce:	6aa2      	ldr	r2, [r4, #40]	; 0x28
 80035d0:	0852      	lsrs	r2, r2, #1
 80035d2:	f403 3140 	and.w	r1, r3, #196608	; 0x30000
 80035d6:	3a01      	subs	r2, #1
 80035d8:	ebb1 4f02 	cmp.w	r1, r2, lsl #16
 80035dc:	f47f ae89 	bne.w	80032f2 <HAL_RCC_OscConfig+0x5a>
 80035e0:	6ae2      	ldr	r2, [r4, #44]	; 0x2c
 80035e2:	f003 6370 	and.w	r3, r3, #251658240	; 0xf000000
 80035e6:	ebb3 6f02 	cmp.w	r3, r2, lsl #24
 80035ea:	f43f ae6b 	beq.w	80032c4 <HAL_RCC_OscConfig+0x2c>
 80035ee:	e680      	b.n	80032f2 <HAL_RCC_OscConfig+0x5a>

080035f0 <HAL_RCC_GetSysClockFreq>:
 80035f0:	4913      	ldr	r1, [pc, #76]	; (8003640 <HAL_RCC_GetSysClockFreq+0x50>)
 80035f2:	b508      	push	{r3, lr}
 80035f4:	688b      	ldr	r3, [r1, #8]
 80035f6:	f003 030c 	and.w	r3, r3, #12
 80035fa:	2b04      	cmp	r3, #4
 80035fc:	d01c      	beq.n	8003638 <HAL_RCC_GetSysClockFreq+0x48>
 80035fe:	2b08      	cmp	r3, #8
 8003600:	d11c      	bne.n	800363c <HAL_RCC_GetSysClockFreq+0x4c>
 8003602:	684a      	ldr	r2, [r1, #4]
 8003604:	684b      	ldr	r3, [r1, #4]
 8003606:	6849      	ldr	r1, [r1, #4]
 8003608:	f413 0380 	ands.w	r3, r3, #4194304	; 0x400000
 800360c:	bf14      	ite	ne
 800360e:	480d      	ldrne	r0, [pc, #52]	; (8003644 <HAL_RCC_GetSysClockFreq+0x54>)
 8003610:	480d      	ldreq	r0, [pc, #52]	; (8003648 <HAL_RCC_GetSysClockFreq+0x58>)
 8003612:	f3c1 1188 	ubfx	r1, r1, #6, #9
 8003616:	bf18      	it	ne
 8003618:	2300      	movne	r3, #0
 800361a:	f002 023f 	and.w	r2, r2, #63	; 0x3f
 800361e:	fba1 0100 	umull	r0, r1, r1, r0
 8003622:	f7fd f9a3 	bl	800096c <__aeabi_uldivmod>
 8003626:	4b06      	ldr	r3, [pc, #24]	; (8003640 <HAL_RCC_GetSysClockFreq+0x50>)
 8003628:	685b      	ldr	r3, [r3, #4]
 800362a:	f3c3 4301 	ubfx	r3, r3, #16, #2
 800362e:	3301      	adds	r3, #1
 8003630:	005b      	lsls	r3, r3, #1
 8003632:	fbb0 f0f3 	udiv	r0, r0, r3
 8003636:	bd08      	pop	{r3, pc}
 8003638:	4802      	ldr	r0, [pc, #8]	; (8003644 <HAL_RCC_GetSysClockFreq+0x54>)
 800363a:	e7fc      	b.n	8003636 <HAL_RCC_GetSysClockFreq+0x46>
 800363c:	4802      	ldr	r0, [pc, #8]	; (8003648 <HAL_RCC_GetSysClockFreq+0x58>)
 800363e:	e7fa      	b.n	8003636 <HAL_RCC_GetSysClockFreq+0x46>
 8003640:	40023800 	.word	0x40023800
 8003644:	017d7840 	.word	0x017d7840
 8003648:	00f42400 	.word	0x00f42400

0800364c <HAL_RCC_ClockConfig>:
 800364c:	e92d 41f0 	stmdb	sp!, {r4, r5, r6, r7, r8, lr}
 8003650:	460d      	mov	r5, r1
 8003652:	4604      	mov	r4, r0
 8003654:	b910      	cbnz	r0, 800365c <HAL_RCC_ClockConfig+0x10>
 8003656:	2001      	movs	r0, #1
 8003658:	e8bd 81f0 	ldmia.w	sp!, {r4, r5, r6, r7, r8, pc}
 800365c:	4b44      	ldr	r3, [pc, #272]	; (8003770 <HAL_RCC_ClockConfig+0x124>)
 800365e:	681a      	ldr	r2, [r3, #0]
 8003660:	f002 0207 	and.w	r2, r2, #7
 8003664:	428a      	cmp	r2, r1
 8003666:	d328      	bcc.n	80036ba <HAL_RCC_ClockConfig+0x6e>
 8003668:	6822      	ldr	r2, [r4, #0]
 800366a:	0797      	lsls	r7, r2, #30
 800366c:	d42d      	bmi.n	80036ca <HAL_RCC_ClockConfig+0x7e>
 800366e:	07d0      	lsls	r0, r2, #31
 8003670:	d441      	bmi.n	80036f6 <HAL_RCC_ClockConfig+0xaa>
 8003672:	4b3f      	ldr	r3, [pc, #252]	; (8003770 <HAL_RCC_ClockConfig+0x124>)
 8003674:	681a      	ldr	r2, [r3, #0]
 8003676:	f002 0207 	and.w	r2, r2, #7
 800367a:	42aa      	cmp	r2, r5
 800367c:	d866      	bhi.n	800374c <HAL_RCC_ClockConfig+0x100>
 800367e:	6822      	ldr	r2, [r4, #0]
 8003680:	0751      	lsls	r1, r2, #29
 8003682:	d46c      	bmi.n	800375e <HAL_RCC_ClockConfig+0x112>
 8003684:	0713      	lsls	r3, r2, #28
 8003686:	d507      	bpl.n	8003698 <HAL_RCC_ClockConfig+0x4c>
 8003688:	4a3a      	ldr	r2, [pc, #232]	; (8003774 <HAL_RCC_ClockConfig+0x128>)
 800368a:	6921      	ldr	r1, [r4, #16]
 800368c:	6893      	ldr	r3, [r2, #8]
 800368e:	f423 4360 	bic.w	r3, r3, #57344	; 0xe000
 8003692:	ea43 03c1 	orr.w	r3, r3, r1, lsl #3
 8003696:	6093      	str	r3, [r2, #8]
 8003698:	f7ff ffaa 	bl	80035f0 <HAL_RCC_GetSysClockFreq>
 800369c:	4b35      	ldr	r3, [pc, #212]	; (8003774 <HAL_RCC_ClockConfig+0x128>)
 800369e:	4a36      	ldr	r2, [pc, #216]	; (8003778 <HAL_RCC_ClockConfig+0x12c>)
 80036a0:	689b      	ldr	r3, [r3, #8]
 80036a2:	f3c3 1303 	ubfx	r3, r3, #4, #4
 80036a6:	5cd3      	ldrb	r3, [r2, r3]
 80036a8:	40d8      	lsrs	r0, r3
 80036aa:	4b34      	ldr	r3, [pc, #208]	; (800377c <HAL_RCC_ClockConfig+0x130>)
 80036ac:	6018      	str	r0, [r3, #0]
 80036ae:	4b34      	ldr	r3, [pc, #208]	; (8003780 <HAL_RCC_ClockConfig+0x134>)
 80036b0:	6818      	ldr	r0, [r3, #0]
 80036b2:	f7ff f9ad 	bl	8002a10 <HAL_InitTick>
 80036b6:	2000      	movs	r0, #0
 80036b8:	e7ce      	b.n	8003658 <HAL_RCC_ClockConfig+0xc>
 80036ba:	b2ca      	uxtb	r2, r1
 80036bc:	701a      	strb	r2, [r3, #0]
 80036be:	681b      	ldr	r3, [r3, #0]
 80036c0:	f003 0307 	and.w	r3, r3, #7
 80036c4:	428b      	cmp	r3, r1
 80036c6:	d1c6      	bne.n	8003656 <HAL_RCC_ClockConfig+0xa>
 80036c8:	e7ce      	b.n	8003668 <HAL_RCC_ClockConfig+0x1c>
 80036ca:	4b2a      	ldr	r3, [pc, #168]	; (8003774 <HAL_RCC_ClockConfig+0x128>)
 80036cc:	f012 0f04 	tst.w	r2, #4
 80036d0:	bf1e      	ittt	ne
 80036d2:	6899      	ldrne	r1, [r3, #8]
 80036d4:	f441 51e0 	orrne.w	r1, r1, #7168	; 0x1c00
 80036d8:	6099      	strne	r1, [r3, #8]
 80036da:	0716      	lsls	r6, r2, #28
 80036dc:	bf42      	ittt	mi
 80036de:	6899      	ldrmi	r1, [r3, #8]
 80036e0:	f441 4160 	orrmi.w	r1, r1, #57344	; 0xe000
 80036e4:	6099      	strmi	r1, [r3, #8]
 80036e6:	4923      	ldr	r1, [pc, #140]	; (8003774 <HAL_RCC_ClockConfig+0x128>)
 80036e8:	68a0      	ldr	r0, [r4, #8]
 80036ea:	688b      	ldr	r3, [r1, #8]
 80036ec:	f023 03f0 	bic.w	r3, r3, #240	; 0xf0
 80036f0:	4303      	orrs	r3, r0
 80036f2:	608b      	str	r3, [r1, #8]
 80036f4:	e7bb      	b.n	800366e <HAL_RCC_ClockConfig+0x22>
 80036f6:	6862      	ldr	r2, [r4, #4]
 80036f8:	4b1e      	ldr	r3, [pc, #120]	; (8003774 <HAL_RCC_ClockConfig+0x128>)
 80036fa:	2a01      	cmp	r2, #1
 80036fc:	d11c      	bne.n	8003738 <HAL_RCC_ClockConfig+0xec>
 80036fe:	681b      	ldr	r3, [r3, #0]
 8003700:	f413 3f00 	tst.w	r3, #131072	; 0x20000
 8003704:	d0a7      	beq.n	8003656 <HAL_RCC_ClockConfig+0xa>
 8003706:	4e1b      	ldr	r6, [pc, #108]	; (8003774 <HAL_RCC_ClockConfig+0x128>)
 8003708:	68b3      	ldr	r3, [r6, #8]
 800370a:	f023 0303 	bic.w	r3, r3, #3
 800370e:	4313      	orrs	r3, r2
 8003710:	60b3      	str	r3, [r6, #8]
 8003712:	f7ff f9c7 	bl	8002aa4 <HAL_GetTick>
 8003716:	f241 3888 	movw	r8, #5000	; 0x1388
 800371a:	4607      	mov	r7, r0
 800371c:	68b3      	ldr	r3, [r6, #8]
 800371e:	6862      	ldr	r2, [r4, #4]
 8003720:	f003 030c 	and.w	r3, r3, #12
 8003724:	ebb3 0f82 	cmp.w	r3, r2, lsl #2
 8003728:	d0a3      	beq.n	8003672 <HAL_RCC_ClockConfig+0x26>
 800372a:	f7ff f9bb 	bl	8002aa4 <HAL_GetTick>
 800372e:	1bc0      	subs	r0, r0, r7
 8003730:	4540      	cmp	r0, r8
 8003732:	d9f3      	bls.n	800371c <HAL_RCC_ClockConfig+0xd0>
 8003734:	2003      	movs	r0, #3
 8003736:	e78f      	b.n	8003658 <HAL_RCC_ClockConfig+0xc>
 8003738:	1e91      	subs	r1, r2, #2
 800373a:	2901      	cmp	r1, #1
 800373c:	681b      	ldr	r3, [r3, #0]
 800373e:	d802      	bhi.n	8003746 <HAL_RCC_ClockConfig+0xfa>
 8003740:	f013 7f00 	tst.w	r3, #33554432	; 0x2000000
 8003744:	e7de      	b.n	8003704 <HAL_RCC_ClockConfig+0xb8>
 8003746:	f013 0f02 	tst.w	r3, #2
 800374a:	e7db      	b.n	8003704 <HAL_RCC_ClockConfig+0xb8>
 800374c:	b2ea      	uxtb	r2, r5
 800374e:	701a      	strb	r2, [r3, #0]
 8003750:	681b      	ldr	r3, [r3, #0]
 8003752:	f003 0307 	and.w	r3, r3, #7
 8003756:	42ab      	cmp	r3, r5
 8003758:	f47f af7d 	bne.w	8003656 <HAL_RCC_ClockConfig+0xa>
 800375c:	e78f      	b.n	800367e <HAL_RCC_ClockConfig+0x32>
 800375e:	4905      	ldr	r1, [pc, #20]	; (8003774 <HAL_RCC_ClockConfig+0x128>)
 8003760:	68e0      	ldr	r0, [r4, #12]
 8003762:	688b      	ldr	r3, [r1, #8]
 8003764:	f423 53e0 	bic.w	r3, r3, #7168	; 0x1c00
 8003768:	4303      	orrs	r3, r0
 800376a:	608b      	str	r3, [r1, #8]
 800376c:	e78a      	b.n	8003684 <HAL_RCC_ClockConfig+0x38>
 800376e:	bf00      	nop
 8003770:	40023c00 	.word	0x40023c00
 8003774:	40023800 	.word	0x40023800
 8003778:	080075d8 	.word	0x080075d8
 800377c:	20000000 	.word	0x20000000
 8003780:	20000008 	.word	0x20000008

08003784 <HAL_RCC_GetPCLK1Freq>:
 8003784:	4b04      	ldr	r3, [pc, #16]	; (8003798 <HAL_RCC_GetPCLK1Freq+0x14>)
 8003786:	4a05      	ldr	r2, [pc, #20]	; (800379c <HAL_RCC_GetPCLK1Freq+0x18>)
 8003788:	689b      	ldr	r3, [r3, #8]
 800378a:	f3c3 2382 	ubfx	r3, r3, #10, #3
 800378e:	5cd3      	ldrb	r3, [r2, r3]
 8003790:	4a03      	ldr	r2, [pc, #12]	; (80037a0 <HAL_RCC_GetPCLK1Freq+0x1c>)
 8003792:	6810      	ldr	r0, [r2, #0]
 8003794:	40d8      	lsrs	r0, r3
 8003796:	4770      	bx	lr
 8003798:	40023800 	.word	0x40023800
 800379c:	080075e8 	.word	0x080075e8
 80037a0:	20000000 	.word	0x20000000

080037a4 <HAL_RCC_GetPCLK2Freq>:
 80037a4:	4b04      	ldr	r3, [pc, #16]	; (80037b8 <HAL_RCC_GetPCLK2Freq+0x14>)
 80037a6:	4a05      	ldr	r2, [pc, #20]	; (80037bc <HAL_RCC_GetPCLK2Freq+0x18>)
 80037a8:	689b      	ldr	r3, [r3, #8]
 80037aa:	f3c3 3342 	ubfx	r3, r3, #13, #3
 80037ae:	5cd3      	ldrb	r3, [r2, r3]
 80037b0:	4a03      	ldr	r2, [pc, #12]	; (80037c0 <HAL_RCC_GetPCLK2Freq+0x1c>)
 80037b2:	6810      	ldr	r0, [r2, #0]
 80037b4:	40d8      	lsrs	r0, r3
 80037b6:	4770      	bx	lr
 80037b8:	40023800 	.word	0x40023800
 80037bc:	080075e8 	.word	0x080075e8
 80037c0:	20000000 	.word	0x20000000

080037c4 <TIM_OC1_SetConfig>:
 80037c4:	6a03      	ldr	r3, [r0, #32]
 80037c6:	f023 0301 	bic.w	r3, r3, #1
 80037ca:	6203      	str	r3, [r0, #32]
 80037cc:	6a03      	ldr	r3, [r0, #32]
 80037ce:	b570      	push	{r4, r5, r6, lr}
 80037d0:	6844      	ldr	r4, [r0, #4]
 80037d2:	6982      	ldr	r2, [r0, #24]
 80037d4:	680d      	ldr	r5, [r1, #0]
 80037d6:	f022 0273 	bic.w	r2, r2, #115	; 0x73
 80037da:	432a      	orrs	r2, r5
 80037dc:	688d      	ldr	r5, [r1, #8]
 80037de:	f023 0302 	bic.w	r3, r3, #2
 80037e2:	432b      	orrs	r3, r5
 80037e4:	4d0e      	ldr	r5, [pc, #56]	; (8003820 <TIM_OC1_SetConfig+0x5c>)
 80037e6:	42a8      	cmp	r0, r5
 80037e8:	d002      	beq.n	80037f0 <TIM_OC1_SetConfig+0x2c>
 80037ea:	4e0e      	ldr	r6, [pc, #56]	; (8003824 <TIM_OC1_SetConfig+0x60>)
 80037ec:	42b0      	cmp	r0, r6
 80037ee:	d110      	bne.n	8003812 <TIM_OC1_SetConfig+0x4e>
 80037f0:	68ce      	ldr	r6, [r1, #12]
 80037f2:	f023 0308 	bic.w	r3, r3, #8
 80037f6:	4333      	orrs	r3, r6
 80037f8:	42a8      	cmp	r0, r5
 80037fa:	f023 0304 	bic.w	r3, r3, #4
 80037fe:	d002      	beq.n	8003806 <TIM_OC1_SetConfig+0x42>
 8003800:	4d08      	ldr	r5, [pc, #32]	; (8003824 <TIM_OC1_SetConfig+0x60>)
 8003802:	42a8      	cmp	r0, r5
 8003804:	d105      	bne.n	8003812 <TIM_OC1_SetConfig+0x4e>
 8003806:	e9d1 5605 	ldrd	r5, r6, [r1, #20]
 800380a:	f424 7440 	bic.w	r4, r4, #768	; 0x300
 800380e:	4335      	orrs	r5, r6
 8003810:	432c      	orrs	r4, r5
 8003812:	6044      	str	r4, [r0, #4]
 8003814:	6182      	str	r2, [r0, #24]
 8003816:	684a      	ldr	r2, [r1, #4]
 8003818:	6342      	str	r2, [r0, #52]	; 0x34
 800381a:	6203      	str	r3, [r0, #32]
 800381c:	bd70      	pop	{r4, r5, r6, pc}
 800381e:	bf00      	nop
 8003820:	40010000 	.word	0x40010000
 8003824:	40010400 	.word	0x40010400

08003828 <TIM_OC3_SetConfig>:
 8003828:	6a03      	ldr	r3, [r0, #32]
 800382a:	f423 7380 	bic.w	r3, r3, #256	; 0x100
 800382e:	6203      	str	r3, [r0, #32]
 8003830:	6a03      	ldr	r3, [r0, #32]
 8003832:	b570      	push	{r4, r5, r6, lr}
 8003834:	6844      	ldr	r4, [r0, #4]
 8003836:	69c2      	ldr	r2, [r0, #28]
 8003838:	680d      	ldr	r5, [r1, #0]
 800383a:	f022 0273 	bic.w	r2, r2, #115	; 0x73
 800383e:	432a      	orrs	r2, r5
 8003840:	688d      	ldr	r5, [r1, #8]
 8003842:	f423 7300 	bic.w	r3, r3, #512	; 0x200
 8003846:	ea43 2305 	orr.w	r3, r3, r5, lsl #8
 800384a:	4d11      	ldr	r5, [pc, #68]	; (8003890 <TIM_OC3_SetConfig+0x68>)
 800384c:	42a8      	cmp	r0, r5
 800384e:	d003      	beq.n	8003858 <TIM_OC3_SetConfig+0x30>
 8003850:	f505 6580 	add.w	r5, r5, #1024	; 0x400
 8003854:	42a8      	cmp	r0, r5
 8003856:	d114      	bne.n	8003882 <TIM_OC3_SetConfig+0x5a>
 8003858:	68cd      	ldr	r5, [r1, #12]
 800385a:	f423 6300 	bic.w	r3, r3, #2048	; 0x800
 800385e:	ea43 2305 	orr.w	r3, r3, r5, lsl #8
 8003862:	4d0b      	ldr	r5, [pc, #44]	; (8003890 <TIM_OC3_SetConfig+0x68>)
 8003864:	42a8      	cmp	r0, r5
 8003866:	f423 6380 	bic.w	r3, r3, #1024	; 0x400
 800386a:	d003      	beq.n	8003874 <TIM_OC3_SetConfig+0x4c>
 800386c:	f505 6580 	add.w	r5, r5, #1024	; 0x400
 8003870:	42a8      	cmp	r0, r5
 8003872:	d106      	bne.n	8003882 <TIM_OC3_SetConfig+0x5a>
 8003874:	e9d1 5605 	ldrd	r5, r6, [r1, #20]
 8003878:	f424 5440 	bic.w	r4, r4, #12288	; 0x3000
 800387c:	4335      	orrs	r5, r6
 800387e:	ea44 1405 	orr.w	r4, r4, r5, lsl #4
 8003882:	6044      	str	r4, [r0, #4]
 8003884:	61c2      	str	r2, [r0, #28]
 8003886:	684a      	ldr	r2, [r1, #4]
 8003888:	63c2      	str	r2, [r0, #60]	; 0x3c
 800388a:	6203      	str	r3, [r0, #32]
 800388c:	bd70      	pop	{r4, r5, r6, pc}
 800388e:	bf00      	nop
 8003890:	40010000 	.word	0x40010000

08003894 <TIM_OC4_SetConfig>:
 8003894:	6a03      	ldr	r3, [r0, #32]
 8003896:	f423 5380 	bic.w	r3, r3, #4096	; 0x1000
 800389a:	6203      	str	r3, [r0, #32]
 800389c:	6a03      	ldr	r3, [r0, #32]
 800389e:	b530      	push	{r4, r5, lr}
 80038a0:	6844      	ldr	r4, [r0, #4]
 80038a2:	69c2      	ldr	r2, [r0, #28]
 80038a4:	680d      	ldr	r5, [r1, #0]
 80038a6:	f422 42e6 	bic.w	r2, r2, #29440	; 0x7300
 80038aa:	ea42 2205 	orr.w	r2, r2, r5, lsl #8
 80038ae:	688d      	ldr	r5, [r1, #8]
 80038b0:	f423 5300 	bic.w	r3, r3, #8192	; 0x2000
 80038b4:	ea43 3305 	orr.w	r3, r3, r5, lsl #12
 80038b8:	4d08      	ldr	r5, [pc, #32]	; (80038dc <TIM_OC4_SetConfig+0x48>)
 80038ba:	42a8      	cmp	r0, r5
 80038bc:	d003      	beq.n	80038c6 <TIM_OC4_SetConfig+0x32>
 80038be:	f505 6580 	add.w	r5, r5, #1024	; 0x400
 80038c2:	42a8      	cmp	r0, r5
 80038c4:	d104      	bne.n	80038d0 <TIM_OC4_SetConfig+0x3c>
 80038c6:	694d      	ldr	r5, [r1, #20]
 80038c8:	f424 4480 	bic.w	r4, r4, #16384	; 0x4000
 80038cc:	ea44 1485 	orr.w	r4, r4, r5, lsl #6
 80038d0:	6044      	str	r4, [r0, #4]
 80038d2:	61c2      	str	r2, [r0, #28]
 80038d4:	684a      	ldr	r2, [r1, #4]
 80038d6:	6402      	str	r2, [r0, #64]	; 0x40
 80038d8:	6203      	str	r3, [r0, #32]
 80038da:	bd30      	pop	{r4, r5, pc}
 80038dc:	40010000 	.word	0x40010000

080038e0 <HAL_TIM_Base_Start>:
 80038e0:	f890 303d 	ldrb.w	r3, [r0, #61]	; 0x3d
 80038e4:	2b01      	cmp	r3, #1
 80038e6:	d12c      	bne.n	8003942 <HAL_TIM_Base_Start+0x62>
 80038e8:	2302      	movs	r3, #2
 80038ea:	4a17      	ldr	r2, [pc, #92]	; (8003948 <HAL_TIM_Base_Start+0x68>)
 80038ec:	f880 303d 	strb.w	r3, [r0, #61]	; 0x3d
 80038f0:	6803      	ldr	r3, [r0, #0]
 80038f2:	4293      	cmp	r3, r2
 80038f4:	d01a      	beq.n	800392c <HAL_TIM_Base_Start+0x4c>
 80038f6:	f1b3 4f80 	cmp.w	r3, #1073741824	; 0x40000000
 80038fa:	d017      	beq.n	800392c <HAL_TIM_Base_Start+0x4c>
 80038fc:	f5a2 427c 	sub.w	r2, r2, #64512	; 0xfc00
 8003900:	4293      	cmp	r3, r2
 8003902:	d013      	beq.n	800392c <HAL_TIM_Base_Start+0x4c>
 8003904:	f502 6280 	add.w	r2, r2, #1024	; 0x400
 8003908:	4293      	cmp	r3, r2
 800390a:	d00f      	beq.n	800392c <HAL_TIM_Base_Start+0x4c>
 800390c:	f502 6280 	add.w	r2, r2, #1024	; 0x400
 8003910:	4293      	cmp	r3, r2
 8003912:	d00b      	beq.n	800392c <HAL_TIM_Base_Start+0x4c>
 8003914:	f502 4278 	add.w	r2, r2, #63488	; 0xf800
 8003918:	4293      	cmp	r3, r2
 800391a:	d007      	beq.n	800392c <HAL_TIM_Base_Start+0x4c>
 800391c:	f502 5270 	add.w	r2, r2, #15360	; 0x3c00
 8003920:	4293      	cmp	r3, r2
 8003922:	d003      	beq.n	800392c <HAL_TIM_Base_Start+0x4c>
 8003924:	f5a2 3294 	sub.w	r2, r2, #75776	; 0x12800
 8003928:	4293      	cmp	r3, r2
 800392a:	d104      	bne.n	8003936 <HAL_TIM_Base_Start+0x56>
 800392c:	689a      	ldr	r2, [r3, #8]
 800392e:	f002 0207 	and.w	r2, r2, #7
 8003932:	2a06      	cmp	r2, #6
 8003934:	d003      	beq.n	800393e <HAL_TIM_Base_Start+0x5e>
 8003936:	681a      	ldr	r2, [r3, #0]
 8003938:	f042 0201 	orr.w	r2, r2, #1
 800393c:	601a      	str	r2, [r3, #0]
 800393e:	2000      	movs	r0, #0
 8003940:	4770      	bx	lr
 8003942:	2001      	movs	r0, #1
 8003944:	4770      	bx	lr
 8003946:	bf00      	nop
 8003948:	40010000 	.word	0x40010000

0800394c <HAL_TIM_Encoder_Start>:
 800394c:	b530      	push	{r4, r5, lr}
 800394e:	f890 203e 	ldrb.w	r2, [r0, #62]	; 0x3e
 8003952:	f890 303f 	ldrb.w	r3, [r0, #63]	; 0x3f
 8003956:	f890 5042 	ldrb.w	r5, [r0, #66]	; 0x42
 800395a:	f890 4043 	ldrb.w	r4, [r0, #67]	; 0x43
 800395e:	b2d2      	uxtb	r2, r2
 8003960:	b2db      	uxtb	r3, r3
 8003962:	b2ed      	uxtb	r5, r5
 8003964:	b2e4      	uxtb	r4, r4
 8003966:	b9c9      	cbnz	r1, 800399c <HAL_TIM_Encoder_Start+0x50>
 8003968:	2a01      	cmp	r2, #1
 800396a:	d146      	bne.n	80039fa <HAL_TIM_Encoder_Start+0xae>
 800396c:	2d01      	cmp	r5, #1
 800396e:	d146      	bne.n	80039fe <HAL_TIM_Encoder_Start+0xb2>
 8003970:	2302      	movs	r3, #2
 8003972:	f880 303e 	strb.w	r3, [r0, #62]	; 0x3e
 8003976:	f880 3042 	strb.w	r3, [r0, #66]	; 0x42
 800397a:	6803      	ldr	r3, [r0, #0]
 800397c:	6a1a      	ldr	r2, [r3, #32]
 800397e:	f022 0201 	bic.w	r2, r2, #1
 8003982:	621a      	str	r2, [r3, #32]
 8003984:	6a1a      	ldr	r2, [r3, #32]
 8003986:	f042 0201 	orr.w	r2, r2, #1
 800398a:	621a      	str	r2, [r3, #32]
 800398c:	6802      	ldr	r2, [r0, #0]
 800398e:	6813      	ldr	r3, [r2, #0]
 8003990:	f043 0301 	orr.w	r3, r3, #1
 8003994:	6013      	str	r3, [r2, #0]
 8003996:	2300      	movs	r3, #0
 8003998:	4618      	mov	r0, r3
 800399a:	bd30      	pop	{r4, r5, pc}
 800399c:	2904      	cmp	r1, #4
 800399e:	d111      	bne.n	80039c4 <HAL_TIM_Encoder_Start+0x78>
 80039a0:	2b01      	cmp	r3, #1
 80039a2:	d12a      	bne.n	80039fa <HAL_TIM_Encoder_Start+0xae>
 80039a4:	2c01      	cmp	r4, #1
 80039a6:	d1f7      	bne.n	8003998 <HAL_TIM_Encoder_Start+0x4c>
 80039a8:	2302      	movs	r3, #2
 80039aa:	f880 303f 	strb.w	r3, [r0, #63]	; 0x3f
 80039ae:	f880 3043 	strb.w	r3, [r0, #67]	; 0x43
 80039b2:	6803      	ldr	r3, [r0, #0]
 80039b4:	6a1a      	ldr	r2, [r3, #32]
 80039b6:	f022 0210 	bic.w	r2, r2, #16
 80039ba:	621a      	str	r2, [r3, #32]
 80039bc:	6a1a      	ldr	r2, [r3, #32]
 80039be:	f042 0210 	orr.w	r2, r2, #16
 80039c2:	e7e2      	b.n	800398a <HAL_TIM_Encoder_Start+0x3e>
 80039c4:	2a01      	cmp	r2, #1
 80039c6:	d118      	bne.n	80039fa <HAL_TIM_Encoder_Start+0xae>
 80039c8:	2b01      	cmp	r3, #1
 80039ca:	d118      	bne.n	80039fe <HAL_TIM_Encoder_Start+0xb2>
 80039cc:	2d01      	cmp	r5, #1
 80039ce:	d1e3      	bne.n	8003998 <HAL_TIM_Encoder_Start+0x4c>
 80039d0:	2c01      	cmp	r4, #1
 80039d2:	d1e1      	bne.n	8003998 <HAL_TIM_Encoder_Start+0x4c>
 80039d4:	2302      	movs	r3, #2
 80039d6:	f880 303e 	strb.w	r3, [r0, #62]	; 0x3e
 80039da:	f880 303f 	strb.w	r3, [r0, #63]	; 0x3f
 80039de:	f880 3042 	strb.w	r3, [r0, #66]	; 0x42
 80039e2:	f880 3043 	strb.w	r3, [r0, #67]	; 0x43
 80039e6:	6803      	ldr	r3, [r0, #0]
 80039e8:	6a1a      	ldr	r2, [r3, #32]
 80039ea:	f022 0201 	bic.w	r2, r2, #1
 80039ee:	621a      	str	r2, [r3, #32]
 80039f0:	6a1a      	ldr	r2, [r3, #32]
 80039f2:	f042 0201 	orr.w	r2, r2, #1
 80039f6:	621a      	str	r2, [r3, #32]
 80039f8:	e7dc      	b.n	80039b4 <HAL_TIM_Encoder_Start+0x68>
 80039fa:	2301      	movs	r3, #1
 80039fc:	e7cc      	b.n	8003998 <HAL_TIM_Encoder_Start+0x4c>
 80039fe:	4613      	mov	r3, r2
 8003a00:	e7ca      	b.n	8003998 <HAL_TIM_Encoder_Start+0x4c>

08003a02 <HAL_TIM_ReadCapturedValue>:
 8003a02:	2908      	cmp	r1, #8
 8003a04:	d010      	beq.n	8003a28 <HAL_TIM_ReadCapturedValue+0x26>
 8003a06:	d804      	bhi.n	8003a12 <HAL_TIM_ReadCapturedValue+0x10>
 8003a08:	b141      	cbz	r1, 8003a1c <HAL_TIM_ReadCapturedValue+0x1a>
 8003a0a:	2904      	cmp	r1, #4
 8003a0c:	d009      	beq.n	8003a22 <HAL_TIM_ReadCapturedValue+0x20>
 8003a0e:	2000      	movs	r0, #0
 8003a10:	4770      	bx	lr
 8003a12:	290c      	cmp	r1, #12
 8003a14:	d1fb      	bne.n	8003a0e <HAL_TIM_ReadCapturedValue+0xc>
 8003a16:	6803      	ldr	r3, [r0, #0]
 8003a18:	6c18      	ldr	r0, [r3, #64]	; 0x40
 8003a1a:	4770      	bx	lr
 8003a1c:	6803      	ldr	r3, [r0, #0]
 8003a1e:	6b58      	ldr	r0, [r3, #52]	; 0x34
 8003a20:	4770      	bx	lr
 8003a22:	6803      	ldr	r3, [r0, #0]
 8003a24:	6b98      	ldr	r0, [r3, #56]	; 0x38
 8003a26:	4770      	bx	lr
 8003a28:	6803      	ldr	r3, [r0, #0]
 8003a2a:	6bd8      	ldr	r0, [r3, #60]	; 0x3c
 8003a2c:	4770      	bx	lr

08003a2e <HAL_TIM_PeriodElapsedCallback>:
 8003a2e:	4770      	bx	lr

08003a30 <HAL_TIM_OC_DelayElapsedCallback>:
 8003a30:	4770      	bx	lr

08003a32 <HAL_TIM_PWM_PulseFinishedCallback>:
 8003a32:	4770      	bx	lr

08003a34 <HAL_TIM_TriggerCallback>:
 8003a34:	4770      	bx	lr

08003a36 <HAL_TIM_IRQHandler>:
 8003a36:	6803      	ldr	r3, [r0, #0]
 8003a38:	691a      	ldr	r2, [r3, #16]
 8003a3a:	0791      	lsls	r1, r2, #30
 8003a3c:	b510      	push	{r4, lr}
 8003a3e:	4604      	mov	r4, r0
 8003a40:	d50e      	bpl.n	8003a60 <HAL_TIM_IRQHandler+0x2a>
 8003a42:	68da      	ldr	r2, [r3, #12]
 8003a44:	0792      	lsls	r2, r2, #30
 8003a46:	d50b      	bpl.n	8003a60 <HAL_TIM_IRQHandler+0x2a>
 8003a48:	f06f 0202 	mvn.w	r2, #2
 8003a4c:	611a      	str	r2, [r3, #16]
 8003a4e:	2201      	movs	r2, #1
 8003a50:	7702      	strb	r2, [r0, #28]
 8003a52:	699b      	ldr	r3, [r3, #24]
 8003a54:	079b      	lsls	r3, r3, #30
 8003a56:	d077      	beq.n	8003b48 <HAL_TIM_IRQHandler+0x112>
 8003a58:	f7fd fc82 	bl	8001360 <HAL_TIM_IC_CaptureCallback>
 8003a5c:	2300      	movs	r3, #0
 8003a5e:	7723      	strb	r3, [r4, #28]
 8003a60:	6823      	ldr	r3, [r4, #0]
 8003a62:	691a      	ldr	r2, [r3, #16]
 8003a64:	0750      	lsls	r0, r2, #29
 8003a66:	d510      	bpl.n	8003a8a <HAL_TIM_IRQHandler+0x54>
 8003a68:	68da      	ldr	r2, [r3, #12]
 8003a6a:	0751      	lsls	r1, r2, #29
 8003a6c:	d50d      	bpl.n	8003a8a <HAL_TIM_IRQHandler+0x54>
 8003a6e:	f06f 0204 	mvn.w	r2, #4
 8003a72:	611a      	str	r2, [r3, #16]
 8003a74:	2202      	movs	r2, #2
 8003a76:	7722      	strb	r2, [r4, #28]
 8003a78:	699b      	ldr	r3, [r3, #24]
 8003a7a:	f413 7f40 	tst.w	r3, #768	; 0x300
 8003a7e:	4620      	mov	r0, r4
 8003a80:	d068      	beq.n	8003b54 <HAL_TIM_IRQHandler+0x11e>
 8003a82:	f7fd fc6d 	bl	8001360 <HAL_TIM_IC_CaptureCallback>
 8003a86:	2300      	movs	r3, #0
 8003a88:	7723      	strb	r3, [r4, #28]
 8003a8a:	6823      	ldr	r3, [r4, #0]
 8003a8c:	691a      	ldr	r2, [r3, #16]
 8003a8e:	0712      	lsls	r2, r2, #28
 8003a90:	d50f      	bpl.n	8003ab2 <HAL_TIM_IRQHandler+0x7c>
 8003a92:	68da      	ldr	r2, [r3, #12]
 8003a94:	0710      	lsls	r0, r2, #28
 8003a96:	d50c      	bpl.n	8003ab2 <HAL_TIM_IRQHandler+0x7c>
 8003a98:	f06f 0208 	mvn.w	r2, #8
 8003a9c:	611a      	str	r2, [r3, #16]
 8003a9e:	2204      	movs	r2, #4
 8003aa0:	7722      	strb	r2, [r4, #28]
 8003aa2:	69db      	ldr	r3, [r3, #28]
 8003aa4:	0799      	lsls	r1, r3, #30
 8003aa6:	4620      	mov	r0, r4
 8003aa8:	d05a      	beq.n	8003b60 <HAL_TIM_IRQHandler+0x12a>
 8003aaa:	f7fd fc59 	bl	8001360 <HAL_TIM_IC_CaptureCallback>
 8003aae:	2300      	movs	r3, #0
 8003ab0:	7723      	strb	r3, [r4, #28]
 8003ab2:	6823      	ldr	r3, [r4, #0]
 8003ab4:	691a      	ldr	r2, [r3, #16]
 8003ab6:	06d2      	lsls	r2, r2, #27
 8003ab8:	d510      	bpl.n	8003adc <HAL_TIM_IRQHandler+0xa6>
 8003aba:	68da      	ldr	r2, [r3, #12]
 8003abc:	06d0      	lsls	r0, r2, #27
 8003abe:	d50d      	bpl.n	8003adc <HAL_TIM_IRQHandler+0xa6>
 8003ac0:	f06f 0210 	mvn.w	r2, #16
 8003ac4:	611a      	str	r2, [r3, #16]
 8003ac6:	2208      	movs	r2, #8
 8003ac8:	7722      	strb	r2, [r4, #28]
 8003aca:	69db      	ldr	r3, [r3, #28]
 8003acc:	f413 7f40 	tst.w	r3, #768	; 0x300
 8003ad0:	4620      	mov	r0, r4
 8003ad2:	d04b      	beq.n	8003b6c <HAL_TIM_IRQHandler+0x136>
 8003ad4:	f7fd fc44 	bl	8001360 <HAL_TIM_IC_CaptureCallback>
 8003ad8:	2300      	movs	r3, #0
 8003ada:	7723      	strb	r3, [r4, #28]
 8003adc:	6823      	ldr	r3, [r4, #0]
 8003ade:	691a      	ldr	r2, [r3, #16]
 8003ae0:	07d1      	lsls	r1, r2, #31
 8003ae2:	d508      	bpl.n	8003af6 <HAL_TIM_IRQHandler+0xc0>
 8003ae4:	68da      	ldr	r2, [r3, #12]
 8003ae6:	07d2      	lsls	r2, r2, #31
 8003ae8:	d505      	bpl.n	8003af6 <HAL_TIM_IRQHandler+0xc0>
 8003aea:	f06f 0201 	mvn.w	r2, #1
 8003aee:	611a      	str	r2, [r3, #16]
 8003af0:	4620      	mov	r0, r4
 8003af2:	f7ff ff9c 	bl	8003a2e <HAL_TIM_PeriodElapsedCallback>
 8003af6:	6823      	ldr	r3, [r4, #0]
 8003af8:	691a      	ldr	r2, [r3, #16]
 8003afa:	0610      	lsls	r0, r2, #24
 8003afc:	d508      	bpl.n	8003b10 <HAL_TIM_IRQHandler+0xda>
 8003afe:	68da      	ldr	r2, [r3, #12]
 8003b00:	0611      	lsls	r1, r2, #24
 8003b02:	d505      	bpl.n	8003b10 <HAL_TIM_IRQHandler+0xda>
 8003b04:	f06f 0280 	mvn.w	r2, #128	; 0x80
 8003b08:	611a      	str	r2, [r3, #16]
 8003b0a:	4620      	mov	r0, r4
 8003b0c:	f000 fd59 	bl	80045c2 <HAL_TIMEx_BreakCallback>
 8003b10:	6823      	ldr	r3, [r4, #0]
 8003b12:	691a      	ldr	r2, [r3, #16]
 8003b14:	0652      	lsls	r2, r2, #25
 8003b16:	d508      	bpl.n	8003b2a <HAL_TIM_IRQHandler+0xf4>
 8003b18:	68da      	ldr	r2, [r3, #12]
 8003b1a:	0650      	lsls	r0, r2, #25
 8003b1c:	d505      	bpl.n	8003b2a <HAL_TIM_IRQHandler+0xf4>
 8003b1e:	f06f 0240 	mvn.w	r2, #64	; 0x40
 8003b22:	611a      	str	r2, [r3, #16]
 8003b24:	4620      	mov	r0, r4
 8003b26:	f7ff ff85 	bl	8003a34 <HAL_TIM_TriggerCallback>
 8003b2a:	6823      	ldr	r3, [r4, #0]
 8003b2c:	691a      	ldr	r2, [r3, #16]
 8003b2e:	0691      	lsls	r1, r2, #26
 8003b30:	d522      	bpl.n	8003b78 <HAL_TIM_IRQHandler+0x142>
 8003b32:	68da      	ldr	r2, [r3, #12]
 8003b34:	0692      	lsls	r2, r2, #26
 8003b36:	d51f      	bpl.n	8003b78 <HAL_TIM_IRQHandler+0x142>
 8003b38:	f06f 0220 	mvn.w	r2, #32
 8003b3c:	4620      	mov	r0, r4
 8003b3e:	611a      	str	r2, [r3, #16]
 8003b40:	e8bd 4010 	ldmia.w	sp!, {r4, lr}
 8003b44:	f000 bd3c 	b.w	80045c0 <HAL_TIMEx_CommutCallback>
 8003b48:	f7ff ff72 	bl	8003a30 <HAL_TIM_OC_DelayElapsedCallback>
 8003b4c:	4620      	mov	r0, r4
 8003b4e:	f7ff ff70 	bl	8003a32 <HAL_TIM_PWM_PulseFinishedCallback>
 8003b52:	e783      	b.n	8003a5c <HAL_TIM_IRQHandler+0x26>
 8003b54:	f7ff ff6c 	bl	8003a30 <HAL_TIM_OC_DelayElapsedCallback>
 8003b58:	4620      	mov	r0, r4
 8003b5a:	f7ff ff6a 	bl	8003a32 <HAL_TIM_PWM_PulseFinishedCallback>
 8003b5e:	e792      	b.n	8003a86 <HAL_TIM_IRQHandler+0x50>
 8003b60:	f7ff ff66 	bl	8003a30 <HAL_TIM_OC_DelayElapsedCallback>
 8003b64:	4620      	mov	r0, r4
 8003b66:	f7ff ff64 	bl	8003a32 <HAL_TIM_PWM_PulseFinishedCallback>
 8003b6a:	e7a0      	b.n	8003aae <HAL_TIM_IRQHandler+0x78>
 8003b6c:	f7ff ff60 	bl	8003a30 <HAL_TIM_OC_DelayElapsedCallback>
 8003b70:	4620      	mov	r0, r4
 8003b72:	f7ff ff5e 	bl	8003a32 <HAL_TIM_PWM_PulseFinishedCallback>
 8003b76:	e7af      	b.n	8003ad8 <HAL_TIM_IRQHandler+0xa2>
 8003b78:	bd10      	pop	{r4, pc}
	...

08003b7c <TIM_Base_SetConfig>:
 8003b7c:	4a30      	ldr	r2, [pc, #192]	; (8003c40 <TIM_Base_SetConfig+0xc4>)
 8003b7e:	6803      	ldr	r3, [r0, #0]
 8003b80:	4290      	cmp	r0, r2
 8003b82:	d012      	beq.n	8003baa <TIM_Base_SetConfig+0x2e>
 8003b84:	f1b0 4f80 	cmp.w	r0, #1073741824	; 0x40000000
 8003b88:	d00f      	beq.n	8003baa <TIM_Base_SetConfig+0x2e>
 8003b8a:	f5a2 427c 	sub.w	r2, r2, #64512	; 0xfc00
 8003b8e:	4290      	cmp	r0, r2
 8003b90:	d00b      	beq.n	8003baa <TIM_Base_SetConfig+0x2e>
 8003b92:	f502 6280 	add.w	r2, r2, #1024	; 0x400
 8003b96:	4290      	cmp	r0, r2
 8003b98:	d007      	beq.n	8003baa <TIM_Base_SetConfig+0x2e>
 8003b9a:	f502 6280 	add.w	r2, r2, #1024	; 0x400
 8003b9e:	4290      	cmp	r0, r2
 8003ba0:	d003      	beq.n	8003baa <TIM_Base_SetConfig+0x2e>
 8003ba2:	f502 4278 	add.w	r2, r2, #63488	; 0xf800
 8003ba6:	4290      	cmp	r0, r2
 8003ba8:	d119      	bne.n	8003bde <TIM_Base_SetConfig+0x62>
 8003baa:	684a      	ldr	r2, [r1, #4]
 8003bac:	f023 0370 	bic.w	r3, r3, #112	; 0x70
 8003bb0:	4313      	orrs	r3, r2
 8003bb2:	4a23      	ldr	r2, [pc, #140]	; (8003c40 <TIM_Base_SetConfig+0xc4>)
 8003bb4:	4290      	cmp	r0, r2
 8003bb6:	d029      	beq.n	8003c0c <TIM_Base_SetConfig+0x90>
 8003bb8:	f1b0 4f80 	cmp.w	r0, #1073741824	; 0x40000000
 8003bbc:	d026      	beq.n	8003c0c <TIM_Base_SetConfig+0x90>
 8003bbe:	f5a2 427c 	sub.w	r2, r2, #64512	; 0xfc00
 8003bc2:	4290      	cmp	r0, r2
 8003bc4:	d022      	beq.n	8003c0c <TIM_Base_SetConfig+0x90>
 8003bc6:	f502 6280 	add.w	r2, r2, #1024	; 0x400
 8003bca:	4290      	cmp	r0, r2
 8003bcc:	d01e      	beq.n	8003c0c <TIM_Base_SetConfig+0x90>
 8003bce:	f502 6280 	add.w	r2, r2, #1024	; 0x400
 8003bd2:	4290      	cmp	r0, r2
 8003bd4:	d01a      	beq.n	8003c0c <TIM_Base_SetConfig+0x90>
 8003bd6:	f502 4278 	add.w	r2, r2, #63488	; 0xf800
 8003bda:	4290      	cmp	r0, r2
 8003bdc:	d016      	beq.n	8003c0c <TIM_Base_SetConfig+0x90>
 8003bde:	4a19      	ldr	r2, [pc, #100]	; (8003c44 <TIM_Base_SetConfig+0xc8>)
 8003be0:	4290      	cmp	r0, r2
 8003be2:	d013      	beq.n	8003c0c <TIM_Base_SetConfig+0x90>
 8003be4:	f502 6280 	add.w	r2, r2, #1024	; 0x400
 8003be8:	4290      	cmp	r0, r2
 8003bea:	d00f      	beq.n	8003c0c <TIM_Base_SetConfig+0x90>
 8003bec:	f502 6280 	add.w	r2, r2, #1024	; 0x400
 8003bf0:	4290      	cmp	r0, r2
 8003bf2:	d00b      	beq.n	8003c0c <TIM_Base_SetConfig+0x90>
 8003bf4:	f5a2 3298 	sub.w	r2, r2, #77824	; 0x13000
 8003bf8:	4290      	cmp	r0, r2
 8003bfa:	d007      	beq.n	8003c0c <TIM_Base_SetConfig+0x90>
 8003bfc:	f502 6280 	add.w	r2, r2, #1024	; 0x400
 8003c00:	4290      	cmp	r0, r2
 8003c02:	d003      	beq.n	8003c0c <TIM_Base_SetConfig+0x90>
 8003c04:	f502 6280 	add.w	r2, r2, #1024	; 0x400
 8003c08:	4290      	cmp	r0, r2
 8003c0a:	d103      	bne.n	8003c14 <TIM_Base_SetConfig+0x98>
 8003c0c:	68ca      	ldr	r2, [r1, #12]
 8003c0e:	f423 7340 	bic.w	r3, r3, #768	; 0x300
 8003c12:	4313      	orrs	r3, r2
 8003c14:	694a      	ldr	r2, [r1, #20]
 8003c16:	f023 0380 	bic.w	r3, r3, #128	; 0x80
 8003c1a:	4313      	orrs	r3, r2
 8003c1c:	6003      	str	r3, [r0, #0]
 8003c1e:	688b      	ldr	r3, [r1, #8]
 8003c20:	62c3      	str	r3, [r0, #44]	; 0x2c
 8003c22:	680b      	ldr	r3, [r1, #0]
 8003c24:	6283      	str	r3, [r0, #40]	; 0x28
 8003c26:	4b06      	ldr	r3, [pc, #24]	; (8003c40 <TIM_Base_SetConfig+0xc4>)
 8003c28:	4298      	cmp	r0, r3
 8003c2a:	d003      	beq.n	8003c34 <TIM_Base_SetConfig+0xb8>
 8003c2c:	f503 6380 	add.w	r3, r3, #1024	; 0x400
 8003c30:	4298      	cmp	r0, r3
 8003c32:	d101      	bne.n	8003c38 <TIM_Base_SetConfig+0xbc>
 8003c34:	690b      	ldr	r3, [r1, #16]
 8003c36:	6303      	str	r3, [r0, #48]	; 0x30
 8003c38:	2301      	movs	r3, #1
 8003c3a:	6143      	str	r3, [r0, #20]
 8003c3c:	4770      	bx	lr
 8003c3e:	bf00      	nop
 8003c40:	40010000 	.word	0x40010000
 8003c44:	40014000 	.word	0x40014000

08003c48 <HAL_TIM_Base_Init>:
 8003c48:	b510      	push	{r4, lr}
 8003c4a:	4604      	mov	r4, r0
 8003c4c:	b330      	cbz	r0, 8003c9c <HAL_TIM_Base_Init+0x54>
 8003c4e:	f890 303d 	ldrb.w	r3, [r0, #61]	; 0x3d
 8003c52:	f003 02ff 	and.w	r2, r3, #255	; 0xff
 8003c56:	b91b      	cbnz	r3, 8003c60 <HAL_TIM_Base_Init+0x18>
 8003c58:	f880 203c 	strb.w	r2, [r0, #60]	; 0x3c
 8003c5c:	f7fe fdac 	bl	80027b8 <HAL_TIM_Base_MspInit>
 8003c60:	2302      	movs	r3, #2
 8003c62:	6820      	ldr	r0, [r4, #0]
 8003c64:	f884 303d 	strb.w	r3, [r4, #61]	; 0x3d
 8003c68:	1d21      	adds	r1, r4, #4
 8003c6a:	f7ff ff87 	bl	8003b7c <TIM_Base_SetConfig>
 8003c6e:	2301      	movs	r3, #1
 8003c70:	f884 3046 	strb.w	r3, [r4, #70]	; 0x46
 8003c74:	2000      	movs	r0, #0
 8003c76:	f884 303e 	strb.w	r3, [r4, #62]	; 0x3e
 8003c7a:	f884 303f 	strb.w	r3, [r4, #63]	; 0x3f
 8003c7e:	f884 3040 	strb.w	r3, [r4, #64]	; 0x40
 8003c82:	f884 3041 	strb.w	r3, [r4, #65]	; 0x41
 8003c86:	f884 3042 	strb.w	r3, [r4, #66]	; 0x42
 8003c8a:	f884 3043 	strb.w	r3, [r4, #67]	; 0x43
 8003c8e:	f884 3044 	strb.w	r3, [r4, #68]	; 0x44
 8003c92:	f884 3045 	strb.w	r3, [r4, #69]	; 0x45
 8003c96:	f884 303d 	strb.w	r3, [r4, #61]	; 0x3d
 8003c9a:	bd10      	pop	{r4, pc}
 8003c9c:	2001      	movs	r0, #1
 8003c9e:	e7fc      	b.n	8003c9a <HAL_TIM_Base_Init+0x52>

08003ca0 <HAL_TIM_PWM_Init>:
 8003ca0:	b510      	push	{r4, lr}
 8003ca2:	4604      	mov	r4, r0
 8003ca4:	b330      	cbz	r0, 8003cf4 <HAL_TIM_PWM_Init+0x54>
 8003ca6:	f890 303d 	ldrb.w	r3, [r0, #61]	; 0x3d
 8003caa:	f003 02ff 	and.w	r2, r3, #255	; 0xff
 8003cae:	b91b      	cbnz	r3, 8003cb8 <HAL_TIM_PWM_Init+0x18>
 8003cb0:	f880 203c 	strb.w	r2, [r0, #60]	; 0x3c
 8003cb4:	f7fe fcb8 	bl	8002628 <HAL_TIM_PWM_MspInit>
 8003cb8:	2302      	movs	r3, #2
 8003cba:	6820      	ldr	r0, [r4, #0]
 8003cbc:	f884 303d 	strb.w	r3, [r4, #61]	; 0x3d
 8003cc0:	1d21      	adds	r1, r4, #4
 8003cc2:	f7ff ff5b 	bl	8003b7c <TIM_Base_SetConfig>
 8003cc6:	2301      	movs	r3, #1
 8003cc8:	f884 3046 	strb.w	r3, [r4, #70]	; 0x46
 8003ccc:	2000      	movs	r0, #0
 8003cce:	f884 303e 	strb.w	r3, [r4, #62]	; 0x3e
 8003cd2:	f884 303f 	strb.w	r3, [r4, #63]	; 0x3f
 8003cd6:	f884 3040 	strb.w	r3, [r4, #64]	; 0x40
 8003cda:	f884 3041 	strb.w	r3, [r4, #65]	; 0x41
 8003cde:	f884 3042 	strb.w	r3, [r4, #66]	; 0x42
 8003ce2:	f884 3043 	strb.w	r3, [r4, #67]	; 0x43
 8003ce6:	f884 3044 	strb.w	r3, [r4, #68]	; 0x44
 8003cea:	f884 3045 	strb.w	r3, [r4, #69]	; 0x45
 8003cee:	f884 303d 	strb.w	r3, [r4, #61]	; 0x3d
 8003cf2:	bd10      	pop	{r4, pc}
 8003cf4:	2001      	movs	r0, #1
 8003cf6:	e7fc      	b.n	8003cf2 <HAL_TIM_PWM_Init+0x52>

08003cf8 <HAL_TIM_IC_Init>:
 8003cf8:	b510      	push	{r4, lr}
 8003cfa:	4604      	mov	r4, r0
 8003cfc:	b330      	cbz	r0, 8003d4c <HAL_TIM_IC_Init+0x54>
 8003cfe:	f890 303d 	ldrb.w	r3, [r0, #61]	; 0x3d
 8003d02:	f003 02ff 	and.w	r2, r3, #255	; 0xff
 8003d06:	b91b      	cbnz	r3, 8003d10 <HAL_TIM_IC_Init+0x18>
 8003d08:	f880 203c 	strb.w	r2, [r0, #60]	; 0x3c
 8003d0c:	f7fe fd16 	bl	800273c <HAL_TIM_IC_MspInit>
 8003d10:	2302      	movs	r3, #2
 8003d12:	6820      	ldr	r0, [r4, #0]
 8003d14:	f884 303d 	strb.w	r3, [r4, #61]	; 0x3d
 8003d18:	1d21      	adds	r1, r4, #4
 8003d1a:	f7ff ff2f 	bl	8003b7c <TIM_Base_SetConfig>
 8003d1e:	2301      	movs	r3, #1
 8003d20:	f884 3046 	strb.w	r3, [r4, #70]	; 0x46
 8003d24:	2000      	movs	r0, #0
 8003d26:	f884 303e 	strb.w	r3, [r4, #62]	; 0x3e
 8003d2a:	f884 303f 	strb.w	r3, [r4, #63]	; 0x3f
 8003d2e:	f884 3040 	strb.w	r3, [r4, #64]	; 0x40
 8003d32:	f884 3041 	strb.w	r3, [r4, #65]	; 0x41
 8003d36:	f884 3042 	strb.w	r3, [r4, #66]	; 0x42
 8003d3a:	f884 3043 	strb.w	r3, [r4, #67]	; 0x43
 8003d3e:	f884 3044 	strb.w	r3, [r4, #68]	; 0x44
 8003d42:	f884 3045 	strb.w	r3, [r4, #69]	; 0x45
 8003d46:	f884 303d 	strb.w	r3, [r4, #61]	; 0x3d
 8003d4a:	bd10      	pop	{r4, pc}
 8003d4c:	2001      	movs	r0, #1
 8003d4e:	e7fc      	b.n	8003d4a <HAL_TIM_IC_Init+0x52>

08003d50 <HAL_TIM_Encoder_Init>:
 8003d50:	b5f8      	push	{r3, r4, r5, r6, r7, lr}
 8003d52:	460d      	mov	r5, r1
 8003d54:	4604      	mov	r4, r0
 8003d56:	2800      	cmp	r0, #0
 8003d58:	d04d      	beq.n	8003df6 <HAL_TIM_Encoder_Init+0xa6>
 8003d5a:	f890 303d 	ldrb.w	r3, [r0, #61]	; 0x3d
 8003d5e:	f003 02ff 	and.w	r2, r3, #255	; 0xff
 8003d62:	b91b      	cbnz	r3, 8003d6c <HAL_TIM_Encoder_Init+0x1c>
 8003d64:	f880 203c 	strb.w	r2, [r0, #60]	; 0x3c
 8003d68:	f7fe fc76 	bl	8002658 <HAL_TIM_Encoder_MspInit>
 8003d6c:	4621      	mov	r1, r4
 8003d6e:	2302      	movs	r3, #2
 8003d70:	f884 303d 	strb.w	r3, [r4, #61]	; 0x3d
 8003d74:	f851 0b04 	ldr.w	r0, [r1], #4
 8003d78:	6883      	ldr	r3, [r0, #8]
 8003d7a:	f423 4380 	bic.w	r3, r3, #16384	; 0x4000
 8003d7e:	f023 0307 	bic.w	r3, r3, #7
 8003d82:	6083      	str	r3, [r0, #8]
 8003d84:	f7ff fefa 	bl	8003b7c <TIM_Base_SetConfig>
 8003d88:	6820      	ldr	r0, [r4, #0]
 8003d8a:	682b      	ldr	r3, [r5, #0]
 8003d8c:	6886      	ldr	r6, [r0, #8]
 8003d8e:	6982      	ldr	r2, [r0, #24]
 8003d90:	68a9      	ldr	r1, [r5, #8]
 8003d92:	6a07      	ldr	r7, [r0, #32]
 8003d94:	431e      	orrs	r6, r3
 8003d96:	69ab      	ldr	r3, [r5, #24]
 8003d98:	f422 7240 	bic.w	r2, r2, #768	; 0x300
 8003d9c:	f022 0203 	bic.w	r2, r2, #3
 8003da0:	ea41 2303 	orr.w	r3, r1, r3, lsl #8
 8003da4:	4313      	orrs	r3, r2
 8003da6:	f423 427c 	bic.w	r2, r3, #64512	; 0xfc00
 8003daa:	692b      	ldr	r3, [r5, #16]
 8003dac:	69e9      	ldr	r1, [r5, #28]
 8003dae:	011b      	lsls	r3, r3, #4
 8003db0:	ea43 2301 	orr.w	r3, r3, r1, lsl #8
 8003db4:	68e9      	ldr	r1, [r5, #12]
 8003db6:	430b      	orrs	r3, r1
 8003db8:	6a29      	ldr	r1, [r5, #32]
 8003dba:	f022 02fc 	bic.w	r2, r2, #252	; 0xfc
 8003dbe:	ea43 3301 	orr.w	r3, r3, r1, lsl #12
 8003dc2:	4313      	orrs	r3, r2
 8003dc4:	6969      	ldr	r1, [r5, #20]
 8003dc6:	f027 02aa 	bic.w	r2, r7, #170	; 0xaa
 8003dca:	686f      	ldr	r7, [r5, #4]
 8003dcc:	6086      	str	r6, [r0, #8]
 8003dce:	ea47 1701 	orr.w	r7, r7, r1, lsl #4
 8003dd2:	6183      	str	r3, [r0, #24]
 8003dd4:	4317      	orrs	r7, r2
 8003dd6:	2301      	movs	r3, #1
 8003dd8:	6207      	str	r7, [r0, #32]
 8003dda:	f884 3046 	strb.w	r3, [r4, #70]	; 0x46
 8003dde:	2000      	movs	r0, #0
 8003de0:	f884 303e 	strb.w	r3, [r4, #62]	; 0x3e
 8003de4:	f884 303f 	strb.w	r3, [r4, #63]	; 0x3f
 8003de8:	f884 3042 	strb.w	r3, [r4, #66]	; 0x42
 8003dec:	f884 3043 	strb.w	r3, [r4, #67]	; 0x43
 8003df0:	f884 303d 	strb.w	r3, [r4, #61]	; 0x3d
 8003df4:	bdf8      	pop	{r3, r4, r5, r6, r7, pc}
 8003df6:	2001      	movs	r0, #1
 8003df8:	e7fc      	b.n	8003df4 <HAL_TIM_Encoder_Init+0xa4>
	...

08003dfc <TIM_OC2_SetConfig>:
 8003dfc:	6a03      	ldr	r3, [r0, #32]
 8003dfe:	f023 0310 	bic.w	r3, r3, #16
 8003e02:	6203      	str	r3, [r0, #32]
 8003e04:	6a03      	ldr	r3, [r0, #32]
 8003e06:	b570      	push	{r4, r5, r6, lr}
 8003e08:	6844      	ldr	r4, [r0, #4]
 8003e0a:	6982      	ldr	r2, [r0, #24]
 8003e0c:	680d      	ldr	r5, [r1, #0]
 8003e0e:	f422 42e6 	bic.w	r2, r2, #29440	; 0x7300
 8003e12:	ea42 2205 	orr.w	r2, r2, r5, lsl #8
 8003e16:	688d      	ldr	r5, [r1, #8]
 8003e18:	f023 0320 	bic.w	r3, r3, #32
 8003e1c:	ea43 1305 	orr.w	r3, r3, r5, lsl #4
 8003e20:	4d10      	ldr	r5, [pc, #64]	; (8003e64 <TIM_OC2_SetConfig+0x68>)
 8003e22:	42a8      	cmp	r0, r5
 8003e24:	d003      	beq.n	8003e2e <TIM_OC2_SetConfig+0x32>
 8003e26:	f505 6580 	add.w	r5, r5, #1024	; 0x400
 8003e2a:	42a8      	cmp	r0, r5
 8003e2c:	d114      	bne.n	8003e58 <TIM_OC2_SetConfig+0x5c>
 8003e2e:	68cd      	ldr	r5, [r1, #12]
 8003e30:	f023 0380 	bic.w	r3, r3, #128	; 0x80
 8003e34:	ea43 1305 	orr.w	r3, r3, r5, lsl #4
 8003e38:	4d0a      	ldr	r5, [pc, #40]	; (8003e64 <TIM_OC2_SetConfig+0x68>)
 8003e3a:	42a8      	cmp	r0, r5
 8003e3c:	f023 0340 	bic.w	r3, r3, #64	; 0x40
 8003e40:	d003      	beq.n	8003e4a <TIM_OC2_SetConfig+0x4e>
 8003e42:	f505 6580 	add.w	r5, r5, #1024	; 0x400
 8003e46:	42a8      	cmp	r0, r5
 8003e48:	d106      	bne.n	8003e58 <TIM_OC2_SetConfig+0x5c>
 8003e4a:	e9d1 5605 	ldrd	r5, r6, [r1, #20]
 8003e4e:	f424 6440 	bic.w	r4, r4, #3072	; 0xc00
 8003e52:	4335      	orrs	r5, r6
 8003e54:	ea44 0485 	orr.w	r4, r4, r5, lsl #2
 8003e58:	6044      	str	r4, [r0, #4]
 8003e5a:	6182      	str	r2, [r0, #24]
 8003e5c:	684a      	ldr	r2, [r1, #4]
 8003e5e:	6382      	str	r2, [r0, #56]	; 0x38
 8003e60:	6203      	str	r3, [r0, #32]
 8003e62:	bd70      	pop	{r4, r5, r6, pc}
 8003e64:	40010000 	.word	0x40010000

08003e68 <HAL_TIM_PWM_ConfigChannel>:
 8003e68:	b570      	push	{r4, r5, r6, lr}
 8003e6a:	f890 303c 	ldrb.w	r3, [r0, #60]	; 0x3c
 8003e6e:	2b01      	cmp	r3, #1
 8003e70:	4605      	mov	r5, r0
 8003e72:	4614      	mov	r4, r2
 8003e74:	d054      	beq.n	8003f20 <HAL_TIM_PWM_ConfigChannel+0xb8>
 8003e76:	2201      	movs	r2, #1
 8003e78:	2c08      	cmp	r4, #8
 8003e7a:	f880 203c 	strb.w	r2, [r0, #60]	; 0x3c
 8003e7e:	d03e      	beq.n	8003efe <HAL_TIM_PWM_ConfigChannel+0x96>
 8003e80:	d807      	bhi.n	8003e92 <HAL_TIM_PWM_ConfigChannel+0x2a>
 8003e82:	b1cc      	cbz	r4, 8003eb8 <HAL_TIM_PWM_ConfigChannel+0x50>
 8003e84:	2c04      	cmp	r4, #4
 8003e86:	d029      	beq.n	8003edc <HAL_TIM_PWM_ConfigChannel+0x74>
 8003e88:	2300      	movs	r3, #0
 8003e8a:	f885 303c 	strb.w	r3, [r5, #60]	; 0x3c
 8003e8e:	4610      	mov	r0, r2
 8003e90:	bd70      	pop	{r4, r5, r6, pc}
 8003e92:	2c0c      	cmp	r4, #12
 8003e94:	d1f8      	bne.n	8003e88 <HAL_TIM_PWM_ConfigChannel+0x20>
 8003e96:	6800      	ldr	r0, [r0, #0]
 8003e98:	f7ff fcfc 	bl	8003894 <TIM_OC4_SetConfig>
 8003e9c:	682b      	ldr	r3, [r5, #0]
 8003e9e:	6909      	ldr	r1, [r1, #16]
 8003ea0:	69da      	ldr	r2, [r3, #28]
 8003ea2:	f442 6200 	orr.w	r2, r2, #2048	; 0x800
 8003ea6:	61da      	str	r2, [r3, #28]
 8003ea8:	69da      	ldr	r2, [r3, #28]
 8003eaa:	f422 6280 	bic.w	r2, r2, #1024	; 0x400
 8003eae:	61da      	str	r2, [r3, #28]
 8003eb0:	69da      	ldr	r2, [r3, #28]
 8003eb2:	ea42 2201 	orr.w	r2, r2, r1, lsl #8
 8003eb6:	e031      	b.n	8003f1c <HAL_TIM_PWM_ConfigChannel+0xb4>
 8003eb8:	6800      	ldr	r0, [r0, #0]
 8003eba:	f7ff fc83 	bl	80037c4 <TIM_OC1_SetConfig>
 8003ebe:	682b      	ldr	r3, [r5, #0]
 8003ec0:	6909      	ldr	r1, [r1, #16]
 8003ec2:	699a      	ldr	r2, [r3, #24]
 8003ec4:	f042 0208 	orr.w	r2, r2, #8
 8003ec8:	619a      	str	r2, [r3, #24]
 8003eca:	699a      	ldr	r2, [r3, #24]
 8003ecc:	f022 0204 	bic.w	r2, r2, #4
 8003ed0:	619a      	str	r2, [r3, #24]
 8003ed2:	699a      	ldr	r2, [r3, #24]
 8003ed4:	430a      	orrs	r2, r1
 8003ed6:	619a      	str	r2, [r3, #24]
 8003ed8:	2200      	movs	r2, #0
 8003eda:	e7d5      	b.n	8003e88 <HAL_TIM_PWM_ConfigChannel+0x20>
 8003edc:	6800      	ldr	r0, [r0, #0]
 8003ede:	f7ff ff8d 	bl	8003dfc <TIM_OC2_SetConfig>
 8003ee2:	682b      	ldr	r3, [r5, #0]
 8003ee4:	6909      	ldr	r1, [r1, #16]
 8003ee6:	699a      	ldr	r2, [r3, #24]
 8003ee8:	f442 6200 	orr.w	r2, r2, #2048	; 0x800
 8003eec:	619a      	str	r2, [r3, #24]
 8003eee:	699a      	ldr	r2, [r3, #24]
 8003ef0:	f422 6280 	bic.w	r2, r2, #1024	; 0x400
 8003ef4:	619a      	str	r2, [r3, #24]
 8003ef6:	699a      	ldr	r2, [r3, #24]
 8003ef8:	ea42 2201 	orr.w	r2, r2, r1, lsl #8
 8003efc:	e7eb      	b.n	8003ed6 <HAL_TIM_PWM_ConfigChannel+0x6e>
 8003efe:	6800      	ldr	r0, [r0, #0]
 8003f00:	f7ff fc92 	bl	8003828 <TIM_OC3_SetConfig>
 8003f04:	682b      	ldr	r3, [r5, #0]
 8003f06:	6909      	ldr	r1, [r1, #16]
 8003f08:	69da      	ldr	r2, [r3, #28]
 8003f0a:	f042 0208 	orr.w	r2, r2, #8
 8003f0e:	61da      	str	r2, [r3, #28]
 8003f10:	69da      	ldr	r2, [r3, #28]
 8003f12:	f022 0204 	bic.w	r2, r2, #4
 8003f16:	61da      	str	r2, [r3, #28]
 8003f18:	69da      	ldr	r2, [r3, #28]
 8003f1a:	430a      	orrs	r2, r1
 8003f1c:	61da      	str	r2, [r3, #28]
 8003f1e:	e7db      	b.n	8003ed8 <HAL_TIM_PWM_ConfigChannel+0x70>
 8003f20:	2202      	movs	r2, #2
 8003f22:	e7b4      	b.n	8003e8e <HAL_TIM_PWM_ConfigChannel+0x26>

08003f24 <TIM_TI1_SetConfig>:
 8003f24:	b570      	push	{r4, r5, r6, lr}
 8003f26:	6a04      	ldr	r4, [r0, #32]
 8003f28:	4e1a      	ldr	r6, [pc, #104]	; (8003f94 <TIM_TI1_SetConfig+0x70>)
 8003f2a:	f024 0401 	bic.w	r4, r4, #1
 8003f2e:	6204      	str	r4, [r0, #32]
 8003f30:	42b0      	cmp	r0, r6
 8003f32:	6984      	ldr	r4, [r0, #24]
 8003f34:	6a05      	ldr	r5, [r0, #32]
 8003f36:	d029      	beq.n	8003f8c <TIM_TI1_SetConfig+0x68>
 8003f38:	f1b0 4f80 	cmp.w	r0, #1073741824	; 0x40000000
 8003f3c:	d026      	beq.n	8003f8c <TIM_TI1_SetConfig+0x68>
 8003f3e:	f5a6 467c 	sub.w	r6, r6, #64512	; 0xfc00
 8003f42:	42b0      	cmp	r0, r6
 8003f44:	d022      	beq.n	8003f8c <TIM_TI1_SetConfig+0x68>
 8003f46:	f506 6680 	add.w	r6, r6, #1024	; 0x400
 8003f4a:	42b0      	cmp	r0, r6
 8003f4c:	d01e      	beq.n	8003f8c <TIM_TI1_SetConfig+0x68>
 8003f4e:	f506 6680 	add.w	r6, r6, #1024	; 0x400
 8003f52:	42b0      	cmp	r0, r6
 8003f54:	d01a      	beq.n	8003f8c <TIM_TI1_SetConfig+0x68>
 8003f56:	f506 4678 	add.w	r6, r6, #63488	; 0xf800
 8003f5a:	42b0      	cmp	r0, r6
 8003f5c:	d016      	beq.n	8003f8c <TIM_TI1_SetConfig+0x68>
 8003f5e:	f506 5670 	add.w	r6, r6, #15360	; 0x3c00
 8003f62:	42b0      	cmp	r0, r6
 8003f64:	d012      	beq.n	8003f8c <TIM_TI1_SetConfig+0x68>
 8003f66:	f5a6 3694 	sub.w	r6, r6, #75776	; 0x12800
 8003f6a:	42b0      	cmp	r0, r6
 8003f6c:	d00e      	beq.n	8003f8c <TIM_TI1_SetConfig+0x68>
 8003f6e:	f044 0201 	orr.w	r2, r4, #1
 8003f72:	011b      	lsls	r3, r3, #4
 8003f74:	b2db      	uxtb	r3, r3
 8003f76:	f022 02f0 	bic.w	r2, r2, #240	; 0xf0
 8003f7a:	431a      	orrs	r2, r3
 8003f7c:	f001 010a 	and.w	r1, r1, #10
 8003f80:	f025 030a 	bic.w	r3, r5, #10
 8003f84:	4319      	orrs	r1, r3
 8003f86:	6182      	str	r2, [r0, #24]
 8003f88:	6201      	str	r1, [r0, #32]
 8003f8a:	bd70      	pop	{r4, r5, r6, pc}
 8003f8c:	f024 0403 	bic.w	r4, r4, #3
 8003f90:	4322      	orrs	r2, r4
 8003f92:	e7ee      	b.n	8003f72 <TIM_TI1_SetConfig+0x4e>
 8003f94:	40010000 	.word	0x40010000

08003f98 <HAL_TIM_IC_ConfigChannel>:
 8003f98:	b5f8      	push	{r3, r4, r5, r6, r7, lr}
 8003f9a:	f890 303c 	ldrb.w	r3, [r0, #60]	; 0x3c
 8003f9e:	2b01      	cmp	r3, #1
 8003fa0:	4605      	mov	r5, r0
 8003fa2:	460c      	mov	r4, r1
 8003fa4:	f000 8089 	beq.w	80040ba <HAL_TIM_IC_ConfigChannel+0x122>
 8003fa8:	2001      	movs	r0, #1
 8003faa:	f885 003c 	strb.w	r0, [r5, #60]	; 0x3c
 8003fae:	b99a      	cbnz	r2, 8003fd8 <HAL_TIM_IC_ConfigChannel+0x40>
 8003fb0:	68cb      	ldr	r3, [r1, #12]
 8003fb2:	6828      	ldr	r0, [r5, #0]
 8003fb4:	e9d1 1200 	ldrd	r1, r2, [r1]
 8003fb8:	f7ff ffb4 	bl	8003f24 <TIM_TI1_SetConfig>
 8003fbc:	682b      	ldr	r3, [r5, #0]
 8003fbe:	68a1      	ldr	r1, [r4, #8]
 8003fc0:	699a      	ldr	r2, [r3, #24]
 8003fc2:	f022 020c 	bic.w	r2, r2, #12
 8003fc6:	619a      	str	r2, [r3, #24]
 8003fc8:	699a      	ldr	r2, [r3, #24]
 8003fca:	430a      	orrs	r2, r1
 8003fcc:	619a      	str	r2, [r3, #24]
 8003fce:	2000      	movs	r0, #0
 8003fd0:	2300      	movs	r3, #0
 8003fd2:	f885 303c 	strb.w	r3, [r5, #60]	; 0x3c
 8003fd6:	bdf8      	pop	{r3, r4, r5, r6, r7, pc}
 8003fd8:	2a04      	cmp	r2, #4
 8003fda:	d123      	bne.n	8004024 <HAL_TIM_IC_ConfigChannel+0x8c>
 8003fdc:	682b      	ldr	r3, [r5, #0]
 8003fde:	6a1e      	ldr	r6, [r3, #32]
 8003fe0:	f026 0610 	bic.w	r6, r6, #16
 8003fe4:	e9d1 2700 	ldrd	r2, r7, [r1]
 8003fe8:	68c9      	ldr	r1, [r1, #12]
 8003fea:	621e      	str	r6, [r3, #32]
 8003fec:	6998      	ldr	r0, [r3, #24]
 8003fee:	6a1e      	ldr	r6, [r3, #32]
 8003ff0:	f420 7040 	bic.w	r0, r0, #768	; 0x300
 8003ff4:	ea40 2007 	orr.w	r0, r0, r7, lsl #8
 8003ff8:	0309      	lsls	r1, r1, #12
 8003ffa:	f420 4070 	bic.w	r0, r0, #61440	; 0xf000
 8003ffe:	b289      	uxth	r1, r1
 8004000:	0112      	lsls	r2, r2, #4
 8004002:	4301      	orrs	r1, r0
 8004004:	f002 02a0 	and.w	r2, r2, #160	; 0xa0
 8004008:	f026 00a0 	bic.w	r0, r6, #160	; 0xa0
 800400c:	4302      	orrs	r2, r0
 800400e:	6199      	str	r1, [r3, #24]
 8004010:	621a      	str	r2, [r3, #32]
 8004012:	699a      	ldr	r2, [r3, #24]
 8004014:	68a1      	ldr	r1, [r4, #8]
 8004016:	f422 6240 	bic.w	r2, r2, #3072	; 0xc00
 800401a:	619a      	str	r2, [r3, #24]
 800401c:	699a      	ldr	r2, [r3, #24]
 800401e:	ea42 2201 	orr.w	r2, r2, r1, lsl #8
 8004022:	e7d3      	b.n	8003fcc <HAL_TIM_IC_ConfigChannel+0x34>
 8004024:	2a08      	cmp	r2, #8
 8004026:	d122      	bne.n	800406e <HAL_TIM_IC_ConfigChannel+0xd6>
 8004028:	682b      	ldr	r3, [r5, #0]
 800402a:	6a1e      	ldr	r6, [r3, #32]
 800402c:	f426 7680 	bic.w	r6, r6, #256	; 0x100
 8004030:	e9d1 2000 	ldrd	r2, r0, [r1]
 8004034:	68c9      	ldr	r1, [r1, #12]
 8004036:	621e      	str	r6, [r3, #32]
 8004038:	69df      	ldr	r7, [r3, #28]
 800403a:	6a1e      	ldr	r6, [r3, #32]
 800403c:	f027 0703 	bic.w	r7, r7, #3
 8004040:	4338      	orrs	r0, r7
 8004042:	0109      	lsls	r1, r1, #4
 8004044:	f020 00f0 	bic.w	r0, r0, #240	; 0xf0
 8004048:	b2c9      	uxtb	r1, r1
 800404a:	0212      	lsls	r2, r2, #8
 800404c:	4301      	orrs	r1, r0
 800404e:	f402 6220 	and.w	r2, r2, #2560	; 0xa00
 8004052:	f426 6020 	bic.w	r0, r6, #2560	; 0xa00
 8004056:	4302      	orrs	r2, r0
 8004058:	61d9      	str	r1, [r3, #28]
 800405a:	621a      	str	r2, [r3, #32]
 800405c:	69da      	ldr	r2, [r3, #28]
 800405e:	68a1      	ldr	r1, [r4, #8]
 8004060:	f022 020c 	bic.w	r2, r2, #12
 8004064:	61da      	str	r2, [r3, #28]
 8004066:	69da      	ldr	r2, [r3, #28]
 8004068:	430a      	orrs	r2, r1
 800406a:	61da      	str	r2, [r3, #28]
 800406c:	e7af      	b.n	8003fce <HAL_TIM_IC_ConfigChannel+0x36>
 800406e:	2a0c      	cmp	r2, #12
 8004070:	d1ae      	bne.n	8003fd0 <HAL_TIM_IC_ConfigChannel+0x38>
 8004072:	682b      	ldr	r3, [r5, #0]
 8004074:	6a1e      	ldr	r6, [r3, #32]
 8004076:	f426 5680 	bic.w	r6, r6, #4096	; 0x1000
 800407a:	e9d1 2700 	ldrd	r2, r7, [r1]
 800407e:	68c9      	ldr	r1, [r1, #12]
 8004080:	621e      	str	r6, [r3, #32]
 8004082:	69d8      	ldr	r0, [r3, #28]
 8004084:	6a1e      	ldr	r6, [r3, #32]
 8004086:	f420 7040 	bic.w	r0, r0, #768	; 0x300
 800408a:	ea40 2007 	orr.w	r0, r0, r7, lsl #8
 800408e:	0309      	lsls	r1, r1, #12
 8004090:	f420 4070 	bic.w	r0, r0, #61440	; 0xf000
 8004094:	b289      	uxth	r1, r1
 8004096:	0312      	lsls	r2, r2, #12
 8004098:	4301      	orrs	r1, r0
 800409a:	f402 4220 	and.w	r2, r2, #40960	; 0xa000
 800409e:	f426 4020 	bic.w	r0, r6, #40960	; 0xa000
 80040a2:	4302      	orrs	r2, r0
 80040a4:	61d9      	str	r1, [r3, #28]
 80040a6:	621a      	str	r2, [r3, #32]
 80040a8:	69da      	ldr	r2, [r3, #28]
 80040aa:	68a1      	ldr	r1, [r4, #8]
 80040ac:	f422 6240 	bic.w	r2, r2, #3072	; 0xc00
 80040b0:	61da      	str	r2, [r3, #28]
 80040b2:	69da      	ldr	r2, [r3, #28]
 80040b4:	ea42 2201 	orr.w	r2, r2, r1, lsl #8
 80040b8:	e7d7      	b.n	800406a <HAL_TIM_IC_ConfigChannel+0xd2>
 80040ba:	2002      	movs	r0, #2
 80040bc:	e78b      	b.n	8003fd6 <HAL_TIM_IC_ConfigChannel+0x3e>

080040be <TIM_ETR_SetConfig>:
 80040be:	b510      	push	{r4, lr}
 80040c0:	6884      	ldr	r4, [r0, #8]
 80040c2:	4311      	orrs	r1, r2
 80040c4:	f424 447f 	bic.w	r4, r4, #65280	; 0xff00
 80040c8:	ea41 2303 	orr.w	r3, r1, r3, lsl #8
 80040cc:	4323      	orrs	r3, r4
 80040ce:	6083      	str	r3, [r0, #8]
 80040d0:	bd10      	pop	{r4, pc}

080040d2 <HAL_TIM_ConfigClockSource>:
 80040d2:	b570      	push	{r4, r5, r6, lr}
 80040d4:	f890 303c 	ldrb.w	r3, [r0, #60]	; 0x3c
 80040d8:	2b01      	cmp	r3, #1
 80040da:	4604      	mov	r4, r0
 80040dc:	f04f 0302 	mov.w	r3, #2
 80040e0:	f000 8091 	beq.w	8004206 <HAL_TIM_ConfigClockSource+0x134>
 80040e4:	2201      	movs	r2, #1
 80040e6:	f880 303d 	strb.w	r3, [r0, #61]	; 0x3d
 80040ea:	f880 203c 	strb.w	r2, [r0, #60]	; 0x3c
 80040ee:	6800      	ldr	r0, [r0, #0]
 80040f0:	6883      	ldr	r3, [r0, #8]
 80040f2:	f423 437f 	bic.w	r3, r3, #65280	; 0xff00
 80040f6:	f023 0377 	bic.w	r3, r3, #119	; 0x77
 80040fa:	6083      	str	r3, [r0, #8]
 80040fc:	680b      	ldr	r3, [r1, #0]
 80040fe:	2b60      	cmp	r3, #96	; 0x60
 8004100:	d052      	beq.n	80041a8 <HAL_TIM_ConfigClockSource+0xd6>
 8004102:	d833      	bhi.n	800416c <HAL_TIM_ConfigClockSource+0x9a>
 8004104:	2b40      	cmp	r3, #64	; 0x40
 8004106:	d067      	beq.n	80041d8 <HAL_TIM_ConfigClockSource+0x106>
 8004108:	d816      	bhi.n	8004138 <HAL_TIM_ConfigClockSource+0x66>
 800410a:	2b20      	cmp	r3, #32
 800410c:	d00d      	beq.n	800412a <HAL_TIM_ConfigClockSource+0x58>
 800410e:	d80a      	bhi.n	8004126 <HAL_TIM_ConfigClockSource+0x54>
 8004110:	f033 0110 	bics.w	r1, r3, #16
 8004114:	d009      	beq.n	800412a <HAL_TIM_ConfigClockSource+0x58>
 8004116:	2301      	movs	r3, #1
 8004118:	f884 303d 	strb.w	r3, [r4, #61]	; 0x3d
 800411c:	2300      	movs	r3, #0
 800411e:	f884 303c 	strb.w	r3, [r4, #60]	; 0x3c
 8004122:	4610      	mov	r0, r2
 8004124:	bd70      	pop	{r4, r5, r6, pc}
 8004126:	2b30      	cmp	r3, #48	; 0x30
 8004128:	d1f5      	bne.n	8004116 <HAL_TIM_ConfigClockSource+0x44>
 800412a:	6882      	ldr	r2, [r0, #8]
 800412c:	f022 0270 	bic.w	r2, r2, #112	; 0x70
 8004130:	4313      	orrs	r3, r2
 8004132:	f043 0307 	orr.w	r3, r3, #7
 8004136:	e017      	b.n	8004168 <HAL_TIM_ConfigClockSource+0x96>
 8004138:	2b50      	cmp	r3, #80	; 0x50
 800413a:	d1ec      	bne.n	8004116 <HAL_TIM_ConfigClockSource+0x44>
 800413c:	684a      	ldr	r2, [r1, #4]
 800413e:	68ce      	ldr	r6, [r1, #12]
 8004140:	6a01      	ldr	r1, [r0, #32]
 8004142:	6a05      	ldr	r5, [r0, #32]
 8004144:	f025 0501 	bic.w	r5, r5, #1
 8004148:	6205      	str	r5, [r0, #32]
 800414a:	6983      	ldr	r3, [r0, #24]
 800414c:	f021 010a 	bic.w	r1, r1, #10
 8004150:	f023 03f0 	bic.w	r3, r3, #240	; 0xf0
 8004154:	ea43 1306 	orr.w	r3, r3, r6, lsl #4
 8004158:	430a      	orrs	r2, r1
 800415a:	6183      	str	r3, [r0, #24]
 800415c:	6202      	str	r2, [r0, #32]
 800415e:	6883      	ldr	r3, [r0, #8]
 8004160:	f023 0370 	bic.w	r3, r3, #112	; 0x70
 8004164:	f043 0357 	orr.w	r3, r3, #87	; 0x57
 8004168:	6083      	str	r3, [r0, #8]
 800416a:	e011      	b.n	8004190 <HAL_TIM_ConfigClockSource+0xbe>
 800416c:	f5b3 5f80 	cmp.w	r3, #4096	; 0x1000
 8004170:	d00e      	beq.n	8004190 <HAL_TIM_ConfigClockSource+0xbe>
 8004172:	f5b3 5f00 	cmp.w	r3, #8192	; 0x2000
 8004176:	d00d      	beq.n	8004194 <HAL_TIM_ConfigClockSource+0xc2>
 8004178:	2b70      	cmp	r3, #112	; 0x70
 800417a:	d1cc      	bne.n	8004116 <HAL_TIM_ConfigClockSource+0x44>
 800417c:	68cb      	ldr	r3, [r1, #12]
 800417e:	e9d1 2101 	ldrd	r2, r1, [r1, #4]
 8004182:	f7ff ff9c 	bl	80040be <TIM_ETR_SetConfig>
 8004186:	6822      	ldr	r2, [r4, #0]
 8004188:	6893      	ldr	r3, [r2, #8]
 800418a:	f043 0377 	orr.w	r3, r3, #119	; 0x77
 800418e:	6093      	str	r3, [r2, #8]
 8004190:	2200      	movs	r2, #0
 8004192:	e7c0      	b.n	8004116 <HAL_TIM_ConfigClockSource+0x44>
 8004194:	68cb      	ldr	r3, [r1, #12]
 8004196:	e9d1 2101 	ldrd	r2, r1, [r1, #4]
 800419a:	f7ff ff90 	bl	80040be <TIM_ETR_SetConfig>
 800419e:	6822      	ldr	r2, [r4, #0]
 80041a0:	6893      	ldr	r3, [r2, #8]
 80041a2:	f443 4380 	orr.w	r3, r3, #16384	; 0x4000
 80041a6:	e7f2      	b.n	800418e <HAL_TIM_ConfigClockSource+0xbc>
 80041a8:	684d      	ldr	r5, [r1, #4]
 80041aa:	68ce      	ldr	r6, [r1, #12]
 80041ac:	6a01      	ldr	r1, [r0, #32]
 80041ae:	f021 0110 	bic.w	r1, r1, #16
 80041b2:	6201      	str	r1, [r0, #32]
 80041b4:	6982      	ldr	r2, [r0, #24]
 80041b6:	6a03      	ldr	r3, [r0, #32]
 80041b8:	f422 4270 	bic.w	r2, r2, #61440	; 0xf000
 80041bc:	f023 03a0 	bic.w	r3, r3, #160	; 0xa0
 80041c0:	ea43 1305 	orr.w	r3, r3, r5, lsl #4
 80041c4:	ea42 3206 	orr.w	r2, r2, r6, lsl #12
 80041c8:	6182      	str	r2, [r0, #24]
 80041ca:	6203      	str	r3, [r0, #32]
 80041cc:	6883      	ldr	r3, [r0, #8]
 80041ce:	f023 0370 	bic.w	r3, r3, #112	; 0x70
 80041d2:	f043 0367 	orr.w	r3, r3, #103	; 0x67
 80041d6:	e7c7      	b.n	8004168 <HAL_TIM_ConfigClockSource+0x96>
 80041d8:	684a      	ldr	r2, [r1, #4]
 80041da:	68ce      	ldr	r6, [r1, #12]
 80041dc:	6a01      	ldr	r1, [r0, #32]
 80041de:	6a05      	ldr	r5, [r0, #32]
 80041e0:	f025 0501 	bic.w	r5, r5, #1
 80041e4:	6205      	str	r5, [r0, #32]
 80041e6:	6983      	ldr	r3, [r0, #24]
 80041e8:	f021 010a 	bic.w	r1, r1, #10
 80041ec:	f023 03f0 	bic.w	r3, r3, #240	; 0xf0
 80041f0:	ea43 1306 	orr.w	r3, r3, r6, lsl #4
 80041f4:	430a      	orrs	r2, r1
 80041f6:	6183      	str	r3, [r0, #24]
 80041f8:	6202      	str	r2, [r0, #32]
 80041fa:	6883      	ldr	r3, [r0, #8]
 80041fc:	f023 0370 	bic.w	r3, r3, #112	; 0x70
 8004200:	f043 0347 	orr.w	r3, r3, #71	; 0x47
 8004204:	e7b0      	b.n	8004168 <HAL_TIM_ConfigClockSource+0x96>
 8004206:	461a      	mov	r2, r3
 8004208:	e78b      	b.n	8004122 <HAL_TIM_ConfigClockSource+0x50>

0800420a <TIM_CCxChannelCmd>:
 800420a:	6a03      	ldr	r3, [r0, #32]
 800420c:	f001 011f 	and.w	r1, r1, #31
 8004210:	b510      	push	{r4, lr}
 8004212:	2401      	movs	r4, #1
 8004214:	408c      	lsls	r4, r1
 8004216:	ea23 0304 	bic.w	r3, r3, r4
 800421a:	6203      	str	r3, [r0, #32]
 800421c:	6a03      	ldr	r3, [r0, #32]
 800421e:	408a      	lsls	r2, r1
 8004220:	431a      	orrs	r2, r3
 8004222:	6202      	str	r2, [r0, #32]
 8004224:	bd10      	pop	{r4, pc}
	...

08004228 <HAL_TIM_OC_Start>:
 8004228:	b510      	push	{r4, lr}
 800422a:	4604      	mov	r4, r0
 800422c:	b929      	cbnz	r1, 800423a <HAL_TIM_OC_Start+0x12>
 800422e:	f890 303e 	ldrb.w	r3, [r0, #62]	; 0x3e
 8004232:	2b01      	cmp	r3, #1
 8004234:	d01d      	beq.n	8004272 <HAL_TIM_OC_Start+0x4a>
 8004236:	2001      	movs	r0, #1
 8004238:	e032      	b.n	80042a0 <HAL_TIM_OC_Start+0x78>
 800423a:	2904      	cmp	r1, #4
 800423c:	d107      	bne.n	800424e <HAL_TIM_OC_Start+0x26>
 800423e:	f890 303f 	ldrb.w	r3, [r0, #63]	; 0x3f
 8004242:	2b01      	cmp	r3, #1
 8004244:	d1f7      	bne.n	8004236 <HAL_TIM_OC_Start+0xe>
 8004246:	2302      	movs	r3, #2
 8004248:	f880 303f 	strb.w	r3, [r0, #63]	; 0x3f
 800424c:	e014      	b.n	8004278 <HAL_TIM_OC_Start+0x50>
 800424e:	2908      	cmp	r1, #8
 8004250:	d107      	bne.n	8004262 <HAL_TIM_OC_Start+0x3a>
 8004252:	f890 3040 	ldrb.w	r3, [r0, #64]	; 0x40
 8004256:	2b01      	cmp	r3, #1
 8004258:	d1ed      	bne.n	8004236 <HAL_TIM_OC_Start+0xe>
 800425a:	2302      	movs	r3, #2
 800425c:	f880 3040 	strb.w	r3, [r0, #64]	; 0x40
 8004260:	e00a      	b.n	8004278 <HAL_TIM_OC_Start+0x50>
 8004262:	f890 3041 	ldrb.w	r3, [r0, #65]	; 0x41
 8004266:	2b01      	cmp	r3, #1
 8004268:	d1e5      	bne.n	8004236 <HAL_TIM_OC_Start+0xe>
 800426a:	2302      	movs	r3, #2
 800426c:	f880 3041 	strb.w	r3, [r0, #65]	; 0x41
 8004270:	e002      	b.n	8004278 <HAL_TIM_OC_Start+0x50>
 8004272:	2302      	movs	r3, #2
 8004274:	f880 303e 	strb.w	r3, [r0, #62]	; 0x3e
 8004278:	2201      	movs	r2, #1
 800427a:	6820      	ldr	r0, [r4, #0]
 800427c:	f7ff ffc5 	bl	800420a <TIM_CCxChannelCmd>
 8004280:	6823      	ldr	r3, [r4, #0]
 8004282:	4a19      	ldr	r2, [pc, #100]	; (80042e8 <HAL_TIM_OC_Start+0xc0>)
 8004284:	4293      	cmp	r3, r2
 8004286:	d00c      	beq.n	80042a2 <HAL_TIM_OC_Start+0x7a>
 8004288:	4918      	ldr	r1, [pc, #96]	; (80042ec <HAL_TIM_OC_Start+0xc4>)
 800428a:	428b      	cmp	r3, r1
 800428c:	d009      	beq.n	80042a2 <HAL_TIM_OC_Start+0x7a>
 800428e:	f1b3 4f80 	cmp.w	r3, #1073741824	; 0x40000000
 8004292:	d10d      	bne.n	80042b0 <HAL_TIM_OC_Start+0x88>
 8004294:	689a      	ldr	r2, [r3, #8]
 8004296:	f002 0207 	and.w	r2, r2, #7
 800429a:	2a06      	cmp	r2, #6
 800429c:	d11f      	bne.n	80042de <HAL_TIM_OC_Start+0xb6>
 800429e:	2000      	movs	r0, #0
 80042a0:	bd10      	pop	{r4, pc}
 80042a2:	6c59      	ldr	r1, [r3, #68]	; 0x44
 80042a4:	4293      	cmp	r3, r2
 80042a6:	f441 4100 	orr.w	r1, r1, #32768	; 0x8000
 80042aa:	6459      	str	r1, [r3, #68]	; 0x44
 80042ac:	d0f2      	beq.n	8004294 <HAL_TIM_OC_Start+0x6c>
 80042ae:	e7ee      	b.n	800428e <HAL_TIM_OC_Start+0x66>
 80042b0:	4a0f      	ldr	r2, [pc, #60]	; (80042f0 <HAL_TIM_OC_Start+0xc8>)
 80042b2:	4293      	cmp	r3, r2
 80042b4:	d0ee      	beq.n	8004294 <HAL_TIM_OC_Start+0x6c>
 80042b6:	f502 6280 	add.w	r2, r2, #1024	; 0x400
 80042ba:	4293      	cmp	r3, r2
 80042bc:	d0ea      	beq.n	8004294 <HAL_TIM_OC_Start+0x6c>
 80042be:	f502 6280 	add.w	r2, r2, #1024	; 0x400
 80042c2:	4293      	cmp	r3, r2
 80042c4:	d0e6      	beq.n	8004294 <HAL_TIM_OC_Start+0x6c>
 80042c6:	f502 4278 	add.w	r2, r2, #63488	; 0xf800
 80042ca:	4293      	cmp	r3, r2
 80042cc:	d0e2      	beq.n	8004294 <HAL_TIM_OC_Start+0x6c>
 80042ce:	f502 5270 	add.w	r2, r2, #15360	; 0x3c00
 80042d2:	4293      	cmp	r3, r2
 80042d4:	d0de      	beq.n	8004294 <HAL_TIM_OC_Start+0x6c>
 80042d6:	f5a2 3294 	sub.w	r2, r2, #75776	; 0x12800
 80042da:	4293      	cmp	r3, r2
 80042dc:	d0da      	beq.n	8004294 <HAL_TIM_OC_Start+0x6c>
 80042de:	681a      	ldr	r2, [r3, #0]
 80042e0:	f042 0201 	orr.w	r2, r2, #1
 80042e4:	601a      	str	r2, [r3, #0]
 80042e6:	e7da      	b.n	800429e <HAL_TIM_OC_Start+0x76>
 80042e8:	40010000 	.word	0x40010000
 80042ec:	40010400 	.word	0x40010400
 80042f0:	40000400 	.word	0x40000400

080042f4 <HAL_TIM_PWM_Start>:
 80042f4:	f7ff bf98 	b.w	8004228 <HAL_TIM_OC_Start>

080042f8 <HAL_TIM_OC_Start_IT>:
 80042f8:	b510      	push	{r4, lr}
 80042fa:	4604      	mov	r4, r0
 80042fc:	b929      	cbnz	r1, 800430a <HAL_TIM_OC_Start_IT+0x12>
 80042fe:	f890 303e 	ldrb.w	r3, [r0, #62]	; 0x3e
 8004302:	2b01      	cmp	r3, #1
 8004304:	d02c      	beq.n	8004360 <HAL_TIM_OC_Start_IT+0x68>
 8004306:	2001      	movs	r0, #1
 8004308:	e046      	b.n	8004398 <HAL_TIM_OC_Start_IT+0xa0>
 800430a:	2904      	cmp	r1, #4
 800430c:	d10b      	bne.n	8004326 <HAL_TIM_OC_Start_IT+0x2e>
 800430e:	f890 303f 	ldrb.w	r3, [r0, #63]	; 0x3f
 8004312:	2b01      	cmp	r3, #1
 8004314:	d1f7      	bne.n	8004306 <HAL_TIM_OC_Start_IT+0xe>
 8004316:	2302      	movs	r3, #2
 8004318:	6802      	ldr	r2, [r0, #0]
 800431a:	f880 303f 	strb.w	r3, [r0, #63]	; 0x3f
 800431e:	68d3      	ldr	r3, [r2, #12]
 8004320:	f043 0304 	orr.w	r3, r3, #4
 8004324:	e023      	b.n	800436e <HAL_TIM_OC_Start_IT+0x76>
 8004326:	2908      	cmp	r1, #8
 8004328:	d10b      	bne.n	8004342 <HAL_TIM_OC_Start_IT+0x4a>
 800432a:	f890 3040 	ldrb.w	r3, [r0, #64]	; 0x40
 800432e:	2b01      	cmp	r3, #1
 8004330:	d1e9      	bne.n	8004306 <HAL_TIM_OC_Start_IT+0xe>
 8004332:	2302      	movs	r3, #2
 8004334:	6802      	ldr	r2, [r0, #0]
 8004336:	f880 3040 	strb.w	r3, [r0, #64]	; 0x40
 800433a:	68d3      	ldr	r3, [r2, #12]
 800433c:	f043 0308 	orr.w	r3, r3, #8
 8004340:	e015      	b.n	800436e <HAL_TIM_OC_Start_IT+0x76>
 8004342:	f890 3041 	ldrb.w	r3, [r0, #65]	; 0x41
 8004346:	2b01      	cmp	r3, #1
 8004348:	b2d8      	uxtb	r0, r3
 800434a:	d1dc      	bne.n	8004306 <HAL_TIM_OC_Start_IT+0xe>
 800434c:	2302      	movs	r3, #2
 800434e:	290c      	cmp	r1, #12
 8004350:	f884 3041 	strb.w	r3, [r4, #65]	; 0x41
 8004354:	d120      	bne.n	8004398 <HAL_TIM_OC_Start_IT+0xa0>
 8004356:	6822      	ldr	r2, [r4, #0]
 8004358:	68d3      	ldr	r3, [r2, #12]
 800435a:	f043 0310 	orr.w	r3, r3, #16
 800435e:	e006      	b.n	800436e <HAL_TIM_OC_Start_IT+0x76>
 8004360:	2302      	movs	r3, #2
 8004362:	6802      	ldr	r2, [r0, #0]
 8004364:	f880 303e 	strb.w	r3, [r0, #62]	; 0x3e
 8004368:	68d3      	ldr	r3, [r2, #12]
 800436a:	f043 0302 	orr.w	r3, r3, #2
 800436e:	60d3      	str	r3, [r2, #12]
 8004370:	6820      	ldr	r0, [r4, #0]
 8004372:	2201      	movs	r2, #1
 8004374:	f7ff ff49 	bl	800420a <TIM_CCxChannelCmd>
 8004378:	6823      	ldr	r3, [r4, #0]
 800437a:	4a19      	ldr	r2, [pc, #100]	; (80043e0 <HAL_TIM_OC_Start_IT+0xe8>)
 800437c:	4293      	cmp	r3, r2
 800437e:	d00c      	beq.n	800439a <HAL_TIM_OC_Start_IT+0xa2>
 8004380:	4918      	ldr	r1, [pc, #96]	; (80043e4 <HAL_TIM_OC_Start_IT+0xec>)
 8004382:	428b      	cmp	r3, r1
 8004384:	d009      	beq.n	800439a <HAL_TIM_OC_Start_IT+0xa2>
 8004386:	f1b3 4f80 	cmp.w	r3, #1073741824	; 0x40000000
 800438a:	d10d      	bne.n	80043a8 <HAL_TIM_OC_Start_IT+0xb0>
 800438c:	689a      	ldr	r2, [r3, #8]
 800438e:	f002 0207 	and.w	r2, r2, #7
 8004392:	2a06      	cmp	r2, #6
 8004394:	d11f      	bne.n	80043d6 <HAL_TIM_OC_Start_IT+0xde>
 8004396:	2000      	movs	r0, #0
 8004398:	bd10      	pop	{r4, pc}
 800439a:	6c59      	ldr	r1, [r3, #68]	; 0x44
 800439c:	4293      	cmp	r3, r2
 800439e:	f441 4100 	orr.w	r1, r1, #32768	; 0x8000
 80043a2:	6459      	str	r1, [r3, #68]	; 0x44
 80043a4:	d0f2      	beq.n	800438c <HAL_TIM_OC_Start_IT+0x94>
 80043a6:	e7ee      	b.n	8004386 <HAL_TIM_OC_Start_IT+0x8e>
 80043a8:	4a0f      	ldr	r2, [pc, #60]	; (80043e8 <HAL_TIM_OC_Start_IT+0xf0>)
 80043aa:	4293      	cmp	r3, r2
 80043ac:	d0ee      	beq.n	800438c <HAL_TIM_OC_Start_IT+0x94>
 80043ae:	f502 6280 	add.w	r2, r2, #1024	; 0x400
 80043b2:	4293      	cmp	r3, r2
 80043b4:	d0ea      	beq.n	800438c <HAL_TIM_OC_Start_IT+0x94>
 80043b6:	f502 6280 	add.w	r2, r2, #1024	; 0x400
 80043ba:	4293      	cmp	r3, r2
 80043bc:	d0e6      	beq.n	800438c <HAL_TIM_OC_Start_IT+0x94>
 80043be:	f502 4278 	add.w	r2, r2, #63488	; 0xf800
 80043c2:	4293      	cmp	r3, r2
 80043c4:	d0e2      	beq.n	800438c <HAL_TIM_OC_Start_IT+0x94>
 80043c6:	f502 5270 	add.w	r2, r2, #15360	; 0x3c00
 80043ca:	4293      	cmp	r3, r2
 80043cc:	d0de      	beq.n	800438c <HAL_TIM_OC_Start_IT+0x94>
 80043ce:	f5a2 3294 	sub.w	r2, r2, #75776	; 0x12800
 80043d2:	4293      	cmp	r3, r2
 80043d4:	d0da      	beq.n	800438c <HAL_TIM_OC_Start_IT+0x94>
 80043d6:	681a      	ldr	r2, [r3, #0]
 80043d8:	f042 0201 	orr.w	r2, r2, #1
 80043dc:	601a      	str	r2, [r3, #0]
 80043de:	e7da      	b.n	8004396 <HAL_TIM_OC_Start_IT+0x9e>
 80043e0:	40010000 	.word	0x40010000
 80043e4:	40010400 	.word	0x40010400
 80043e8:	40000400 	.word	0x40000400

080043ec <HAL_TIM_PWM_Start_IT>:
 80043ec:	f7ff bf84 	b.w	80042f8 <HAL_TIM_OC_Start_IT>

080043f0 <HAL_TIM_IC_Start_IT>:
 80043f0:	b510      	push	{r4, lr}
 80043f2:	4604      	mov	r4, r0
 80043f4:	2900      	cmp	r1, #0
 80043f6:	d143      	bne.n	8004480 <HAL_TIM_IC_Start_IT+0x90>
 80043f8:	f890 303e 	ldrb.w	r3, [r0, #62]	; 0x3e
 80043fc:	f890 0042 	ldrb.w	r0, [r0, #66]	; 0x42
 8004400:	b2db      	uxtb	r3, r3
 8004402:	2b01      	cmp	r3, #1
 8004404:	b2c0      	uxtb	r0, r0
 8004406:	d172      	bne.n	80044ee <HAL_TIM_IC_Start_IT+0xfe>
 8004408:	2801      	cmp	r0, #1
 800440a:	d170      	bne.n	80044ee <HAL_TIM_IC_Start_IT+0xfe>
 800440c:	2302      	movs	r3, #2
 800440e:	2900      	cmp	r1, #0
 8004410:	d14c      	bne.n	80044ac <HAL_TIM_IC_Start_IT+0xbc>
 8004412:	6822      	ldr	r2, [r4, #0]
 8004414:	f884 303e 	strb.w	r3, [r4, #62]	; 0x3e
 8004418:	f884 3042 	strb.w	r3, [r4, #66]	; 0x42
 800441c:	68d3      	ldr	r3, [r2, #12]
 800441e:	f043 0302 	orr.w	r3, r3, #2
 8004422:	60d3      	str	r3, [r2, #12]
 8004424:	6820      	ldr	r0, [r4, #0]
 8004426:	2201      	movs	r2, #1
 8004428:	f7ff feef 	bl	800420a <TIM_CCxChannelCmd>
 800442c:	6823      	ldr	r3, [r4, #0]
 800442e:	4a31      	ldr	r2, [pc, #196]	; (80044f4 <HAL_TIM_IC_Start_IT+0x104>)
 8004430:	4293      	cmp	r3, r2
 8004432:	d01a      	beq.n	800446a <HAL_TIM_IC_Start_IT+0x7a>
 8004434:	f1b3 4f80 	cmp.w	r3, #1073741824	; 0x40000000
 8004438:	d017      	beq.n	800446a <HAL_TIM_IC_Start_IT+0x7a>
 800443a:	f5a2 427c 	sub.w	r2, r2, #64512	; 0xfc00
 800443e:	4293      	cmp	r3, r2
 8004440:	d013      	beq.n	800446a <HAL_TIM_IC_Start_IT+0x7a>
 8004442:	f502 6280 	add.w	r2, r2, #1024	; 0x400
 8004446:	4293      	cmp	r3, r2
 8004448:	d00f      	beq.n	800446a <HAL_TIM_IC_Start_IT+0x7a>
 800444a:	f502 6280 	add.w	r2, r2, #1024	; 0x400
 800444e:	4293      	cmp	r3, r2
 8004450:	d00b      	beq.n	800446a <HAL_TIM_IC_Start_IT+0x7a>
 8004452:	f502 4278 	add.w	r2, r2, #63488	; 0xf800
 8004456:	4293      	cmp	r3, r2
 8004458:	d007      	beq.n	800446a <HAL_TIM_IC_Start_IT+0x7a>
 800445a:	f502 5270 	add.w	r2, r2, #15360	; 0x3c00
 800445e:	4293      	cmp	r3, r2
 8004460:	d003      	beq.n	800446a <HAL_TIM_IC_Start_IT+0x7a>
 8004462:	f5a2 3294 	sub.w	r2, r2, #75776	; 0x12800
 8004466:	4293      	cmp	r3, r2
 8004468:	d104      	bne.n	8004474 <HAL_TIM_IC_Start_IT+0x84>
 800446a:	689a      	ldr	r2, [r3, #8]
 800446c:	f002 0207 	and.w	r2, r2, #7
 8004470:	2a06      	cmp	r2, #6
 8004472:	d003      	beq.n	800447c <HAL_TIM_IC_Start_IT+0x8c>
 8004474:	681a      	ldr	r2, [r3, #0]
 8004476:	f042 0201 	orr.w	r2, r2, #1
 800447a:	601a      	str	r2, [r3, #0]
 800447c:	2000      	movs	r0, #0
 800447e:	e037      	b.n	80044f0 <HAL_TIM_IC_Start_IT+0x100>
 8004480:	2904      	cmp	r1, #4
 8004482:	d105      	bne.n	8004490 <HAL_TIM_IC_Start_IT+0xa0>
 8004484:	f890 303f 	ldrb.w	r3, [r0, #63]	; 0x3f
 8004488:	f890 0043 	ldrb.w	r0, [r0, #67]	; 0x43
 800448c:	b2db      	uxtb	r3, r3
 800448e:	e7b8      	b.n	8004402 <HAL_TIM_IC_Start_IT+0x12>
 8004490:	2908      	cmp	r1, #8
 8004492:	bf0b      	itete	eq
 8004494:	f890 3040 	ldrbeq.w	r3, [r0, #64]	; 0x40
 8004498:	f894 3041 	ldrbne.w	r3, [r4, #65]	; 0x41
 800449c:	f890 0044 	ldrbeq.w	r0, [r0, #68]	; 0x44
 80044a0:	f894 0045 	ldrbne.w	r0, [r4, #69]	; 0x45
 80044a4:	bf0c      	ite	eq
 80044a6:	b2db      	uxtbeq	r3, r3
 80044a8:	b2db      	uxtbne	r3, r3
 80044aa:	e7aa      	b.n	8004402 <HAL_TIM_IC_Start_IT+0x12>
 80044ac:	2904      	cmp	r1, #4
 80044ae:	d108      	bne.n	80044c2 <HAL_TIM_IC_Start_IT+0xd2>
 80044b0:	6822      	ldr	r2, [r4, #0]
 80044b2:	f884 303f 	strb.w	r3, [r4, #63]	; 0x3f
 80044b6:	f884 3043 	strb.w	r3, [r4, #67]	; 0x43
 80044ba:	68d3      	ldr	r3, [r2, #12]
 80044bc:	f043 0304 	orr.w	r3, r3, #4
 80044c0:	e7af      	b.n	8004422 <HAL_TIM_IC_Start_IT+0x32>
 80044c2:	2908      	cmp	r1, #8
 80044c4:	d108      	bne.n	80044d8 <HAL_TIM_IC_Start_IT+0xe8>
 80044c6:	6822      	ldr	r2, [r4, #0]
 80044c8:	f884 3040 	strb.w	r3, [r4, #64]	; 0x40
 80044cc:	f884 3044 	strb.w	r3, [r4, #68]	; 0x44
 80044d0:	68d3      	ldr	r3, [r2, #12]
 80044d2:	f043 0308 	orr.w	r3, r3, #8
 80044d6:	e7a4      	b.n	8004422 <HAL_TIM_IC_Start_IT+0x32>
 80044d8:	290c      	cmp	r1, #12
 80044da:	f884 3041 	strb.w	r3, [r4, #65]	; 0x41
 80044de:	f884 3045 	strb.w	r3, [r4, #69]	; 0x45
 80044e2:	d105      	bne.n	80044f0 <HAL_TIM_IC_Start_IT+0x100>
 80044e4:	6822      	ldr	r2, [r4, #0]
 80044e6:	68d3      	ldr	r3, [r2, #12]
 80044e8:	f043 0310 	orr.w	r3, r3, #16
 80044ec:	e799      	b.n	8004422 <HAL_TIM_IC_Start_IT+0x32>
 80044ee:	2001      	movs	r0, #1
 80044f0:	bd10      	pop	{r4, pc}
 80044f2:	bf00      	nop
 80044f4:	40010000 	.word	0x40010000

080044f8 <HAL_TIMEx_MasterConfigSynchronization>:
 80044f8:	b530      	push	{r4, r5, lr}
 80044fa:	f890 303c 	ldrb.w	r3, [r0, #60]	; 0x3c
 80044fe:	2b01      	cmp	r3, #1
 8004500:	f04f 0302 	mov.w	r3, #2
 8004504:	d032      	beq.n	800456c <HAL_TIMEx_MasterConfigSynchronization+0x74>
 8004506:	f880 303d 	strb.w	r3, [r0, #61]	; 0x3d
 800450a:	6803      	ldr	r3, [r0, #0]
 800450c:	680d      	ldr	r5, [r1, #0]
 800450e:	685c      	ldr	r4, [r3, #4]
 8004510:	689a      	ldr	r2, [r3, #8]
 8004512:	f024 0470 	bic.w	r4, r4, #112	; 0x70
 8004516:	432c      	orrs	r4, r5
 8004518:	605c      	str	r4, [r3, #4]
 800451a:	4c15      	ldr	r4, [pc, #84]	; (8004570 <HAL_TIMEx_MasterConfigSynchronization+0x78>)
 800451c:	42a3      	cmp	r3, r4
 800451e:	d01a      	beq.n	8004556 <HAL_TIMEx_MasterConfigSynchronization+0x5e>
 8004520:	f1b3 4f80 	cmp.w	r3, #1073741824	; 0x40000000
 8004524:	d017      	beq.n	8004556 <HAL_TIMEx_MasterConfigSynchronization+0x5e>
 8004526:	f5a4 447c 	sub.w	r4, r4, #64512	; 0xfc00
 800452a:	42a3      	cmp	r3, r4
 800452c:	d013      	beq.n	8004556 <HAL_TIMEx_MasterConfigSynchronization+0x5e>
 800452e:	f504 6480 	add.w	r4, r4, #1024	; 0x400
 8004532:	42a3      	cmp	r3, r4
 8004534:	d00f      	beq.n	8004556 <HAL_TIMEx_MasterConfigSynchronization+0x5e>
 8004536:	f504 6480 	add.w	r4, r4, #1024	; 0x400
 800453a:	42a3      	cmp	r3, r4
 800453c:	d00b      	beq.n	8004556 <HAL_TIMEx_MasterConfigSynchronization+0x5e>
 800453e:	f504 4478 	add.w	r4, r4, #63488	; 0xf800
 8004542:	42a3      	cmp	r3, r4
 8004544:	d007      	beq.n	8004556 <HAL_TIMEx_MasterConfigSynchronization+0x5e>
 8004546:	f504 5470 	add.w	r4, r4, #15360	; 0x3c00
 800454a:	42a3      	cmp	r3, r4
 800454c:	d003      	beq.n	8004556 <HAL_TIMEx_MasterConfigSynchronization+0x5e>
 800454e:	f5a4 3494 	sub.w	r4, r4, #75776	; 0x12800
 8004552:	42a3      	cmp	r3, r4
 8004554:	d104      	bne.n	8004560 <HAL_TIMEx_MasterConfigSynchronization+0x68>
 8004556:	6849      	ldr	r1, [r1, #4]
 8004558:	f022 0280 	bic.w	r2, r2, #128	; 0x80
 800455c:	430a      	orrs	r2, r1
 800455e:	609a      	str	r2, [r3, #8]
 8004560:	2301      	movs	r3, #1
 8004562:	f880 303d 	strb.w	r3, [r0, #61]	; 0x3d
 8004566:	2300      	movs	r3, #0
 8004568:	f880 303c 	strb.w	r3, [r0, #60]	; 0x3c
 800456c:	4618      	mov	r0, r3
 800456e:	bd30      	pop	{r4, r5, pc}
 8004570:	40010000 	.word	0x40010000

08004574 <HAL_TIMEx_ConfigBreakDeadTime>:
 8004574:	f890 303c 	ldrb.w	r3, [r0, #60]	; 0x3c
 8004578:	2b01      	cmp	r3, #1
 800457a:	d01f      	beq.n	80045bc <HAL_TIMEx_ConfigBreakDeadTime+0x48>
 800457c:	68cb      	ldr	r3, [r1, #12]
 800457e:	688a      	ldr	r2, [r1, #8]
 8004580:	f423 7340 	bic.w	r3, r3, #768	; 0x300
 8004584:	4313      	orrs	r3, r2
 8004586:	684a      	ldr	r2, [r1, #4]
 8004588:	f423 6380 	bic.w	r3, r3, #1024	; 0x400
 800458c:	4313      	orrs	r3, r2
 800458e:	680a      	ldr	r2, [r1, #0]
 8004590:	f423 6300 	bic.w	r3, r3, #2048	; 0x800
 8004594:	4313      	orrs	r3, r2
 8004596:	690a      	ldr	r2, [r1, #16]
 8004598:	f423 5380 	bic.w	r3, r3, #4096	; 0x1000
 800459c:	4313      	orrs	r3, r2
 800459e:	694a      	ldr	r2, [r1, #20]
 80045a0:	f423 5300 	bic.w	r3, r3, #8192	; 0x2000
 80045a4:	4313      	orrs	r3, r2
 80045a6:	69ca      	ldr	r2, [r1, #28]
 80045a8:	f423 4380 	bic.w	r3, r3, #16384	; 0x4000
 80045ac:	4313      	orrs	r3, r2
 80045ae:	6802      	ldr	r2, [r0, #0]
 80045b0:	6453      	str	r3, [r2, #68]	; 0x44
 80045b2:	2300      	movs	r3, #0
 80045b4:	f880 303c 	strb.w	r3, [r0, #60]	; 0x3c
 80045b8:	4618      	mov	r0, r3
 80045ba:	4770      	bx	lr
 80045bc:	2002      	movs	r0, #2
 80045be:	4770      	bx	lr

080045c0 <HAL_TIMEx_CommutCallback>:
 80045c0:	4770      	bx	lr

080045c2 <HAL_TIMEx_BreakCallback>:
 80045c2:	4770      	bx	lr

080045c4 <UART_EndRxTransfer>:
 80045c4:	6802      	ldr	r2, [r0, #0]
 80045c6:	f102 030c 	add.w	r3, r2, #12
 80045ca:	e853 3f00 	ldrex	r3, [r3]
 80045ce:	f423 7390 	bic.w	r3, r3, #288	; 0x120
 80045d2:	320c      	adds	r2, #12
 80045d4:	e842 3100 	strex	r1, r3, [r2]
 80045d8:	6802      	ldr	r2, [r0, #0]
 80045da:	2900      	cmp	r1, #0
 80045dc:	d1f2      	bne.n	80045c4 <UART_EndRxTransfer>
 80045de:	f102 0314 	add.w	r3, r2, #20
 80045e2:	e853 3f00 	ldrex	r3, [r3]
 80045e6:	f023 0301 	bic.w	r3, r3, #1
 80045ea:	f102 0c14 	add.w	ip, r2, #20
 80045ee:	e84c 3100 	strex	r1, r3, [ip]
 80045f2:	2900      	cmp	r1, #0
 80045f4:	d1f3      	bne.n	80045de <UART_EndRxTransfer+0x1a>
 80045f6:	6b03      	ldr	r3, [r0, #48]	; 0x30
 80045f8:	2b01      	cmp	r3, #1
 80045fa:	d10b      	bne.n	8004614 <UART_EndRxTransfer+0x50>
 80045fc:	f102 030c 	add.w	r3, r2, #12
 8004600:	e853 3f00 	ldrex	r3, [r3]
 8004604:	f023 0310 	bic.w	r3, r3, #16
 8004608:	f102 0c0c 	add.w	ip, r2, #12
 800460c:	e84c 3100 	strex	r1, r3, [ip]
 8004610:	2900      	cmp	r1, #0
 8004612:	d1f3      	bne.n	80045fc <UART_EndRxTransfer+0x38>
 8004614:	2320      	movs	r3, #32
 8004616:	f880 303e 	strb.w	r3, [r0, #62]	; 0x3e
 800461a:	2300      	movs	r3, #0
 800461c:	6303      	str	r3, [r0, #48]	; 0x30
 800461e:	4770      	bx	lr

08004620 <UART_SetConfig>:
 8004620:	6802      	ldr	r2, [r0, #0]
 8004622:	68c1      	ldr	r1, [r0, #12]
 8004624:	b538      	push	{r3, r4, r5, lr}
 8004626:	6913      	ldr	r3, [r2, #16]
 8004628:	f423 5340 	bic.w	r3, r3, #12288	; 0x3000
 800462c:	430b      	orrs	r3, r1
 800462e:	6113      	str	r3, [r2, #16]
 8004630:	4605      	mov	r5, r0
 8004632:	6883      	ldr	r3, [r0, #8]
 8004634:	6900      	ldr	r0, [r0, #16]
 8004636:	68d1      	ldr	r1, [r2, #12]
 8004638:	4303      	orrs	r3, r0
 800463a:	6968      	ldr	r0, [r5, #20]
 800463c:	4303      	orrs	r3, r0
 800463e:	69e8      	ldr	r0, [r5, #28]
 8004640:	f421 4116 	bic.w	r1, r1, #38400	; 0x9600
 8004644:	f021 010c 	bic.w	r1, r1, #12
 8004648:	4303      	orrs	r3, r0
 800464a:	430b      	orrs	r3, r1
 800464c:	60d3      	str	r3, [r2, #12]
 800464e:	6953      	ldr	r3, [r2, #20]
 8004650:	69a9      	ldr	r1, [r5, #24]
 8004652:	f423 7340 	bic.w	r3, r3, #768	; 0x300
 8004656:	430b      	orrs	r3, r1
 8004658:	6153      	str	r3, [r2, #20]
 800465a:	4b1f      	ldr	r3, [pc, #124]	; (80046d8 <UART_SetConfig+0xb8>)
 800465c:	429a      	cmp	r2, r3
 800465e:	d003      	beq.n	8004668 <UART_SetConfig+0x48>
 8004660:	f503 6380 	add.w	r3, r3, #1024	; 0x400
 8004664:	429a      	cmp	r2, r3
 8004666:	d124      	bne.n	80046b2 <UART_SetConfig+0x92>
 8004668:	f7ff f89c 	bl	80037a4 <HAL_RCC_GetPCLK2Freq>
 800466c:	69ea      	ldr	r2, [r5, #28]
 800466e:	2319      	movs	r3, #25
 8004670:	f5b2 4f00 	cmp.w	r2, #32768	; 0x8000
 8004674:	fba0 0103 	umull	r0, r1, r0, r3
 8004678:	e9d5 4300 	ldrd	r4, r3, [r5]
 800467c:	d11c      	bne.n	80046b8 <UART_SetConfig+0x98>
 800467e:	461a      	mov	r2, r3
 8004680:	1892      	adds	r2, r2, r2
 8004682:	f04f 0300 	mov.w	r3, #0
 8004686:	415b      	adcs	r3, r3
 8004688:	f7fc f970 	bl	800096c <__aeabi_uldivmod>
 800468c:	2164      	movs	r1, #100	; 0x64
 800468e:	fbb0 f5f1 	udiv	r5, r0, r1
 8004692:	fb01 0315 	mls	r3, r1, r5, r0
 8004696:	00db      	lsls	r3, r3, #3
 8004698:	3332      	adds	r3, #50	; 0x32
 800469a:	fbb3 f3f1 	udiv	r3, r3, r1
 800469e:	f003 0207 	and.w	r2, r3, #7
 80046a2:	005b      	lsls	r3, r3, #1
 80046a4:	eb02 1205 	add.w	r2, r2, r5, lsl #4
 80046a8:	f403 73f8 	and.w	r3, r3, #496	; 0x1f0
 80046ac:	4413      	add	r3, r2
 80046ae:	60a3      	str	r3, [r4, #8]
 80046b0:	bd38      	pop	{r3, r4, r5, pc}
 80046b2:	f7ff f867 	bl	8003784 <HAL_RCC_GetPCLK1Freq>
 80046b6:	e7d9      	b.n	800466c <UART_SetConfig+0x4c>
 80046b8:	009a      	lsls	r2, r3, #2
 80046ba:	0f9b      	lsrs	r3, r3, #30
 80046bc:	f7fc f956 	bl	800096c <__aeabi_uldivmod>
 80046c0:	2264      	movs	r2, #100	; 0x64
 80046c2:	fbb0 f1f2 	udiv	r1, r0, r2
 80046c6:	fb02 0311 	mls	r3, r2, r1, r0
 80046ca:	011b      	lsls	r3, r3, #4
 80046cc:	3332      	adds	r3, #50	; 0x32
 80046ce:	fbb3 f3f2 	udiv	r3, r3, r2
 80046d2:	eb03 1301 	add.w	r3, r3, r1, lsl #4
 80046d6:	e7ea      	b.n	80046ae <UART_SetConfig+0x8e>
 80046d8:	40011000 	.word	0x40011000

080046dc <UART_WaitOnFlagUntilTimeout.constprop.0>:
 80046dc:	b5f8      	push	{r3, r4, r5, r6, r7, lr}
 80046de:	4604      	mov	r4, r0
 80046e0:	460e      	mov	r6, r1
 80046e2:	4617      	mov	r7, r2
 80046e4:	461d      	mov	r5, r3
 80046e6:	6822      	ldr	r2, [r4, #0]
 80046e8:	6813      	ldr	r3, [r2, #0]
 80046ea:	ea36 0303 	bics.w	r3, r6, r3
 80046ee:	d101      	bne.n	80046f4 <UART_WaitOnFlagUntilTimeout.constprop.0+0x18>
 80046f0:	2000      	movs	r0, #0
 80046f2:	e028      	b.n	8004746 <UART_WaitOnFlagUntilTimeout.constprop.0+0x6a>
 80046f4:	1c6b      	adds	r3, r5, #1
 80046f6:	d0f7      	beq.n	80046e8 <UART_WaitOnFlagUntilTimeout.constprop.0+0xc>
 80046f8:	b125      	cbz	r5, 8004704 <UART_WaitOnFlagUntilTimeout.constprop.0+0x28>
 80046fa:	f7fe f9d3 	bl	8002aa4 <HAL_GetTick>
 80046fe:	1bc0      	subs	r0, r0, r7
 8004700:	4285      	cmp	r5, r0
 8004702:	d2f0      	bcs.n	80046e6 <UART_WaitOnFlagUntilTimeout.constprop.0+0xa>
 8004704:	6822      	ldr	r2, [r4, #0]
 8004706:	f102 030c 	add.w	r3, r2, #12
 800470a:	e853 3f00 	ldrex	r3, [r3]
 800470e:	f423 73d0 	bic.w	r3, r3, #416	; 0x1a0
 8004712:	320c      	adds	r2, #12
 8004714:	e842 3000 	strex	r0, r3, [r2]
 8004718:	6821      	ldr	r1, [r4, #0]
 800471a:	2800      	cmp	r0, #0
 800471c:	d1f2      	bne.n	8004704 <UART_WaitOnFlagUntilTimeout.constprop.0+0x28>
 800471e:	f101 0314 	add.w	r3, r1, #20
 8004722:	e853 3f00 	ldrex	r3, [r3]
 8004726:	f023 0301 	bic.w	r3, r3, #1
 800472a:	f101 0014 	add.w	r0, r1, #20
 800472e:	e840 3200 	strex	r2, r3, [r0]
 8004732:	2a00      	cmp	r2, #0
 8004734:	d1f3      	bne.n	800471e <UART_WaitOnFlagUntilTimeout.constprop.0+0x42>
 8004736:	2320      	movs	r3, #32
 8004738:	f884 303d 	strb.w	r3, [r4, #61]	; 0x3d
 800473c:	f884 203c 	strb.w	r2, [r4, #60]	; 0x3c
 8004740:	f884 303e 	strb.w	r3, [r4, #62]	; 0x3e
 8004744:	2003      	movs	r0, #3
 8004746:	bdf8      	pop	{r3, r4, r5, r6, r7, pc}

08004748 <HAL_UART_Init>:
 8004748:	b510      	push	{r4, lr}
 800474a:	4604      	mov	r4, r0
 800474c:	b340      	cbz	r0, 80047a0 <HAL_UART_Init+0x58>
 800474e:	f890 303d 	ldrb.w	r3, [r0, #61]	; 0x3d
 8004752:	f003 02ff 	and.w	r2, r3, #255	; 0xff
 8004756:	b91b      	cbnz	r3, 8004760 <HAL_UART_Init+0x18>
 8004758:	f880 203c 	strb.w	r2, [r0, #60]	; 0x3c
 800475c:	f7fe f8a2 	bl	80028a4 <HAL_UART_MspInit>
 8004760:	6822      	ldr	r2, [r4, #0]
 8004762:	2324      	movs	r3, #36	; 0x24
 8004764:	f884 303d 	strb.w	r3, [r4, #61]	; 0x3d
 8004768:	68d3      	ldr	r3, [r2, #12]
 800476a:	f423 5300 	bic.w	r3, r3, #8192	; 0x2000
 800476e:	60d3      	str	r3, [r2, #12]
 8004770:	4620      	mov	r0, r4
 8004772:	f7ff ff55 	bl	8004620 <UART_SetConfig>
 8004776:	6823      	ldr	r3, [r4, #0]
 8004778:	691a      	ldr	r2, [r3, #16]
 800477a:	f422 4290 	bic.w	r2, r2, #18432	; 0x4800
 800477e:	611a      	str	r2, [r3, #16]
 8004780:	695a      	ldr	r2, [r3, #20]
 8004782:	f022 022a 	bic.w	r2, r2, #42	; 0x2a
 8004786:	615a      	str	r2, [r3, #20]
 8004788:	68da      	ldr	r2, [r3, #12]
 800478a:	f442 5200 	orr.w	r2, r2, #8192	; 0x2000
 800478e:	60da      	str	r2, [r3, #12]
 8004790:	2000      	movs	r0, #0
 8004792:	2320      	movs	r3, #32
 8004794:	6420      	str	r0, [r4, #64]	; 0x40
 8004796:	f884 303d 	strb.w	r3, [r4, #61]	; 0x3d
 800479a:	f884 303e 	strb.w	r3, [r4, #62]	; 0x3e
 800479e:	bd10      	pop	{r4, pc}
 80047a0:	2001      	movs	r0, #1
 80047a2:	e7fc      	b.n	800479e <HAL_UART_Init+0x56>

080047a4 <HAL_UART_Transmit>:
 80047a4:	b5f7      	push	{r0, r1, r2, r4, r5, r6, r7, lr}
 80047a6:	4617      	mov	r7, r2
 80047a8:	f890 203d 	ldrb.w	r2, [r0, #61]	; 0x3d
 80047ac:	9300      	str	r3, [sp, #0]
 80047ae:	2a20      	cmp	r2, #32
 80047b0:	4604      	mov	r4, r0
 80047b2:	460e      	mov	r6, r1
 80047b4:	d149      	bne.n	800484a <HAL_UART_Transmit+0xa6>
 80047b6:	2900      	cmp	r1, #0
 80047b8:	d045      	beq.n	8004846 <HAL_UART_Transmit+0xa2>
 80047ba:	2f00      	cmp	r7, #0
 80047bc:	d043      	beq.n	8004846 <HAL_UART_Transmit+0xa2>
 80047be:	f890 203c 	ldrb.w	r2, [r0, #60]	; 0x3c
 80047c2:	2a01      	cmp	r2, #1
 80047c4:	d041      	beq.n	800484a <HAL_UART_Transmit+0xa6>
 80047c6:	2201      	movs	r2, #1
 80047c8:	f880 203c 	strb.w	r2, [r0, #60]	; 0x3c
 80047cc:	2500      	movs	r5, #0
 80047ce:	2221      	movs	r2, #33	; 0x21
 80047d0:	6405      	str	r5, [r0, #64]	; 0x40
 80047d2:	f880 203d 	strb.w	r2, [r0, #61]	; 0x3d
 80047d6:	f7fe f965 	bl	8002aa4 <HAL_GetTick>
 80047da:	68a1      	ldr	r1, [r4, #8]
 80047dc:	9b00      	ldr	r3, [sp, #0]
 80047de:	84a7      	strh	r7, [r4, #36]	; 0x24
 80047e0:	f5b1 5f80 	cmp.w	r1, #4096	; 0x1000
 80047e4:	4602      	mov	r2, r0
 80047e6:	84e7      	strh	r7, [r4, #38]	; 0x26
 80047e8:	d103      	bne.n	80047f2 <HAL_UART_Transmit+0x4e>
 80047ea:	6921      	ldr	r1, [r4, #16]
 80047ec:	b909      	cbnz	r1, 80047f2 <HAL_UART_Transmit+0x4e>
 80047ee:	4635      	mov	r5, r6
 80047f0:	460e      	mov	r6, r1
 80047f2:	2100      	movs	r1, #0
 80047f4:	f884 103c 	strb.w	r1, [r4, #60]	; 0x3c
 80047f8:	8ce1      	ldrh	r1, [r4, #38]	; 0x26
 80047fa:	b289      	uxth	r1, r1
 80047fc:	b941      	cbnz	r1, 8004810 <HAL_UART_Transmit+0x6c>
 80047fe:	2140      	movs	r1, #64	; 0x40
 8004800:	4620      	mov	r0, r4
 8004802:	f7ff ff6b 	bl	80046dc <UART_WaitOnFlagUntilTimeout.constprop.0>
 8004806:	b960      	cbnz	r0, 8004822 <HAL_UART_Transmit+0x7e>
 8004808:	2320      	movs	r3, #32
 800480a:	f884 303d 	strb.w	r3, [r4, #61]	; 0x3d
 800480e:	e009      	b.n	8004824 <HAL_UART_Transmit+0x80>
 8004810:	2180      	movs	r1, #128	; 0x80
 8004812:	4620      	mov	r0, r4
 8004814:	e9cd 2300 	strd	r2, r3, [sp]
 8004818:	f7ff ff60 	bl	80046dc <UART_WaitOnFlagUntilTimeout.constprop.0>
 800481c:	e9dd 2300 	ldrd	r2, r3, [sp]
 8004820:	b110      	cbz	r0, 8004828 <HAL_UART_Transmit+0x84>
 8004822:	2003      	movs	r0, #3
 8004824:	b003      	add	sp, #12
 8004826:	bdf0      	pop	{r4, r5, r6, r7, pc}
 8004828:	6820      	ldr	r0, [r4, #0]
 800482a:	b94e      	cbnz	r6, 8004840 <HAL_UART_Transmit+0x9c>
 800482c:	f835 1b02 	ldrh.w	r1, [r5], #2
 8004830:	f3c1 0108 	ubfx	r1, r1, #0, #9
 8004834:	6041      	str	r1, [r0, #4]
 8004836:	8ce1      	ldrh	r1, [r4, #38]	; 0x26
 8004838:	3901      	subs	r1, #1
 800483a:	b289      	uxth	r1, r1
 800483c:	84e1      	strh	r1, [r4, #38]	; 0x26
 800483e:	e7db      	b.n	80047f8 <HAL_UART_Transmit+0x54>
 8004840:	f816 1b01 	ldrb.w	r1, [r6], #1
 8004844:	e7f6      	b.n	8004834 <HAL_UART_Transmit+0x90>
 8004846:	2001      	movs	r0, #1
 8004848:	e7ec      	b.n	8004824 <HAL_UART_Transmit+0x80>
 800484a:	2002      	movs	r0, #2
 800484c:	e7ea      	b.n	8004824 <HAL_UART_Transmit+0x80>

0800484e <HAL_UART_TxCpltCallback>:
 800484e:	4770      	bx	lr

08004850 <HAL_UART_ErrorCallback>:
 8004850:	4770      	bx	lr

08004852 <UART_DMAAbortOnError>:
 8004852:	b508      	push	{r3, lr}
 8004854:	6b80      	ldr	r0, [r0, #56]	; 0x38
 8004856:	2300      	movs	r3, #0
 8004858:	85c3      	strh	r3, [r0, #46]	; 0x2e
 800485a:	84c3      	strh	r3, [r0, #38]	; 0x26
 800485c:	f7ff fff8 	bl	8004850 <HAL_UART_ErrorCallback>
 8004860:	bd08      	pop	{r3, pc}

08004862 <HAL_UARTEx_RxEventCallback>:
 8004862:	4770      	bx	lr

08004864 <UART_Receive_IT>:
 8004864:	b513      	push	{r0, r1, r4, lr}
 8004866:	f890 303e 	ldrb.w	r3, [r0, #62]	; 0x3e
 800486a:	2b22      	cmp	r3, #34	; 0x22
 800486c:	d153      	bne.n	8004916 <UART_Receive_IT+0xb2>
 800486e:	6881      	ldr	r1, [r0, #8]
 8004870:	6a83      	ldr	r3, [r0, #40]	; 0x28
 8004872:	6802      	ldr	r2, [r0, #0]
 8004874:	f5b1 5f80 	cmp.w	r1, #4096	; 0x1000
 8004878:	d13d      	bne.n	80048f6 <UART_Receive_IT+0x92>
 800487a:	6901      	ldr	r1, [r0, #16]
 800487c:	2900      	cmp	r1, #0
 800487e:	d13d      	bne.n	80048fc <UART_Receive_IT+0x98>
 8004880:	6852      	ldr	r2, [r2, #4]
 8004882:	f3c2 0208 	ubfx	r2, r2, #0, #9
 8004886:	f823 2b02 	strh.w	r2, [r3], #2
 800488a:	8dc4      	ldrh	r4, [r0, #46]	; 0x2e
 800488c:	6283      	str	r3, [r0, #40]	; 0x28
 800488e:	3c01      	subs	r4, #1
 8004890:	b2a4      	uxth	r4, r4
 8004892:	85c4      	strh	r4, [r0, #46]	; 0x2e
 8004894:	2c00      	cmp	r4, #0
 8004896:	d12c      	bne.n	80048f2 <UART_Receive_IT+0x8e>
 8004898:	6803      	ldr	r3, [r0, #0]
 800489a:	68da      	ldr	r2, [r3, #12]
 800489c:	f022 0220 	bic.w	r2, r2, #32
 80048a0:	60da      	str	r2, [r3, #12]
 80048a2:	68da      	ldr	r2, [r3, #12]
 80048a4:	f422 7280 	bic.w	r2, r2, #256	; 0x100
 80048a8:	60da      	str	r2, [r3, #12]
 80048aa:	695a      	ldr	r2, [r3, #20]
 80048ac:	f022 0201 	bic.w	r2, r2, #1
 80048b0:	615a      	str	r2, [r3, #20]
 80048b2:	2320      	movs	r3, #32
 80048b4:	f880 303e 	strb.w	r3, [r0, #62]	; 0x3e
 80048b8:	6b03      	ldr	r3, [r0, #48]	; 0x30
 80048ba:	2b01      	cmp	r3, #1
 80048bc:	6803      	ldr	r3, [r0, #0]
 80048be:	d127      	bne.n	8004910 <UART_Receive_IT+0xac>
 80048c0:	6304      	str	r4, [r0, #48]	; 0x30
 80048c2:	f103 020c 	add.w	r2, r3, #12
 80048c6:	e852 2f00 	ldrex	r2, [r2]
 80048ca:	f022 0210 	bic.w	r2, r2, #16
 80048ce:	f103 040c 	add.w	r4, r3, #12
 80048d2:	e844 2100 	strex	r1, r2, [r4]
 80048d6:	2900      	cmp	r1, #0
 80048d8:	d1f3      	bne.n	80048c2 <UART_Receive_IT+0x5e>
 80048da:	681a      	ldr	r2, [r3, #0]
 80048dc:	06d2      	lsls	r2, r2, #27
 80048de:	d505      	bpl.n	80048ec <UART_Receive_IT+0x88>
 80048e0:	9101      	str	r1, [sp, #4]
 80048e2:	681a      	ldr	r2, [r3, #0]
 80048e4:	9201      	str	r2, [sp, #4]
 80048e6:	685b      	ldr	r3, [r3, #4]
 80048e8:	9301      	str	r3, [sp, #4]
 80048ea:	9b01      	ldr	r3, [sp, #4]
 80048ec:	8d81      	ldrh	r1, [r0, #44]	; 0x2c
 80048ee:	f7ff ffb8 	bl	8004862 <HAL_UARTEx_RxEventCallback>
 80048f2:	2000      	movs	r0, #0
 80048f4:	e010      	b.n	8004918 <UART_Receive_IT+0xb4>
 80048f6:	b939      	cbnz	r1, 8004908 <UART_Receive_IT+0xa4>
 80048f8:	6901      	ldr	r1, [r0, #16]
 80048fa:	b929      	cbnz	r1, 8004908 <UART_Receive_IT+0xa4>
 80048fc:	6852      	ldr	r2, [r2, #4]
 80048fe:	b2d2      	uxtb	r2, r2
 8004900:	701a      	strb	r2, [r3, #0]
 8004902:	6a83      	ldr	r3, [r0, #40]	; 0x28
 8004904:	3301      	adds	r3, #1
 8004906:	e7c0      	b.n	800488a <UART_Receive_IT+0x26>
 8004908:	6852      	ldr	r2, [r2, #4]
 800490a:	f002 027f 	and.w	r2, r2, #127	; 0x7f
 800490e:	e7f7      	b.n	8004900 <UART_Receive_IT+0x9c>
 8004910:	f7fc fd6c 	bl	80013ec <HAL_UART_RxCpltCallback>
 8004914:	e7ed      	b.n	80048f2 <UART_Receive_IT+0x8e>
 8004916:	2002      	movs	r0, #2
 8004918:	b002      	add	sp, #8
 800491a:	bd10      	pop	{r4, pc}

0800491c <HAL_UART_IRQHandler>:
 800491c:	6803      	ldr	r3, [r0, #0]
 800491e:	b537      	push	{r0, r1, r2, r4, r5, lr}
 8004920:	681a      	ldr	r2, [r3, #0]
 8004922:	68d9      	ldr	r1, [r3, #12]
 8004924:	695d      	ldr	r5, [r3, #20]
 8004926:	f012 0f0f 	tst.w	r2, #15
 800492a:	4604      	mov	r4, r0
 800492c:	d108      	bne.n	8004940 <HAL_UART_IRQHandler+0x24>
 800492e:	0695      	lsls	r5, r2, #26
 8004930:	d568      	bpl.n	8004a04 <HAL_UART_IRQHandler+0xe8>
 8004932:	068d      	lsls	r5, r1, #26
 8004934:	d566      	bpl.n	8004a04 <HAL_UART_IRQHandler+0xe8>
 8004936:	b003      	add	sp, #12
 8004938:	e8bd 4030 	ldmia.w	sp!, {r4, r5, lr}
 800493c:	f7ff bf92 	b.w	8004864 <UART_Receive_IT>
 8004940:	f005 0001 	and.w	r0, r5, #1
 8004944:	f401 7590 	and.w	r5, r1, #288	; 0x120
 8004948:	4305      	orrs	r5, r0
 800494a:	d05b      	beq.n	8004a04 <HAL_UART_IRQHandler+0xe8>
 800494c:	07d5      	lsls	r5, r2, #31
 800494e:	d505      	bpl.n	800495c <HAL_UART_IRQHandler+0x40>
 8004950:	05cb      	lsls	r3, r1, #23
 8004952:	bf42      	ittt	mi
 8004954:	6c23      	ldrmi	r3, [r4, #64]	; 0x40
 8004956:	f043 0301 	orrmi.w	r3, r3, #1
 800495a:	6423      	strmi	r3, [r4, #64]	; 0x40
 800495c:	0755      	lsls	r5, r2, #29
 800495e:	d504      	bpl.n	800496a <HAL_UART_IRQHandler+0x4e>
 8004960:	b118      	cbz	r0, 800496a <HAL_UART_IRQHandler+0x4e>
 8004962:	6c23      	ldr	r3, [r4, #64]	; 0x40
 8004964:	f043 0302 	orr.w	r3, r3, #2
 8004968:	6423      	str	r3, [r4, #64]	; 0x40
 800496a:	0793      	lsls	r3, r2, #30
 800496c:	d504      	bpl.n	8004978 <HAL_UART_IRQHandler+0x5c>
 800496e:	b118      	cbz	r0, 8004978 <HAL_UART_IRQHandler+0x5c>
 8004970:	6c23      	ldr	r3, [r4, #64]	; 0x40
 8004972:	f043 0304 	orr.w	r3, r3, #4
 8004976:	6423      	str	r3, [r4, #64]	; 0x40
 8004978:	0715      	lsls	r5, r2, #28
 800497a:	d507      	bpl.n	800498c <HAL_UART_IRQHandler+0x70>
 800497c:	f001 0320 	and.w	r3, r1, #32
 8004980:	4303      	orrs	r3, r0
 8004982:	bf1e      	ittt	ne
 8004984:	6c23      	ldrne	r3, [r4, #64]	; 0x40
 8004986:	f043 0308 	orrne.w	r3, r3, #8
 800498a:	6423      	strne	r3, [r4, #64]	; 0x40
 800498c:	6c23      	ldr	r3, [r4, #64]	; 0x40
 800498e:	2b00      	cmp	r3, #0
 8004990:	d032      	beq.n	80049f8 <HAL_UART_IRQHandler+0xdc>
 8004992:	0690      	lsls	r0, r2, #26
 8004994:	d504      	bpl.n	80049a0 <HAL_UART_IRQHandler+0x84>
 8004996:	068a      	lsls	r2, r1, #26
 8004998:	d502      	bpl.n	80049a0 <HAL_UART_IRQHandler+0x84>
 800499a:	4620      	mov	r0, r4
 800499c:	f7ff ff62 	bl	8004864 <UART_Receive_IT>
 80049a0:	6823      	ldr	r3, [r4, #0]
 80049a2:	695b      	ldr	r3, [r3, #20]
 80049a4:	6c25      	ldr	r5, [r4, #64]	; 0x40
 80049a6:	f003 0340 	and.w	r3, r3, #64	; 0x40
 80049aa:	f005 0508 	and.w	r5, r5, #8
 80049ae:	431d      	orrs	r5, r3
 80049b0:	4620      	mov	r0, r4
 80049b2:	d023      	beq.n	80049fc <HAL_UART_IRQHandler+0xe0>
 80049b4:	f7ff fe06 	bl	80045c4 <UART_EndRxTransfer>
 80049b8:	6822      	ldr	r2, [r4, #0]
 80049ba:	6953      	ldr	r3, [r2, #20]
 80049bc:	065b      	lsls	r3, r3, #25
 80049be:	d518      	bpl.n	80049f2 <HAL_UART_IRQHandler+0xd6>
 80049c0:	f102 0314 	add.w	r3, r2, #20
 80049c4:	e853 3f00 	ldrex	r3, [r3]
 80049c8:	f023 0340 	bic.w	r3, r3, #64	; 0x40
 80049cc:	f102 0014 	add.w	r0, r2, #20
 80049d0:	e840 3100 	strex	r1, r3, [r0]
 80049d4:	2900      	cmp	r1, #0
 80049d6:	d1f3      	bne.n	80049c0 <HAL_UART_IRQHandler+0xa4>
 80049d8:	6ba0      	ldr	r0, [r4, #56]	; 0x38
 80049da:	b150      	cbz	r0, 80049f2 <HAL_UART_IRQHandler+0xd6>
 80049dc:	4b72      	ldr	r3, [pc, #456]	; (8004ba8 <HAL_UART_IRQHandler+0x28c>)
 80049de:	6503      	str	r3, [r0, #80]	; 0x50
 80049e0:	f7fe fb38 	bl	8003054 <HAL_DMA_Abort_IT>
 80049e4:	b140      	cbz	r0, 80049f8 <HAL_UART_IRQHandler+0xdc>
 80049e6:	6ba0      	ldr	r0, [r4, #56]	; 0x38
 80049e8:	6d03      	ldr	r3, [r0, #80]	; 0x50
 80049ea:	b003      	add	sp, #12
 80049ec:	e8bd 4030 	ldmia.w	sp!, {r4, r5, lr}
 80049f0:	4718      	bx	r3
 80049f2:	4620      	mov	r0, r4
 80049f4:	f7ff ff2c 	bl	8004850 <HAL_UART_ErrorCallback>
 80049f8:	b003      	add	sp, #12
 80049fa:	bd30      	pop	{r4, r5, pc}
 80049fc:	f7ff ff28 	bl	8004850 <HAL_UART_ErrorCallback>
 8004a00:	6425      	str	r5, [r4, #64]	; 0x40
 8004a02:	e7f9      	b.n	80049f8 <HAL_UART_IRQHandler+0xdc>
 8004a04:	6b20      	ldr	r0, [r4, #48]	; 0x30
 8004a06:	2801      	cmp	r0, #1
 8004a08:	f040 8091 	bne.w	8004b2e <HAL_UART_IRQHandler+0x212>
 8004a0c:	06d5      	lsls	r5, r2, #27
 8004a0e:	f140 808e 	bpl.w	8004b2e <HAL_UART_IRQHandler+0x212>
 8004a12:	06c8      	lsls	r0, r1, #27
 8004a14:	f140 808b 	bpl.w	8004b2e <HAL_UART_IRQHandler+0x212>
 8004a18:	2200      	movs	r2, #0
 8004a1a:	9201      	str	r2, [sp, #4]
 8004a1c:	681a      	ldr	r2, [r3, #0]
 8004a1e:	9201      	str	r2, [sp, #4]
 8004a20:	685a      	ldr	r2, [r3, #4]
 8004a22:	9201      	str	r2, [sp, #4]
 8004a24:	9a01      	ldr	r2, [sp, #4]
 8004a26:	695a      	ldr	r2, [r3, #20]
 8004a28:	0655      	lsls	r5, r2, #25
 8004a2a:	d54c      	bpl.n	8004ac6 <HAL_UART_IRQHandler+0x1aa>
 8004a2c:	6ba1      	ldr	r1, [r4, #56]	; 0x38
 8004a2e:	680a      	ldr	r2, [r1, #0]
 8004a30:	6852      	ldr	r2, [r2, #4]
 8004a32:	b292      	uxth	r2, r2
 8004a34:	2a00      	cmp	r2, #0
 8004a36:	d0df      	beq.n	80049f8 <HAL_UART_IRQHandler+0xdc>
 8004a38:	8da0      	ldrh	r0, [r4, #44]	; 0x2c
 8004a3a:	4290      	cmp	r0, r2
 8004a3c:	d9dc      	bls.n	80049f8 <HAL_UART_IRQHandler+0xdc>
 8004a3e:	85e2      	strh	r2, [r4, #46]	; 0x2e
 8004a40:	69ca      	ldr	r2, [r1, #28]
 8004a42:	f5b2 7f80 	cmp.w	r2, #256	; 0x100
 8004a46:	d036      	beq.n	8004ab6 <HAL_UART_IRQHandler+0x19a>
 8004a48:	f103 020c 	add.w	r2, r3, #12
 8004a4c:	e852 2f00 	ldrex	r2, [r2]
 8004a50:	f422 7280 	bic.w	r2, r2, #256	; 0x100
 8004a54:	f103 000c 	add.w	r0, r3, #12
 8004a58:	e840 2100 	strex	r1, r2, [r0]
 8004a5c:	2900      	cmp	r1, #0
 8004a5e:	d1f3      	bne.n	8004a48 <HAL_UART_IRQHandler+0x12c>
 8004a60:	f103 0214 	add.w	r2, r3, #20
 8004a64:	e852 2f00 	ldrex	r2, [r2]
 8004a68:	f022 0201 	bic.w	r2, r2, #1
 8004a6c:	f103 0014 	add.w	r0, r3, #20
 8004a70:	e840 2100 	strex	r1, r2, [r0]
 8004a74:	2900      	cmp	r1, #0
 8004a76:	d1f3      	bne.n	8004a60 <HAL_UART_IRQHandler+0x144>
 8004a78:	f103 0214 	add.w	r2, r3, #20
 8004a7c:	e852 2f00 	ldrex	r2, [r2]
 8004a80:	f022 0240 	bic.w	r2, r2, #64	; 0x40
 8004a84:	f103 0014 	add.w	r0, r3, #20
 8004a88:	e840 2100 	strex	r1, r2, [r0]
 8004a8c:	2900      	cmp	r1, #0
 8004a8e:	d1f3      	bne.n	8004a78 <HAL_UART_IRQHandler+0x15c>
 8004a90:	2220      	movs	r2, #32
 8004a92:	f884 203e 	strb.w	r2, [r4, #62]	; 0x3e
 8004a96:	6321      	str	r1, [r4, #48]	; 0x30
 8004a98:	f103 020c 	add.w	r2, r3, #12
 8004a9c:	e852 2f00 	ldrex	r2, [r2]
 8004aa0:	f022 0210 	bic.w	r2, r2, #16
 8004aa4:	f103 000c 	add.w	r0, r3, #12
 8004aa8:	e840 2100 	strex	r1, r2, [r0]
 8004aac:	2900      	cmp	r1, #0
 8004aae:	d1f3      	bne.n	8004a98 <HAL_UART_IRQHandler+0x17c>
 8004ab0:	6ba0      	ldr	r0, [r4, #56]	; 0x38
 8004ab2:	f7fe fa8b 	bl	8002fcc <HAL_DMA_Abort>
 8004ab6:	8de3      	ldrh	r3, [r4, #46]	; 0x2e
 8004ab8:	8da1      	ldrh	r1, [r4, #44]	; 0x2c
 8004aba:	1ac9      	subs	r1, r1, r3
 8004abc:	b289      	uxth	r1, r1
 8004abe:	4620      	mov	r0, r4
 8004ac0:	f7ff fecf 	bl	8004862 <HAL_UARTEx_RxEventCallback>
 8004ac4:	e798      	b.n	80049f8 <HAL_UART_IRQHandler+0xdc>
 8004ac6:	8de1      	ldrh	r1, [r4, #46]	; 0x2e
 8004ac8:	b28a      	uxth	r2, r1
 8004aca:	8de1      	ldrh	r1, [r4, #46]	; 0x2e
 8004acc:	b289      	uxth	r1, r1
 8004ace:	2900      	cmp	r1, #0
 8004ad0:	d092      	beq.n	80049f8 <HAL_UART_IRQHandler+0xdc>
 8004ad2:	8da1      	ldrh	r1, [r4, #44]	; 0x2c
 8004ad4:	1a89      	subs	r1, r1, r2
 8004ad6:	b289      	uxth	r1, r1
 8004ad8:	2900      	cmp	r1, #0
 8004ada:	d08d      	beq.n	80049f8 <HAL_UART_IRQHandler+0xdc>
 8004adc:	f103 020c 	add.w	r2, r3, #12
 8004ae0:	e852 2f00 	ldrex	r2, [r2]
 8004ae4:	f422 7290 	bic.w	r2, r2, #288	; 0x120
 8004ae8:	f103 050c 	add.w	r5, r3, #12
 8004aec:	e845 2000 	strex	r0, r2, [r5]
 8004af0:	2800      	cmp	r0, #0
 8004af2:	d1f3      	bne.n	8004adc <HAL_UART_IRQHandler+0x1c0>
 8004af4:	f103 0214 	add.w	r2, r3, #20
 8004af8:	e852 2f00 	ldrex	r2, [r2]
 8004afc:	f022 0201 	bic.w	r2, r2, #1
 8004b00:	f103 0514 	add.w	r5, r3, #20
 8004b04:	e845 2000 	strex	r0, r2, [r5]
 8004b08:	2800      	cmp	r0, #0
 8004b0a:	d1f3      	bne.n	8004af4 <HAL_UART_IRQHandler+0x1d8>
 8004b0c:	2220      	movs	r2, #32
 8004b0e:	f884 203e 	strb.w	r2, [r4, #62]	; 0x3e
 8004b12:	6320      	str	r0, [r4, #48]	; 0x30
 8004b14:	f103 020c 	add.w	r2, r3, #12
 8004b18:	e852 2f00 	ldrex	r2, [r2]
 8004b1c:	f022 0210 	bic.w	r2, r2, #16
 8004b20:	f103 050c 	add.w	r5, r3, #12
 8004b24:	e845 2000 	strex	r0, r2, [r5]
 8004b28:	2800      	cmp	r0, #0
 8004b2a:	d1f3      	bne.n	8004b14 <HAL_UART_IRQHandler+0x1f8>
 8004b2c:	e7c7      	b.n	8004abe <HAL_UART_IRQHandler+0x1a2>
 8004b2e:	0610      	lsls	r0, r2, #24
 8004b30:	d528      	bpl.n	8004b84 <HAL_UART_IRQHandler+0x268>
 8004b32:	060d      	lsls	r5, r1, #24
 8004b34:	d526      	bpl.n	8004b84 <HAL_UART_IRQHandler+0x268>
 8004b36:	f894 203d 	ldrb.w	r2, [r4, #61]	; 0x3d
 8004b3a:	2a21      	cmp	r2, #33	; 0x21
 8004b3c:	f47f af5c 	bne.w	80049f8 <HAL_UART_IRQHandler+0xdc>
 8004b40:	68a1      	ldr	r1, [r4, #8]
 8004b42:	6a22      	ldr	r2, [r4, #32]
 8004b44:	f5b1 5f80 	cmp.w	r1, #4096	; 0x1000
 8004b48:	d117      	bne.n	8004b7a <HAL_UART_IRQHandler+0x25e>
 8004b4a:	6921      	ldr	r1, [r4, #16]
 8004b4c:	b9a9      	cbnz	r1, 8004b7a <HAL_UART_IRQHandler+0x25e>
 8004b4e:	f832 1b02 	ldrh.w	r1, [r2], #2
 8004b52:	f3c1 0108 	ubfx	r1, r1, #0, #9
 8004b56:	6059      	str	r1, [r3, #4]
 8004b58:	6222      	str	r2, [r4, #32]
 8004b5a:	8ce2      	ldrh	r2, [r4, #38]	; 0x26
 8004b5c:	3a01      	subs	r2, #1
 8004b5e:	b292      	uxth	r2, r2
 8004b60:	84e2      	strh	r2, [r4, #38]	; 0x26
 8004b62:	2a00      	cmp	r2, #0
 8004b64:	f47f af48 	bne.w	80049f8 <HAL_UART_IRQHandler+0xdc>
 8004b68:	68da      	ldr	r2, [r3, #12]
 8004b6a:	f022 0280 	bic.w	r2, r2, #128	; 0x80
 8004b6e:	60da      	str	r2, [r3, #12]
 8004b70:	68da      	ldr	r2, [r3, #12]
 8004b72:	f042 0240 	orr.w	r2, r2, #64	; 0x40
 8004b76:	60da      	str	r2, [r3, #12]
 8004b78:	e73e      	b.n	80049f8 <HAL_UART_IRQHandler+0xdc>
 8004b7a:	1c51      	adds	r1, r2, #1
 8004b7c:	6221      	str	r1, [r4, #32]
 8004b7e:	7812      	ldrb	r2, [r2, #0]
 8004b80:	605a      	str	r2, [r3, #4]
 8004b82:	e7ea      	b.n	8004b5a <HAL_UART_IRQHandler+0x23e>
 8004b84:	0650      	lsls	r0, r2, #25
 8004b86:	f57f af37 	bpl.w	80049f8 <HAL_UART_IRQHandler+0xdc>
 8004b8a:	064a      	lsls	r2, r1, #25
 8004b8c:	f57f af34 	bpl.w	80049f8 <HAL_UART_IRQHandler+0xdc>
 8004b90:	68da      	ldr	r2, [r3, #12]
 8004b92:	f022 0240 	bic.w	r2, r2, #64	; 0x40
 8004b96:	60da      	str	r2, [r3, #12]
 8004b98:	2320      	movs	r3, #32
 8004b9a:	f884 303d 	strb.w	r3, [r4, #61]	; 0x3d
 8004b9e:	4620      	mov	r0, r4
 8004ba0:	f7ff fe55 	bl	800484e <HAL_UART_TxCpltCallback>
 8004ba4:	e728      	b.n	80049f8 <HAL_UART_IRQHandler+0xdc>
 8004ba6:	bf00      	nop
 8004ba8:	08004853 	.word	0x08004853

08004bac <UART_Start_Receive_IT>:
 8004bac:	85c2      	strh	r2, [r0, #46]	; 0x2e
 8004bae:	8582      	strh	r2, [r0, #44]	; 0x2c
 8004bb0:	2322      	movs	r3, #34	; 0x22
 8004bb2:	2200      	movs	r2, #0
 8004bb4:	6402      	str	r2, [r0, #64]	; 0x40
 8004bb6:	f880 303e 	strb.w	r3, [r0, #62]	; 0x3e
 8004bba:	6803      	ldr	r3, [r0, #0]
 8004bbc:	f880 203c 	strb.w	r2, [r0, #60]	; 0x3c
 8004bc0:	6281      	str	r1, [r0, #40]	; 0x28
 8004bc2:	68d9      	ldr	r1, [r3, #12]
 8004bc4:	f441 7180 	orr.w	r1, r1, #256	; 0x100
 8004bc8:	60d9      	str	r1, [r3, #12]
 8004bca:	6959      	ldr	r1, [r3, #20]
 8004bcc:	f041 0101 	orr.w	r1, r1, #1
 8004bd0:	6159      	str	r1, [r3, #20]
 8004bd2:	68d9      	ldr	r1, [r3, #12]
 8004bd4:	f041 0120 	orr.w	r1, r1, #32
 8004bd8:	60d9      	str	r1, [r3, #12]
 8004bda:	4610      	mov	r0, r2
 8004bdc:	4770      	bx	lr

08004bde <HAL_UART_Receive_IT>:
 8004bde:	b470      	push	{r4, r5, r6}
 8004be0:	f890 603e 	ldrb.w	r6, [r0, #62]	; 0x3e
 8004be4:	2e20      	cmp	r6, #32
 8004be6:	d110      	bne.n	8004c0a <HAL_UART_Receive_IT+0x2c>
 8004be8:	b161      	cbz	r1, 8004c04 <HAL_UART_Receive_IT+0x26>
 8004bea:	b15a      	cbz	r2, 8004c04 <HAL_UART_Receive_IT+0x26>
 8004bec:	f890 403c 	ldrb.w	r4, [r0, #60]	; 0x3c
 8004bf0:	2c01      	cmp	r4, #1
 8004bf2:	d00a      	beq.n	8004c0a <HAL_UART_Receive_IT+0x2c>
 8004bf4:	2401      	movs	r4, #1
 8004bf6:	f880 403c 	strb.w	r4, [r0, #60]	; 0x3c
 8004bfa:	2400      	movs	r4, #0
 8004bfc:	6304      	str	r4, [r0, #48]	; 0x30
 8004bfe:	bc70      	pop	{r4, r5, r6}
 8004c00:	f7ff bfd4 	b.w	8004bac <UART_Start_Receive_IT>
 8004c04:	2001      	movs	r0, #1
 8004c06:	bc70      	pop	{r4, r5, r6}
 8004c08:	4770      	bx	lr
 8004c0a:	2002      	movs	r0, #2
 8004c0c:	e7fb      	b.n	8004c06 <HAL_UART_Receive_IT+0x28>
	...

08004c10 <osKernelInitialize>:
 8004c10:	f3ef 8305 	mrs	r3, IPSR
 8004c14:	b92b      	cbnz	r3, 8004c22 <osKernelInitialize+0x12>
 8004c16:	4b06      	ldr	r3, [pc, #24]	; (8004c30 <osKernelInitialize+0x20>)
 8004c18:	6818      	ldr	r0, [r3, #0]
 8004c1a:	b928      	cbnz	r0, 8004c28 <osKernelInitialize+0x18>
 8004c1c:	2201      	movs	r2, #1
 8004c1e:	601a      	str	r2, [r3, #0]
 8004c20:	4770      	bx	lr
 8004c22:	f06f 0005 	mvn.w	r0, #5
 8004c26:	4770      	bx	lr
 8004c28:	f04f 30ff 	mov.w	r0, #4294967295
 8004c2c:	4770      	bx	lr
 8004c2e:	bf00      	nop
 8004c30:	200002f0 	.word	0x200002f0

08004c34 <osKernelStart>:
 8004c34:	b510      	push	{r4, lr}
 8004c36:	f3ef 8405 	mrs	r4, IPSR
 8004c3a:	b95c      	cbnz	r4, 8004c54 <osKernelStart+0x20>
 8004c3c:	4b08      	ldr	r3, [pc, #32]	; (8004c60 <osKernelStart+0x2c>)
 8004c3e:	681a      	ldr	r2, [r3, #0]
 8004c40:	2a01      	cmp	r2, #1
 8004c42:	d10a      	bne.n	8004c5a <osKernelStart+0x26>
 8004c44:	4a07      	ldr	r2, [pc, #28]	; (8004c64 <osKernelStart+0x30>)
 8004c46:	77d4      	strb	r4, [r2, #31]
 8004c48:	2202      	movs	r2, #2
 8004c4a:	601a      	str	r2, [r3, #0]
 8004c4c:	f000 fd90 	bl	8005770 <vTaskStartScheduler>
 8004c50:	4620      	mov	r0, r4
 8004c52:	bd10      	pop	{r4, pc}
 8004c54:	f06f 0005 	mvn.w	r0, #5
 8004c58:	e7fb      	b.n	8004c52 <osKernelStart+0x1e>
 8004c5a:	f04f 30ff 	mov.w	r0, #4294967295
 8004c5e:	e7f8      	b.n	8004c52 <osKernelStart+0x1e>
 8004c60:	200002f0 	.word	0x200002f0
 8004c64:	e000ed00 	.word	0xe000ed00

08004c68 <osThreadNew>:
 8004c68:	b5f0      	push	{r4, r5, r6, r7, lr}
 8004c6a:	b087      	sub	sp, #28
 8004c6c:	4614      	mov	r4, r2
 8004c6e:	2200      	movs	r2, #0
 8004c70:	460b      	mov	r3, r1
 8004c72:	9205      	str	r2, [sp, #20]
 8004c74:	f3ef 8205 	mrs	r2, IPSR
 8004c78:	b9d2      	cbnz	r2, 8004cb0 <osThreadNew+0x48>
 8004c7a:	b1c8      	cbz	r0, 8004cb0 <osThreadNew+0x48>
 8004c7c:	2c00      	cmp	r4, #0
 8004c7e:	d02f      	beq.n	8004ce0 <osThreadNew+0x78>
 8004c80:	69a5      	ldr	r5, [r4, #24]
 8004c82:	2d00      	cmp	r5, #0
 8004c84:	bf08      	it	eq
 8004c86:	2518      	moveq	r5, #24
 8004c88:	1e69      	subs	r1, r5, #1
 8004c8a:	2937      	cmp	r1, #55	; 0x37
 8004c8c:	46ac      	mov	ip, r5
 8004c8e:	d82b      	bhi.n	8004ce8 <osThreadNew+0x80>
 8004c90:	6861      	ldr	r1, [r4, #4]
 8004c92:	07c9      	lsls	r1, r1, #31
 8004c94:	d428      	bmi.n	8004ce8 <osThreadNew+0x80>
 8004c96:	6966      	ldr	r6, [r4, #20]
 8004c98:	b16e      	cbz	r6, 8004cb6 <osThreadNew+0x4e>
 8004c9a:	08b2      	lsrs	r2, r6, #2
 8004c9c:	e9d4 7e02 	ldrd	r7, lr, [r4, #8]
 8004ca0:	6821      	ldr	r1, [r4, #0]
 8004ca2:	b157      	cbz	r7, 8004cba <osThreadNew+0x52>
 8004ca4:	f1be 0f5b 	cmp.w	lr, #91	; 0x5b
 8004ca8:	d902      	bls.n	8004cb0 <osThreadNew+0x48>
 8004caa:	6924      	ldr	r4, [r4, #16]
 8004cac:	b104      	cbz	r4, 8004cb0 <osThreadNew+0x48>
 8004cae:	b9ee      	cbnz	r6, 8004cec <osThreadNew+0x84>
 8004cb0:	9805      	ldr	r0, [sp, #20]
 8004cb2:	b007      	add	sp, #28
 8004cb4:	bdf0      	pop	{r4, r5, r6, r7, pc}
 8004cb6:	2280      	movs	r2, #128	; 0x80
 8004cb8:	e7f0      	b.n	8004c9c <osThreadNew+0x34>
 8004cba:	f1be 0f00 	cmp.w	lr, #0
 8004cbe:	d1f7      	bne.n	8004cb0 <osThreadNew+0x48>
 8004cc0:	6924      	ldr	r4, [r4, #16]
 8004cc2:	2c00      	cmp	r4, #0
 8004cc4:	d1f4      	bne.n	8004cb0 <osThreadNew+0x48>
 8004cc6:	460c      	mov	r4, r1
 8004cc8:	a905      	add	r1, sp, #20
 8004cca:	e9cd c100 	strd	ip, r1, [sp]
 8004cce:	b292      	uxth	r2, r2
 8004cd0:	4621      	mov	r1, r4
 8004cd2:	f000 fd1f 	bl	8005714 <xTaskCreate>
 8004cd6:	2801      	cmp	r0, #1
 8004cd8:	bf1c      	itt	ne
 8004cda:	2300      	movne	r3, #0
 8004cdc:	9305      	strne	r3, [sp, #20]
 8004cde:	e7e7      	b.n	8004cb0 <osThreadNew+0x48>
 8004ce0:	f04f 0c18 	mov.w	ip, #24
 8004ce4:	2280      	movs	r2, #128	; 0x80
 8004ce6:	e7ef      	b.n	8004cc8 <osThreadNew+0x60>
 8004ce8:	4610      	mov	r0, r2
 8004cea:	e7e2      	b.n	8004cb2 <osThreadNew+0x4a>
 8004cec:	e9cd 4701 	strd	r4, r7, [sp, #4]
 8004cf0:	9500      	str	r5, [sp, #0]
 8004cf2:	f000 fcd7 	bl	80056a4 <xTaskCreateStatic>
 8004cf6:	9005      	str	r0, [sp, #20]
 8004cf8:	e7da      	b.n	8004cb0 <osThreadNew+0x48>

08004cfa <osDelay>:
 8004cfa:	b510      	push	{r4, lr}
 8004cfc:	f3ef 8405 	mrs	r4, IPSR
 8004d00:	b924      	cbnz	r4, 8004d0c <osDelay+0x12>
 8004d02:	b110      	cbz	r0, 8004d0a <osDelay+0x10>
 8004d04:	f000 fe90 	bl	8005a28 <vTaskDelay>
 8004d08:	4620      	mov	r0, r4
 8004d0a:	bd10      	pop	{r4, pc}
 8004d0c:	f06f 0005 	mvn.w	r0, #5
 8004d10:	e7fb      	b.n	8004d0a <osDelay+0x10>
	...

08004d14 <vApplicationGetIdleTaskMemory>:
 8004d14:	4b03      	ldr	r3, [pc, #12]	; (8004d24 <vApplicationGetIdleTaskMemory+0x10>)
 8004d16:	6003      	str	r3, [r0, #0]
 8004d18:	4b03      	ldr	r3, [pc, #12]	; (8004d28 <vApplicationGetIdleTaskMemory+0x14>)
 8004d1a:	600b      	str	r3, [r1, #0]
 8004d1c:	2380      	movs	r3, #128	; 0x80
 8004d1e:	6013      	str	r3, [r2, #0]
 8004d20:	4770      	bx	lr
 8004d22:	bf00      	nop
 8004d24:	20000294 	.word	0x20000294
 8004d28:	20000094 	.word	0x20000094

08004d2c <vApplicationGetTimerTaskMemory>:
 8004d2c:	4b03      	ldr	r3, [pc, #12]	; (8004d3c <vApplicationGetTimerTaskMemory+0x10>)
 8004d2e:	6003      	str	r3, [r0, #0]
 8004d30:	4b03      	ldr	r3, [pc, #12]	; (8004d40 <vApplicationGetTimerTaskMemory+0x14>)
 8004d32:	600b      	str	r3, [r1, #0]
 8004d34:	f44f 7380 	mov.w	r3, #256	; 0x100
 8004d38:	6013      	str	r3, [r2, #0]
 8004d3a:	4770      	bx	lr
 8004d3c:	200006f4 	.word	0x200006f4
 8004d40:	200002f4 	.word	0x200002f4

08004d44 <vListInitialise>:
 8004d44:	f100 0308 	add.w	r3, r0, #8
 8004d48:	f04f 32ff 	mov.w	r2, #4294967295
 8004d4c:	e9c0 2302 	strd	r2, r3, [r0, #8]
 8004d50:	6043      	str	r3, [r0, #4]
 8004d52:	6103      	str	r3, [r0, #16]
 8004d54:	2300      	movs	r3, #0
 8004d56:	6003      	str	r3, [r0, #0]
 8004d58:	4770      	bx	lr

08004d5a <vListInitialiseItem>:
 8004d5a:	2300      	movs	r3, #0
 8004d5c:	6103      	str	r3, [r0, #16]
 8004d5e:	4770      	bx	lr

08004d60 <vListInsertEnd>:
 8004d60:	6843      	ldr	r3, [r0, #4]
 8004d62:	604b      	str	r3, [r1, #4]
 8004d64:	689a      	ldr	r2, [r3, #8]
 8004d66:	608a      	str	r2, [r1, #8]
 8004d68:	689a      	ldr	r2, [r3, #8]
 8004d6a:	6051      	str	r1, [r2, #4]
 8004d6c:	6099      	str	r1, [r3, #8]
 8004d6e:	6803      	ldr	r3, [r0, #0]
 8004d70:	6108      	str	r0, [r1, #16]
 8004d72:	3301      	adds	r3, #1
 8004d74:	6003      	str	r3, [r0, #0]
 8004d76:	4770      	bx	lr

08004d78 <vListInsert>:
 8004d78:	b530      	push	{r4, r5, lr}
 8004d7a:	680c      	ldr	r4, [r1, #0]
 8004d7c:	1c63      	adds	r3, r4, #1
 8004d7e:	d10a      	bne.n	8004d96 <vListInsert+0x1e>
 8004d80:	6903      	ldr	r3, [r0, #16]
 8004d82:	685a      	ldr	r2, [r3, #4]
 8004d84:	604a      	str	r2, [r1, #4]
 8004d86:	6091      	str	r1, [r2, #8]
 8004d88:	608b      	str	r3, [r1, #8]
 8004d8a:	6059      	str	r1, [r3, #4]
 8004d8c:	6803      	ldr	r3, [r0, #0]
 8004d8e:	6108      	str	r0, [r1, #16]
 8004d90:	3301      	adds	r3, #1
 8004d92:	6003      	str	r3, [r0, #0]
 8004d94:	bd30      	pop	{r4, r5, pc}
 8004d96:	f100 0208 	add.w	r2, r0, #8
 8004d9a:	4613      	mov	r3, r2
 8004d9c:	6852      	ldr	r2, [r2, #4]
 8004d9e:	6815      	ldr	r5, [r2, #0]
 8004da0:	42a5      	cmp	r5, r4
 8004da2:	d9fa      	bls.n	8004d9a <vListInsert+0x22>
 8004da4:	e7ed      	b.n	8004d82 <vListInsert+0xa>

08004da6 <uxListRemove>:
 8004da6:	e9d0 1201 	ldrd	r1, r2, [r0, #4]
 8004daa:	6903      	ldr	r3, [r0, #16]
 8004dac:	608a      	str	r2, [r1, #8]
 8004dae:	6051      	str	r1, [r2, #4]
 8004db0:	6859      	ldr	r1, [r3, #4]
 8004db2:	4281      	cmp	r1, r0
 8004db4:	bf08      	it	eq
 8004db6:	605a      	streq	r2, [r3, #4]
 8004db8:	2200      	movs	r2, #0
 8004dba:	6102      	str	r2, [r0, #16]
 8004dbc:	681a      	ldr	r2, [r3, #0]
 8004dbe:	3a01      	subs	r2, #1
 8004dc0:	601a      	str	r2, [r3, #0]
 8004dc2:	6818      	ldr	r0, [r3, #0]
 8004dc4:	4770      	bx	lr

08004dc6 <prvIsQueueEmpty>:
 8004dc6:	b510      	push	{r4, lr}
 8004dc8:	4604      	mov	r4, r0
 8004dca:	f001 f9fb 	bl	80061c4 <vPortEnterCritical>
 8004dce:	6ba4      	ldr	r4, [r4, #56]	; 0x38
 8004dd0:	f001 fa1a 	bl	8006208 <vPortExitCritical>
 8004dd4:	fab4 f084 	clz	r0, r4
 8004dd8:	0940      	lsrs	r0, r0, #5
 8004dda:	bd10      	pop	{r4, pc}

08004ddc <prvCopyDataToQueue>:
 8004ddc:	b5f8      	push	{r3, r4, r5, r6, r7, lr}
 8004dde:	4615      	mov	r5, r2
 8004de0:	6c02      	ldr	r2, [r0, #64]	; 0x40
 8004de2:	6b86      	ldr	r6, [r0, #56]	; 0x38
 8004de4:	4604      	mov	r4, r0
 8004de6:	b952      	cbnz	r2, 8004dfe <prvCopyDataToQueue+0x22>
 8004de8:	6807      	ldr	r7, [r0, #0]
 8004dea:	bb47      	cbnz	r7, 8004e3e <prvCopyDataToQueue+0x62>
 8004dec:	6880      	ldr	r0, [r0, #8]
 8004dee:	f000 ff55 	bl	8005c9c <xTaskPriorityDisinherit>
 8004df2:	60a7      	str	r7, [r4, #8]
 8004df4:	4605      	mov	r5, r0
 8004df6:	3601      	adds	r6, #1
 8004df8:	63a6      	str	r6, [r4, #56]	; 0x38
 8004dfa:	4628      	mov	r0, r5
 8004dfc:	bdf8      	pop	{r3, r4, r5, r6, r7, pc}
 8004dfe:	b965      	cbnz	r5, 8004e1a <prvCopyDataToQueue+0x3e>
 8004e00:	6840      	ldr	r0, [r0, #4]
 8004e02:	f001 fdbd 	bl	8006980 <memcpy>
 8004e06:	6863      	ldr	r3, [r4, #4]
 8004e08:	6c22      	ldr	r2, [r4, #64]	; 0x40
 8004e0a:	4413      	add	r3, r2
 8004e0c:	68a2      	ldr	r2, [r4, #8]
 8004e0e:	6063      	str	r3, [r4, #4]
 8004e10:	4293      	cmp	r3, r2
 8004e12:	d3f0      	bcc.n	8004df6 <prvCopyDataToQueue+0x1a>
 8004e14:	6823      	ldr	r3, [r4, #0]
 8004e16:	6063      	str	r3, [r4, #4]
 8004e18:	e7ed      	b.n	8004df6 <prvCopyDataToQueue+0x1a>
 8004e1a:	68c0      	ldr	r0, [r0, #12]
 8004e1c:	f001 fdb0 	bl	8006980 <memcpy>
 8004e20:	6c22      	ldr	r2, [r4, #64]	; 0x40
 8004e22:	68e3      	ldr	r3, [r4, #12]
 8004e24:	4251      	negs	r1, r2
 8004e26:	1a9b      	subs	r3, r3, r2
 8004e28:	6822      	ldr	r2, [r4, #0]
 8004e2a:	60e3      	str	r3, [r4, #12]
 8004e2c:	4293      	cmp	r3, r2
 8004e2e:	bf3e      	ittt	cc
 8004e30:	68a3      	ldrcc	r3, [r4, #8]
 8004e32:	185b      	addcc	r3, r3, r1
 8004e34:	60e3      	strcc	r3, [r4, #12]
 8004e36:	2d02      	cmp	r5, #2
 8004e38:	d101      	bne.n	8004e3e <prvCopyDataToQueue+0x62>
 8004e3a:	b116      	cbz	r6, 8004e42 <prvCopyDataToQueue+0x66>
 8004e3c:	3e01      	subs	r6, #1
 8004e3e:	2500      	movs	r5, #0
 8004e40:	e7d9      	b.n	8004df6 <prvCopyDataToQueue+0x1a>
 8004e42:	4635      	mov	r5, r6
 8004e44:	e7d7      	b.n	8004df6 <prvCopyDataToQueue+0x1a>

08004e46 <prvCopyDataFromQueue>:
 8004e46:	4603      	mov	r3, r0
 8004e48:	b410      	push	{r4}
 8004e4a:	6c1a      	ldr	r2, [r3, #64]	; 0x40
 8004e4c:	4608      	mov	r0, r1
 8004e4e:	b16a      	cbz	r2, 8004e6c <prvCopyDataFromQueue+0x26>
 8004e50:	68dc      	ldr	r4, [r3, #12]
 8004e52:	6899      	ldr	r1, [r3, #8]
 8004e54:	4414      	add	r4, r2
 8004e56:	428c      	cmp	r4, r1
 8004e58:	bf28      	it	cs
 8004e5a:	6819      	ldrcs	r1, [r3, #0]
 8004e5c:	60dc      	str	r4, [r3, #12]
 8004e5e:	bf28      	it	cs
 8004e60:	60d9      	strcs	r1, [r3, #12]
 8004e62:	68d9      	ldr	r1, [r3, #12]
 8004e64:	f85d 4b04 	ldr.w	r4, [sp], #4
 8004e68:	f001 bd8a 	b.w	8006980 <memcpy>
 8004e6c:	f85d 4b04 	ldr.w	r4, [sp], #4
 8004e70:	4770      	bx	lr

08004e72 <prvUnlockQueue>:
 8004e72:	b570      	push	{r4, r5, r6, lr}
 8004e74:	4604      	mov	r4, r0
 8004e76:	f001 f9a5 	bl	80061c4 <vPortEnterCritical>
 8004e7a:	f894 5045 	ldrb.w	r5, [r4, #69]	; 0x45
 8004e7e:	f104 0624 	add.w	r6, r4, #36	; 0x24
 8004e82:	b26d      	sxtb	r5, r5
 8004e84:	2d00      	cmp	r5, #0
 8004e86:	dc14      	bgt.n	8004eb2 <prvUnlockQueue+0x40>
 8004e88:	23ff      	movs	r3, #255	; 0xff
 8004e8a:	f884 3045 	strb.w	r3, [r4, #69]	; 0x45
 8004e8e:	f001 f9bb 	bl	8006208 <vPortExitCritical>
 8004e92:	f001 f997 	bl	80061c4 <vPortEnterCritical>
 8004e96:	f894 5044 	ldrb.w	r5, [r4, #68]	; 0x44
 8004e9a:	f104 0610 	add.w	r6, r4, #16
 8004e9e:	b26d      	sxtb	r5, r5
 8004ea0:	2d00      	cmp	r5, #0
 8004ea2:	dc12      	bgt.n	8004eca <prvUnlockQueue+0x58>
 8004ea4:	23ff      	movs	r3, #255	; 0xff
 8004ea6:	f884 3044 	strb.w	r3, [r4, #68]	; 0x44
 8004eaa:	e8bd 4070 	ldmia.w	sp!, {r4, r5, r6, lr}
 8004eae:	f001 b9ab 	b.w	8006208 <vPortExitCritical>
 8004eb2:	6a63      	ldr	r3, [r4, #36]	; 0x24
 8004eb4:	2b00      	cmp	r3, #0
 8004eb6:	d0e7      	beq.n	8004e88 <prvUnlockQueue+0x16>
 8004eb8:	4630      	mov	r0, r6
 8004eba:	f000 fe4d 	bl	8005b58 <xTaskRemoveFromEventList>
 8004ebe:	b108      	cbz	r0, 8004ec4 <prvUnlockQueue+0x52>
 8004ec0:	f000 fed6 	bl	8005c70 <vTaskMissedYield>
 8004ec4:	3d01      	subs	r5, #1
 8004ec6:	b26d      	sxtb	r5, r5
 8004ec8:	e7dc      	b.n	8004e84 <prvUnlockQueue+0x12>
 8004eca:	6923      	ldr	r3, [r4, #16]
 8004ecc:	2b00      	cmp	r3, #0
 8004ece:	d0e9      	beq.n	8004ea4 <prvUnlockQueue+0x32>
 8004ed0:	4630      	mov	r0, r6
 8004ed2:	f000 fe41 	bl	8005b58 <xTaskRemoveFromEventList>
 8004ed6:	b108      	cbz	r0, 8004edc <prvUnlockQueue+0x6a>
 8004ed8:	f000 feca 	bl	8005c70 <vTaskMissedYield>
 8004edc:	3d01      	subs	r5, #1
 8004ede:	b26d      	sxtb	r5, r5
 8004ee0:	e7de      	b.n	8004ea0 <prvUnlockQueue+0x2e>
	...

08004ee4 <xQueueGenericReset>:
 8004ee4:	b538      	push	{r3, r4, r5, lr}
 8004ee6:	460d      	mov	r5, r1
 8004ee8:	4604      	mov	r4, r0
 8004eea:	b940      	cbnz	r0, 8004efe <xQueueGenericReset+0x1a>
 8004eec:	f04f 0350 	mov.w	r3, #80	; 0x50
 8004ef0:	f383 8811 	msr	BASEPRI, r3
 8004ef4:	f3bf 8f6f 	isb	sy
 8004ef8:	f3bf 8f4f 	dsb	sy
 8004efc:	e7fe      	b.n	8004efc <xQueueGenericReset+0x18>
 8004efe:	f001 f961 	bl	80061c4 <vPortEnterCritical>
 8004f02:	e9d4 310f 	ldrd	r3, r1, [r4, #60]	; 0x3c
 8004f06:	6822      	ldr	r2, [r4, #0]
 8004f08:	6062      	str	r2, [r4, #4]
 8004f0a:	434b      	muls	r3, r1
 8004f0c:	18d0      	adds	r0, r2, r3
 8004f0e:	1a5b      	subs	r3, r3, r1
 8004f10:	4413      	add	r3, r2
 8004f12:	60a0      	str	r0, [r4, #8]
 8004f14:	60e3      	str	r3, [r4, #12]
 8004f16:	2000      	movs	r0, #0
 8004f18:	23ff      	movs	r3, #255	; 0xff
 8004f1a:	63a0      	str	r0, [r4, #56]	; 0x38
 8004f1c:	f884 3044 	strb.w	r3, [r4, #68]	; 0x44
 8004f20:	f884 3045 	strb.w	r3, [r4, #69]	; 0x45
 8004f24:	b995      	cbnz	r5, 8004f4c <xQueueGenericReset+0x68>
 8004f26:	6923      	ldr	r3, [r4, #16]
 8004f28:	b163      	cbz	r3, 8004f44 <xQueueGenericReset+0x60>
 8004f2a:	f104 0010 	add.w	r0, r4, #16
 8004f2e:	f000 fe13 	bl	8005b58 <xTaskRemoveFromEventList>
 8004f32:	b138      	cbz	r0, 8004f44 <xQueueGenericReset+0x60>
 8004f34:	4b0a      	ldr	r3, [pc, #40]	; (8004f60 <xQueueGenericReset+0x7c>)
 8004f36:	f04f 5280 	mov.w	r2, #268435456	; 0x10000000
 8004f3a:	601a      	str	r2, [r3, #0]
 8004f3c:	f3bf 8f4f 	dsb	sy
 8004f40:	f3bf 8f6f 	isb	sy
 8004f44:	f001 f960 	bl	8006208 <vPortExitCritical>
 8004f48:	2001      	movs	r0, #1
 8004f4a:	bd38      	pop	{r3, r4, r5, pc}
 8004f4c:	f104 0010 	add.w	r0, r4, #16
 8004f50:	f7ff fef8 	bl	8004d44 <vListInitialise>
 8004f54:	f104 0024 	add.w	r0, r4, #36	; 0x24
 8004f58:	f7ff fef4 	bl	8004d44 <vListInitialise>
 8004f5c:	e7f2      	b.n	8004f44 <xQueueGenericReset+0x60>
 8004f5e:	bf00      	nop
 8004f60:	e000ed04 	.word	0xe000ed04

08004f64 <xQueueGenericCreateStatic>:
 8004f64:	b513      	push	{r0, r1, r4, lr}
 8004f66:	461c      	mov	r4, r3
 8004f68:	b940      	cbnz	r0, 8004f7c <xQueueGenericCreateStatic+0x18>
 8004f6a:	f04f 0350 	mov.w	r3, #80	; 0x50
 8004f6e:	f383 8811 	msr	BASEPRI, r3
 8004f72:	f3bf 8f6f 	isb	sy
 8004f76:	f3bf 8f4f 	dsb	sy
 8004f7a:	e7fe      	b.n	8004f7a <xQueueGenericCreateStatic+0x16>
 8004f7c:	b943      	cbnz	r3, 8004f90 <xQueueGenericCreateStatic+0x2c>
 8004f7e:	f04f 0350 	mov.w	r3, #80	; 0x50
 8004f82:	f383 8811 	msr	BASEPRI, r3
 8004f86:	f3bf 8f6f 	isb	sy
 8004f8a:	f3bf 8f4f 	dsb	sy
 8004f8e:	e7fe      	b.n	8004f8e <xQueueGenericCreateStatic+0x2a>
 8004f90:	b14a      	cbz	r2, 8004fa6 <xQueueGenericCreateStatic+0x42>
 8004f92:	b991      	cbnz	r1, 8004fba <xQueueGenericCreateStatic+0x56>
 8004f94:	f04f 0350 	mov.w	r3, #80	; 0x50
 8004f98:	f383 8811 	msr	BASEPRI, r3
 8004f9c:	f3bf 8f6f 	isb	sy
 8004fa0:	f3bf 8f4f 	dsb	sy
 8004fa4:	e7fe      	b.n	8004fa4 <xQueueGenericCreateStatic+0x40>
 8004fa6:	b141      	cbz	r1, 8004fba <xQueueGenericCreateStatic+0x56>
 8004fa8:	f04f 0350 	mov.w	r3, #80	; 0x50
 8004fac:	f383 8811 	msr	BASEPRI, r3
 8004fb0:	f3bf 8f6f 	isb	sy
 8004fb4:	f3bf 8f4f 	dsb	sy
 8004fb8:	e7fe      	b.n	8004fb8 <xQueueGenericCreateStatic+0x54>
 8004fba:	2350      	movs	r3, #80	; 0x50
 8004fbc:	9301      	str	r3, [sp, #4]
 8004fbe:	9b01      	ldr	r3, [sp, #4]
 8004fc0:	2b50      	cmp	r3, #80	; 0x50
 8004fc2:	d008      	beq.n	8004fd6 <xQueueGenericCreateStatic+0x72>
 8004fc4:	f04f 0350 	mov.w	r3, #80	; 0x50
 8004fc8:	f383 8811 	msr	BASEPRI, r3
 8004fcc:	f3bf 8f6f 	isb	sy
 8004fd0:	f3bf 8f4f 	dsb	sy
 8004fd4:	e7fe      	b.n	8004fd4 <xQueueGenericCreateStatic+0x70>
 8004fd6:	2900      	cmp	r1, #0
 8004fd8:	bf08      	it	eq
 8004fda:	4622      	moveq	r2, r4
 8004fdc:	9b01      	ldr	r3, [sp, #4]
 8004fde:	6022      	str	r2, [r4, #0]
 8004fe0:	2301      	movs	r3, #1
 8004fe2:	e9c4 010f 	strd	r0, r1, [r4, #60]	; 0x3c
 8004fe6:	f884 3046 	strb.w	r3, [r4, #70]	; 0x46
 8004fea:	4619      	mov	r1, r3
 8004fec:	4620      	mov	r0, r4
 8004fee:	f7ff ff79 	bl	8004ee4 <xQueueGenericReset>
 8004ff2:	f89d 3010 	ldrb.w	r3, [sp, #16]
 8004ff6:	f884 304c 	strb.w	r3, [r4, #76]	; 0x4c
 8004ffa:	4620      	mov	r0, r4
 8004ffc:	b002      	add	sp, #8
 8004ffe:	bd10      	pop	{r4, pc}

08005000 <xQueueGenericSend>:
 8005000:	e92d 47ff 	stmdb	sp!, {r0, r1, r2, r3, r4, r5, r6, r7, r8, r9, sl, lr}
 8005004:	4688      	mov	r8, r1
 8005006:	9201      	str	r2, [sp, #4]
 8005008:	461f      	mov	r7, r3
 800500a:	4604      	mov	r4, r0
 800500c:	b940      	cbnz	r0, 8005020 <xQueueGenericSend+0x20>
 800500e:	f04f 0350 	mov.w	r3, #80	; 0x50
 8005012:	f383 8811 	msr	BASEPRI, r3
 8005016:	f3bf 8f6f 	isb	sy
 800501a:	f3bf 8f4f 	dsb	sy
 800501e:	e7fe      	b.n	800501e <xQueueGenericSend+0x1e>
 8005020:	b951      	cbnz	r1, 8005038 <xQueueGenericSend+0x38>
 8005022:	6c03      	ldr	r3, [r0, #64]	; 0x40
 8005024:	b143      	cbz	r3, 8005038 <xQueueGenericSend+0x38>
 8005026:	f04f 0350 	mov.w	r3, #80	; 0x50
 800502a:	f383 8811 	msr	BASEPRI, r3
 800502e:	f3bf 8f6f 	isb	sy
 8005032:	f3bf 8f4f 	dsb	sy
 8005036:	e7fe      	b.n	8005036 <xQueueGenericSend+0x36>
 8005038:	2f02      	cmp	r7, #2
 800503a:	d10b      	bne.n	8005054 <xQueueGenericSend+0x54>
 800503c:	6be3      	ldr	r3, [r4, #60]	; 0x3c
 800503e:	2b01      	cmp	r3, #1
 8005040:	d008      	beq.n	8005054 <xQueueGenericSend+0x54>
 8005042:	f04f 0350 	mov.w	r3, #80	; 0x50
 8005046:	f383 8811 	msr	BASEPRI, r3
 800504a:	f3bf 8f6f 	isb	sy
 800504e:	f3bf 8f4f 	dsb	sy
 8005052:	e7fe      	b.n	8005052 <xQueueGenericSend+0x52>
 8005054:	f000 fe12 	bl	8005c7c <xTaskGetSchedulerState>
 8005058:	4606      	mov	r6, r0
 800505a:	b950      	cbnz	r0, 8005072 <xQueueGenericSend+0x72>
 800505c:	9b01      	ldr	r3, [sp, #4]
 800505e:	b14b      	cbz	r3, 8005074 <xQueueGenericSend+0x74>
 8005060:	f04f 0350 	mov.w	r3, #80	; 0x50
 8005064:	f383 8811 	msr	BASEPRI, r3
 8005068:	f3bf 8f6f 	isb	sy
 800506c:	f3bf 8f4f 	dsb	sy
 8005070:	e7fe      	b.n	8005070 <xQueueGenericSend+0x70>
 8005072:	2600      	movs	r6, #0
 8005074:	f8df a0e8 	ldr.w	sl, [pc, #232]	; 8005160 <xQueueGenericSend+0x160>
 8005078:	f04f 0900 	mov.w	r9, #0
 800507c:	e037      	b.n	80050ee <xQueueGenericSend+0xee>
 800507e:	9d01      	ldr	r5, [sp, #4]
 8005080:	b91d      	cbnz	r5, 800508a <xQueueGenericSend+0x8a>
 8005082:	f001 f8c1 	bl	8006208 <vPortExitCritical>
 8005086:	2000      	movs	r0, #0
 8005088:	e050      	b.n	800512c <xQueueGenericSend+0x12c>
 800508a:	b916      	cbnz	r6, 8005092 <xQueueGenericSend+0x92>
 800508c:	a802      	add	r0, sp, #8
 800508e:	f000 fda7 	bl	8005be0 <vTaskInternalSetTimeOutState>
 8005092:	f001 f8b9 	bl	8006208 <vPortExitCritical>
 8005096:	f000 fbaf 	bl	80057f8 <vTaskSuspendAll>
 800509a:	f001 f893 	bl	80061c4 <vPortEnterCritical>
 800509e:	f894 3044 	ldrb.w	r3, [r4, #68]	; 0x44
 80050a2:	2bff      	cmp	r3, #255	; 0xff
 80050a4:	bf08      	it	eq
 80050a6:	f884 9044 	strbeq.w	r9, [r4, #68]	; 0x44
 80050aa:	f894 3045 	ldrb.w	r3, [r4, #69]	; 0x45
 80050ae:	2bff      	cmp	r3, #255	; 0xff
 80050b0:	bf08      	it	eq
 80050b2:	f884 9045 	strbeq.w	r9, [r4, #69]	; 0x45
 80050b6:	f001 f8a7 	bl	8006208 <vPortExitCritical>
 80050ba:	a901      	add	r1, sp, #4
 80050bc:	a802      	add	r0, sp, #8
 80050be:	f000 fd9b 	bl	8005bf8 <xTaskCheckForTimeOut>
 80050c2:	2800      	cmp	r0, #0
 80050c4:	d146      	bne.n	8005154 <xQueueGenericSend+0x154>
 80050c6:	f001 f87d 	bl	80061c4 <vPortEnterCritical>
 80050ca:	6ba2      	ldr	r2, [r4, #56]	; 0x38
 80050cc:	6be3      	ldr	r3, [r4, #60]	; 0x3c
 80050ce:	429a      	cmp	r2, r3
 80050d0:	d12f      	bne.n	8005132 <xQueueGenericSend+0x132>
 80050d2:	f001 f899 	bl	8006208 <vPortExitCritical>
 80050d6:	9901      	ldr	r1, [sp, #4]
 80050d8:	f104 0010 	add.w	r0, r4, #16
 80050dc:	f000 fd04 	bl	8005ae8 <vTaskPlaceOnEventList>
 80050e0:	4620      	mov	r0, r4
 80050e2:	f7ff fec6 	bl	8004e72 <prvUnlockQueue>
 80050e6:	f000 fc2b 	bl	8005940 <xTaskResumeAll>
 80050ea:	b350      	cbz	r0, 8005142 <xQueueGenericSend+0x142>
 80050ec:	2601      	movs	r6, #1
 80050ee:	f001 f869 	bl	80061c4 <vPortEnterCritical>
 80050f2:	6ba2      	ldr	r2, [r4, #56]	; 0x38
 80050f4:	6be3      	ldr	r3, [r4, #60]	; 0x3c
 80050f6:	429a      	cmp	r2, r3
 80050f8:	d301      	bcc.n	80050fe <xQueueGenericSend+0xfe>
 80050fa:	2f02      	cmp	r7, #2
 80050fc:	d1bf      	bne.n	800507e <xQueueGenericSend+0x7e>
 80050fe:	463a      	mov	r2, r7
 8005100:	4641      	mov	r1, r8
 8005102:	4620      	mov	r0, r4
 8005104:	f7ff fe6a 	bl	8004ddc <prvCopyDataToQueue>
 8005108:	6a63      	ldr	r3, [r4, #36]	; 0x24
 800510a:	b11b      	cbz	r3, 8005114 <xQueueGenericSend+0x114>
 800510c:	f104 0024 	add.w	r0, r4, #36	; 0x24
 8005110:	f000 fd22 	bl	8005b58 <xTaskRemoveFromEventList>
 8005114:	b138      	cbz	r0, 8005126 <xQueueGenericSend+0x126>
 8005116:	4b12      	ldr	r3, [pc, #72]	; (8005160 <xQueueGenericSend+0x160>)
 8005118:	f04f 5280 	mov.w	r2, #268435456	; 0x10000000
 800511c:	601a      	str	r2, [r3, #0]
 800511e:	f3bf 8f4f 	dsb	sy
 8005122:	f3bf 8f6f 	isb	sy
 8005126:	f001 f86f 	bl	8006208 <vPortExitCritical>
 800512a:	2001      	movs	r0, #1
 800512c:	b004      	add	sp, #16
 800512e:	e8bd 87f0 	ldmia.w	sp!, {r4, r5, r6, r7, r8, r9, sl, pc}
 8005132:	f001 f869 	bl	8006208 <vPortExitCritical>
 8005136:	4620      	mov	r0, r4
 8005138:	f7ff fe9b 	bl	8004e72 <prvUnlockQueue>
 800513c:	f000 fc00 	bl	8005940 <xTaskResumeAll>
 8005140:	e7d4      	b.n	80050ec <xQueueGenericSend+0xec>
 8005142:	f04f 5380 	mov.w	r3, #268435456	; 0x10000000
 8005146:	f8ca 3000 	str.w	r3, [sl]
 800514a:	f3bf 8f4f 	dsb	sy
 800514e:	f3bf 8f6f 	isb	sy
 8005152:	e7cb      	b.n	80050ec <xQueueGenericSend+0xec>
 8005154:	4620      	mov	r0, r4
 8005156:	f7ff fe8c 	bl	8004e72 <prvUnlockQueue>
 800515a:	f000 fbf1 	bl	8005940 <xTaskResumeAll>
 800515e:	e792      	b.n	8005086 <xQueueGenericSend+0x86>
 8005160:	e000ed04 	.word	0xe000ed04

08005164 <xQueueGenericSendFromISR>:
 8005164:	e92d 43f8 	stmdb	sp!, {r3, r4, r5, r6, r7, r8, r9, lr}
 8005168:	4689      	mov	r9, r1
 800516a:	4690      	mov	r8, r2
 800516c:	461f      	mov	r7, r3
 800516e:	4604      	mov	r4, r0
 8005170:	b940      	cbnz	r0, 8005184 <xQueueGenericSendFromISR+0x20>
 8005172:	f04f 0350 	mov.w	r3, #80	; 0x50
 8005176:	f383 8811 	msr	BASEPRI, r3
 800517a:	f3bf 8f6f 	isb	sy
 800517e:	f3bf 8f4f 	dsb	sy
 8005182:	e7fe      	b.n	8005182 <xQueueGenericSendFromISR+0x1e>
 8005184:	b951      	cbnz	r1, 800519c <xQueueGenericSendFromISR+0x38>
 8005186:	6c03      	ldr	r3, [r0, #64]	; 0x40
 8005188:	b143      	cbz	r3, 800519c <xQueueGenericSendFromISR+0x38>
 800518a:	f04f 0350 	mov.w	r3, #80	; 0x50
 800518e:	f383 8811 	msr	BASEPRI, r3
 8005192:	f3bf 8f6f 	isb	sy
 8005196:	f3bf 8f4f 	dsb	sy
 800519a:	e7fe      	b.n	800519a <xQueueGenericSendFromISR+0x36>
 800519c:	2f02      	cmp	r7, #2
 800519e:	d10b      	bne.n	80051b8 <xQueueGenericSendFromISR+0x54>
 80051a0:	6be3      	ldr	r3, [r4, #60]	; 0x3c
 80051a2:	2b01      	cmp	r3, #1
 80051a4:	d008      	beq.n	80051b8 <xQueueGenericSendFromISR+0x54>
 80051a6:	f04f 0350 	mov.w	r3, #80	; 0x50
 80051aa:	f383 8811 	msr	BASEPRI, r3
 80051ae:	f3bf 8f6f 	isb	sy
 80051b2:	f3bf 8f4f 	dsb	sy
 80051b6:	e7fe      	b.n	80051b6 <xQueueGenericSendFromISR+0x52>
 80051b8:	f001 f920 	bl	80063fc <vPortValidateInterruptPriority>
 80051bc:	f3ef 8611 	mrs	r6, BASEPRI
 80051c0:	f04f 0350 	mov.w	r3, #80	; 0x50
 80051c4:	f383 8811 	msr	BASEPRI, r3
 80051c8:	f3bf 8f6f 	isb	sy
 80051cc:	f3bf 8f4f 	dsb	sy
 80051d0:	6ba2      	ldr	r2, [r4, #56]	; 0x38
 80051d2:	6be3      	ldr	r3, [r4, #60]	; 0x3c
 80051d4:	429a      	cmp	r2, r3
 80051d6:	d301      	bcc.n	80051dc <xQueueGenericSendFromISR+0x78>
 80051d8:	2f02      	cmp	r7, #2
 80051da:	d123      	bne.n	8005224 <xQueueGenericSendFromISR+0xc0>
 80051dc:	f894 5045 	ldrb.w	r5, [r4, #69]	; 0x45
 80051e0:	6ba3      	ldr	r3, [r4, #56]	; 0x38
 80051e2:	b26d      	sxtb	r5, r5
 80051e4:	463a      	mov	r2, r7
 80051e6:	4649      	mov	r1, r9
 80051e8:	4620      	mov	r0, r4
 80051ea:	f7ff fdf7 	bl	8004ddc <prvCopyDataToQueue>
 80051ee:	1c6b      	adds	r3, r5, #1
 80051f0:	d113      	bne.n	800521a <xQueueGenericSendFromISR+0xb6>
 80051f2:	6a63      	ldr	r3, [r4, #36]	; 0x24
 80051f4:	b90b      	cbnz	r3, 80051fa <xQueueGenericSendFromISR+0x96>
 80051f6:	2001      	movs	r0, #1
 80051f8:	e00b      	b.n	8005212 <xQueueGenericSendFromISR+0xae>
 80051fa:	f104 0024 	add.w	r0, r4, #36	; 0x24
 80051fe:	f000 fcab 	bl	8005b58 <xTaskRemoveFromEventList>
 8005202:	2800      	cmp	r0, #0
 8005204:	d0f7      	beq.n	80051f6 <xQueueGenericSendFromISR+0x92>
 8005206:	f1b8 0f00 	cmp.w	r8, #0
 800520a:	d0f4      	beq.n	80051f6 <xQueueGenericSendFromISR+0x92>
 800520c:	2001      	movs	r0, #1
 800520e:	f8c8 0000 	str.w	r0, [r8]
 8005212:	f386 8811 	msr	BASEPRI, r6
 8005216:	e8bd 83f8 	ldmia.w	sp!, {r3, r4, r5, r6, r7, r8, r9, pc}
 800521a:	3501      	adds	r5, #1
 800521c:	b26d      	sxtb	r5, r5
 800521e:	f884 5045 	strb.w	r5, [r4, #69]	; 0x45
 8005222:	e7e8      	b.n	80051f6 <xQueueGenericSendFromISR+0x92>
 8005224:	2000      	movs	r0, #0
 8005226:	e7f4      	b.n	8005212 <xQueueGenericSendFromISR+0xae>

08005228 <xQueueReceive>:
 8005228:	e92d 43f0 	stmdb	sp!, {r4, r5, r6, r7, r8, r9, lr}
 800522c:	b085      	sub	sp, #20
 800522e:	460f      	mov	r7, r1
 8005230:	9201      	str	r2, [sp, #4]
 8005232:	4604      	mov	r4, r0
 8005234:	b940      	cbnz	r0, 8005248 <xQueueReceive+0x20>
 8005236:	f04f 0350 	mov.w	r3, #80	; 0x50
 800523a:	f383 8811 	msr	BASEPRI, r3
 800523e:	f3bf 8f6f 	isb	sy
 8005242:	f3bf 8f4f 	dsb	sy
 8005246:	e7fe      	b.n	8005246 <xQueueReceive+0x1e>
 8005248:	b951      	cbnz	r1, 8005260 <xQueueReceive+0x38>
 800524a:	6c03      	ldr	r3, [r0, #64]	; 0x40
 800524c:	b143      	cbz	r3, 8005260 <xQueueReceive+0x38>
 800524e:	f04f 0350 	mov.w	r3, #80	; 0x50
 8005252:	f383 8811 	msr	BASEPRI, r3
 8005256:	f3bf 8f6f 	isb	sy
 800525a:	f3bf 8f4f 	dsb	sy
 800525e:	e7fe      	b.n	800525e <xQueueReceive+0x36>
 8005260:	f000 fd0c 	bl	8005c7c <xTaskGetSchedulerState>
 8005264:	4606      	mov	r6, r0
 8005266:	b950      	cbnz	r0, 800527e <xQueueReceive+0x56>
 8005268:	9b01      	ldr	r3, [sp, #4]
 800526a:	b14b      	cbz	r3, 8005280 <xQueueReceive+0x58>
 800526c:	f04f 0350 	mov.w	r3, #80	; 0x50
 8005270:	f383 8811 	msr	BASEPRI, r3
 8005274:	f3bf 8f6f 	isb	sy
 8005278:	f3bf 8f4f 	dsb	sy
 800527c:	e7fe      	b.n	800527c <xQueueReceive+0x54>
 800527e:	2600      	movs	r6, #0
 8005280:	f8df 90e0 	ldr.w	r9, [pc, #224]	; 8005364 <xQueueReceive+0x13c>
 8005284:	f04f 0800 	mov.w	r8, #0
 8005288:	e03b      	b.n	8005302 <xQueueReceive+0xda>
 800528a:	9d01      	ldr	r5, [sp, #4]
 800528c:	b91d      	cbnz	r5, 8005296 <xQueueReceive+0x6e>
 800528e:	f000 ffbb 	bl	8006208 <vPortExitCritical>
 8005292:	2000      	movs	r0, #0
 8005294:	e052      	b.n	800533c <xQueueReceive+0x114>
 8005296:	b916      	cbnz	r6, 800529e <xQueueReceive+0x76>
 8005298:	a802      	add	r0, sp, #8
 800529a:	f000 fca1 	bl	8005be0 <vTaskInternalSetTimeOutState>
 800529e:	f000 ffb3 	bl	8006208 <vPortExitCritical>
 80052a2:	f000 faa9 	bl	80057f8 <vTaskSuspendAll>
 80052a6:	f000 ff8d 	bl	80061c4 <vPortEnterCritical>
 80052aa:	f894 3044 	ldrb.w	r3, [r4, #68]	; 0x44
 80052ae:	2bff      	cmp	r3, #255	; 0xff
 80052b0:	bf08      	it	eq
 80052b2:	f884 8044 	strbeq.w	r8, [r4, #68]	; 0x44
 80052b6:	f894 3045 	ldrb.w	r3, [r4, #69]	; 0x45
 80052ba:	2bff      	cmp	r3, #255	; 0xff
 80052bc:	bf08      	it	eq
 80052be:	f884 8045 	strbeq.w	r8, [r4, #69]	; 0x45
 80052c2:	f000 ffa1 	bl	8006208 <vPortExitCritical>
 80052c6:	a901      	add	r1, sp, #4
 80052c8:	a802      	add	r0, sp, #8
 80052ca:	f000 fc95 	bl	8005bf8 <xTaskCheckForTimeOut>
 80052ce:	2800      	cmp	r0, #0
 80052d0:	d13d      	bne.n	800534e <xQueueReceive+0x126>
 80052d2:	4620      	mov	r0, r4
 80052d4:	f7ff fd77 	bl	8004dc6 <prvIsQueueEmpty>
 80052d8:	b398      	cbz	r0, 8005342 <xQueueReceive+0x11a>
 80052da:	9901      	ldr	r1, [sp, #4]
 80052dc:	f104 0024 	add.w	r0, r4, #36	; 0x24
 80052e0:	f000 fc02 	bl	8005ae8 <vTaskPlaceOnEventList>
 80052e4:	4620      	mov	r0, r4
 80052e6:	f7ff fdc4 	bl	8004e72 <prvUnlockQueue>
 80052ea:	f000 fb29 	bl	8005940 <xTaskResumeAll>
 80052ee:	b938      	cbnz	r0, 8005300 <xQueueReceive+0xd8>
 80052f0:	f04f 5380 	mov.w	r3, #268435456	; 0x10000000
 80052f4:	f8c9 3000 	str.w	r3, [r9]
 80052f8:	f3bf 8f4f 	dsb	sy
 80052fc:	f3bf 8f6f 	isb	sy
 8005300:	2601      	movs	r6, #1
 8005302:	f000 ff5f 	bl	80061c4 <vPortEnterCritical>
 8005306:	6ba5      	ldr	r5, [r4, #56]	; 0x38
 8005308:	2d00      	cmp	r5, #0
 800530a:	d0be      	beq.n	800528a <xQueueReceive+0x62>
 800530c:	4639      	mov	r1, r7
 800530e:	4620      	mov	r0, r4
 8005310:	3d01      	subs	r5, #1
 8005312:	f7ff fd98 	bl	8004e46 <prvCopyDataFromQueue>
 8005316:	63a5      	str	r5, [r4, #56]	; 0x38
 8005318:	6923      	ldr	r3, [r4, #16]
 800531a:	b163      	cbz	r3, 8005336 <xQueueReceive+0x10e>
 800531c:	f104 0010 	add.w	r0, r4, #16
 8005320:	f000 fc1a 	bl	8005b58 <xTaskRemoveFromEventList>
 8005324:	b138      	cbz	r0, 8005336 <xQueueReceive+0x10e>
 8005326:	4b0f      	ldr	r3, [pc, #60]	; (8005364 <xQueueReceive+0x13c>)
 8005328:	f04f 5280 	mov.w	r2, #268435456	; 0x10000000
 800532c:	601a      	str	r2, [r3, #0]
 800532e:	f3bf 8f4f 	dsb	sy
 8005332:	f3bf 8f6f 	isb	sy
 8005336:	f000 ff67 	bl	8006208 <vPortExitCritical>
 800533a:	2001      	movs	r0, #1
 800533c:	b005      	add	sp, #20
 800533e:	e8bd 83f0 	ldmia.w	sp!, {r4, r5, r6, r7, r8, r9, pc}
 8005342:	4620      	mov	r0, r4
 8005344:	f7ff fd95 	bl	8004e72 <prvUnlockQueue>
 8005348:	f000 fafa 	bl	8005940 <xTaskResumeAll>
 800534c:	e7d8      	b.n	8005300 <xQueueReceive+0xd8>
 800534e:	4620      	mov	r0, r4
 8005350:	f7ff fd8f 	bl	8004e72 <prvUnlockQueue>
 8005354:	f000 faf4 	bl	8005940 <xTaskResumeAll>
 8005358:	4620      	mov	r0, r4
 800535a:	f7ff fd34 	bl	8004dc6 <prvIsQueueEmpty>
 800535e:	2800      	cmp	r0, #0
 8005360:	d0ce      	beq.n	8005300 <xQueueReceive+0xd8>
 8005362:	e796      	b.n	8005292 <xQueueReceive+0x6a>
 8005364:	e000ed04 	.word	0xe000ed04

08005368 <vQueueAddToRegistry>:
 8005368:	b530      	push	{r4, r5, lr}
 800536a:	4a07      	ldr	r2, [pc, #28]	; (8005388 <vQueueAddToRegistry+0x20>)
 800536c:	2300      	movs	r3, #0
 800536e:	f852 5033 	ldr.w	r5, [r2, r3, lsl #3]
 8005372:	eb02 04c3 	add.w	r4, r2, r3, lsl #3
 8005376:	b91d      	cbnz	r5, 8005380 <vQueueAddToRegistry+0x18>
 8005378:	f842 1033 	str.w	r1, [r2, r3, lsl #3]
 800537c:	6060      	str	r0, [r4, #4]
 800537e:	bd30      	pop	{r4, r5, pc}
 8005380:	3301      	adds	r3, #1
 8005382:	2b08      	cmp	r3, #8
 8005384:	d1f3      	bne.n	800536e <vQueueAddToRegistry+0x6>
 8005386:	e7fa      	b.n	800537e <vQueueAddToRegistry+0x16>
 8005388:	20009bf4 	.word	0x20009bf4

0800538c <vQueueWaitForMessageRestricted>:
 800538c:	b570      	push	{r4, r5, r6, lr}
 800538e:	4604      	mov	r4, r0
 8005390:	460d      	mov	r5, r1
 8005392:	4616      	mov	r6, r2
 8005394:	f000 ff16 	bl	80061c4 <vPortEnterCritical>
 8005398:	f894 3044 	ldrb.w	r3, [r4, #68]	; 0x44
 800539c:	2bff      	cmp	r3, #255	; 0xff
 800539e:	bf04      	itt	eq
 80053a0:	2300      	moveq	r3, #0
 80053a2:	f884 3044 	strbeq.w	r3, [r4, #68]	; 0x44
 80053a6:	f894 3045 	ldrb.w	r3, [r4, #69]	; 0x45
 80053aa:	2bff      	cmp	r3, #255	; 0xff
 80053ac:	bf04      	itt	eq
 80053ae:	2300      	moveq	r3, #0
 80053b0:	f884 3045 	strbeq.w	r3, [r4, #69]	; 0x45
 80053b4:	f000 ff28 	bl	8006208 <vPortExitCritical>
 80053b8:	6ba3      	ldr	r3, [r4, #56]	; 0x38
 80053ba:	b92b      	cbnz	r3, 80053c8 <vQueueWaitForMessageRestricted+0x3c>
 80053bc:	4632      	mov	r2, r6
 80053be:	4629      	mov	r1, r5
 80053c0:	f104 0024 	add.w	r0, r4, #36	; 0x24
 80053c4:	f000 fbaa 	bl	8005b1c <vTaskPlaceOnEventListRestricted>
 80053c8:	4620      	mov	r0, r4
 80053ca:	e8bd 4070 	ldmia.w	sp!, {r4, r5, r6, lr}
 80053ce:	f7ff bd50 	b.w	8004e72 <prvUnlockQueue>
	...

080053d4 <prvAddNewTaskToReadyList>:
 80053d4:	e92d 41f0 	stmdb	sp!, {r4, r5, r6, r7, r8, lr}
 80053d8:	4604      	mov	r4, r0
 80053da:	f000 fef3 	bl	80061c4 <vPortEnterCritical>
 80053de:	4b2f      	ldr	r3, [pc, #188]	; (800549c <prvAddNewTaskToReadyList+0xc8>)
 80053e0:	4d2f      	ldr	r5, [pc, #188]	; (80054a0 <prvAddNewTaskToReadyList+0xcc>)
 80053e2:	681a      	ldr	r2, [r3, #0]
 80053e4:	4f2f      	ldr	r7, [pc, #188]	; (80054a4 <prvAddNewTaskToReadyList+0xd0>)
 80053e6:	3201      	adds	r2, #1
 80053e8:	601a      	str	r2, [r3, #0]
 80053ea:	682e      	ldr	r6, [r5, #0]
 80053ec:	2e00      	cmp	r6, #0
 80053ee:	d149      	bne.n	8005484 <prvAddNewTaskToReadyList+0xb0>
 80053f0:	602c      	str	r4, [r5, #0]
 80053f2:	681b      	ldr	r3, [r3, #0]
 80053f4:	2b01      	cmp	r3, #1
 80053f6:	d11f      	bne.n	8005438 <prvAddNewTaskToReadyList+0x64>
 80053f8:	46b8      	mov	r8, r7
 80053fa:	4640      	mov	r0, r8
 80053fc:	3601      	adds	r6, #1
 80053fe:	f7ff fca1 	bl	8004d44 <vListInitialise>
 8005402:	2e38      	cmp	r6, #56	; 0x38
 8005404:	f108 0814 	add.w	r8, r8, #20
 8005408:	d1f7      	bne.n	80053fa <prvAddNewTaskToReadyList+0x26>
 800540a:	f8df 80c4 	ldr.w	r8, [pc, #196]	; 80054d0 <prvAddNewTaskToReadyList+0xfc>
 800540e:	4e26      	ldr	r6, [pc, #152]	; (80054a8 <prvAddNewTaskToReadyList+0xd4>)
 8005410:	4640      	mov	r0, r8
 8005412:	f7ff fc97 	bl	8004d44 <vListInitialise>
 8005416:	4630      	mov	r0, r6
 8005418:	f7ff fc94 	bl	8004d44 <vListInitialise>
 800541c:	4823      	ldr	r0, [pc, #140]	; (80054ac <prvAddNewTaskToReadyList+0xd8>)
 800541e:	f7ff fc91 	bl	8004d44 <vListInitialise>
 8005422:	4823      	ldr	r0, [pc, #140]	; (80054b0 <prvAddNewTaskToReadyList+0xdc>)
 8005424:	f7ff fc8e 	bl	8004d44 <vListInitialise>
 8005428:	4822      	ldr	r0, [pc, #136]	; (80054b4 <prvAddNewTaskToReadyList+0xe0>)
 800542a:	f7ff fc8b 	bl	8004d44 <vListInitialise>
 800542e:	4b22      	ldr	r3, [pc, #136]	; (80054b8 <prvAddNewTaskToReadyList+0xe4>)
 8005430:	f8c3 8000 	str.w	r8, [r3]
 8005434:	4b21      	ldr	r3, [pc, #132]	; (80054bc <prvAddNewTaskToReadyList+0xe8>)
 8005436:	601e      	str	r6, [r3, #0]
 8005438:	4a21      	ldr	r2, [pc, #132]	; (80054c0 <prvAddNewTaskToReadyList+0xec>)
 800543a:	6813      	ldr	r3, [r2, #0]
 800543c:	3301      	adds	r3, #1
 800543e:	6013      	str	r3, [r2, #0]
 8005440:	4a20      	ldr	r2, [pc, #128]	; (80054c4 <prvAddNewTaskToReadyList+0xf0>)
 8005442:	6463      	str	r3, [r4, #68]	; 0x44
 8005444:	6811      	ldr	r1, [r2, #0]
 8005446:	6ae3      	ldr	r3, [r4, #44]	; 0x2c
 8005448:	2014      	movs	r0, #20
 800544a:	428b      	cmp	r3, r1
 800544c:	fb00 7003 	mla	r0, r0, r3, r7
 8005450:	f104 0104 	add.w	r1, r4, #4
 8005454:	bf88      	it	hi
 8005456:	6013      	strhi	r3, [r2, #0]
 8005458:	f7ff fc82 	bl	8004d60 <vListInsertEnd>
 800545c:	f000 fed4 	bl	8006208 <vPortExitCritical>
 8005460:	4b19      	ldr	r3, [pc, #100]	; (80054c8 <prvAddNewTaskToReadyList+0xf4>)
 8005462:	681b      	ldr	r3, [r3, #0]
 8005464:	b163      	cbz	r3, 8005480 <prvAddNewTaskToReadyList+0xac>
 8005466:	682b      	ldr	r3, [r5, #0]
 8005468:	6ada      	ldr	r2, [r3, #44]	; 0x2c
 800546a:	6ae3      	ldr	r3, [r4, #44]	; 0x2c
 800546c:	429a      	cmp	r2, r3
 800546e:	d207      	bcs.n	8005480 <prvAddNewTaskToReadyList+0xac>
 8005470:	4b16      	ldr	r3, [pc, #88]	; (80054cc <prvAddNewTaskToReadyList+0xf8>)
 8005472:	f04f 5280 	mov.w	r2, #268435456	; 0x10000000
 8005476:	601a      	str	r2, [r3, #0]
 8005478:	f3bf 8f4f 	dsb	sy
 800547c:	f3bf 8f6f 	isb	sy
 8005480:	e8bd 81f0 	ldmia.w	sp!, {r4, r5, r6, r7, r8, pc}
 8005484:	4b10      	ldr	r3, [pc, #64]	; (80054c8 <prvAddNewTaskToReadyList+0xf4>)
 8005486:	681b      	ldr	r3, [r3, #0]
 8005488:	2b00      	cmp	r3, #0
 800548a:	d1d5      	bne.n	8005438 <prvAddNewTaskToReadyList+0x64>
 800548c:	682b      	ldr	r3, [r5, #0]
 800548e:	6ada      	ldr	r2, [r3, #44]	; 0x2c
 8005490:	6ae3      	ldr	r3, [r4, #44]	; 0x2c
 8005492:	429a      	cmp	r2, r3
 8005494:	bf98      	it	ls
 8005496:	602c      	strls	r4, [r5, #0]
 8005498:	e7ce      	b.n	8005438 <prvAddNewTaskToReadyList+0x64>
 800549a:	bf00      	nop
 800549c:	20000bbc 	.word	0x20000bbc
 80054a0:	20000750 	.word	0x20000750
 80054a4:	2000075c 	.word	0x2000075c
 80054a8:	20000be4 	.word	0x20000be4
 80054ac:	20000c04 	.word	0x20000c04
 80054b0:	20000c30 	.word	0x20000c30
 80054b4:	20000c1c 	.word	0x20000c1c
 80054b8:	20000754 	.word	0x20000754
 80054bc:	20000758 	.word	0x20000758
 80054c0:	20000bc8 	.word	0x20000bc8
 80054c4:	20000bcc 	.word	0x20000bcc
 80054c8:	20000c18 	.word	0x20000c18
 80054cc:	e000ed04 	.word	0xe000ed04
 80054d0:	20000bd0 	.word	0x20000bd0

080054d4 <prvResetNextTaskUnblockTime>:
 80054d4:	4a06      	ldr	r2, [pc, #24]	; (80054f0 <prvResetNextTaskUnblockTime+0x1c>)
 80054d6:	6813      	ldr	r3, [r2, #0]
 80054d8:	6819      	ldr	r1, [r3, #0]
 80054da:	4b06      	ldr	r3, [pc, #24]	; (80054f4 <prvResetNextTaskUnblockTime+0x20>)
 80054dc:	b919      	cbnz	r1, 80054e6 <prvResetNextTaskUnblockTime+0x12>
 80054de:	f04f 32ff 	mov.w	r2, #4294967295
 80054e2:	601a      	str	r2, [r3, #0]
 80054e4:	4770      	bx	lr
 80054e6:	6812      	ldr	r2, [r2, #0]
 80054e8:	68d2      	ldr	r2, [r2, #12]
 80054ea:	68d2      	ldr	r2, [r2, #12]
 80054ec:	6852      	ldr	r2, [r2, #4]
 80054ee:	e7f8      	b.n	80054e2 <prvResetNextTaskUnblockTime+0xe>
 80054f0:	20000754 	.word	0x20000754
 80054f4:	20000bf8 	.word	0x20000bf8

080054f8 <prvInitialiseNewTask.isra.0>:
 80054f8:	e92d 47f0 	stmdb	sp!, {r4, r5, r6, r7, r8, r9, sl, lr}
 80054fc:	e9dd 8409 	ldrd	r8, r4, [sp, #36]	; 0x24
 8005500:	ea4f 0982 	mov.w	r9, r2, lsl #2
 8005504:	464a      	mov	r2, r9
 8005506:	4606      	mov	r6, r0
 8005508:	460d      	mov	r5, r1
 800550a:	6b20      	ldr	r0, [r4, #48]	; 0x30
 800550c:	21a5      	movs	r1, #165	; 0xa5
 800550e:	461f      	mov	r7, r3
 8005510:	f001 fa44 	bl	800699c <memset>
 8005514:	6b22      	ldr	r2, [r4, #48]	; 0x30
 8005516:	f1a9 0904 	sub.w	r9, r9, #4
 800551a:	4491      	add	r9, r2
 800551c:	f029 0907 	bic.w	r9, r9, #7
 8005520:	b3ad      	cbz	r5, 800558e <prvInitialiseNewTask.isra.0+0x96>
 8005522:	1e6b      	subs	r3, r5, #1
 8005524:	f104 0234 	add.w	r2, r4, #52	; 0x34
 8005528:	350f      	adds	r5, #15
 800552a:	f813 1f01 	ldrb.w	r1, [r3, #1]!
 800552e:	f802 1b01 	strb.w	r1, [r2], #1
 8005532:	7819      	ldrb	r1, [r3, #0]
 8005534:	b109      	cbz	r1, 800553a <prvInitialiseNewTask.isra.0+0x42>
 8005536:	42ab      	cmp	r3, r5
 8005538:	d1f7      	bne.n	800552a <prvInitialiseNewTask.isra.0+0x32>
 800553a:	2300      	movs	r3, #0
 800553c:	f884 3043 	strb.w	r3, [r4, #67]	; 0x43
 8005540:	9d08      	ldr	r5, [sp, #32]
 8005542:	2d37      	cmp	r5, #55	; 0x37
 8005544:	bf28      	it	cs
 8005546:	2537      	movcs	r5, #55	; 0x37
 8005548:	f04f 0a00 	mov.w	sl, #0
 800554c:	62e5      	str	r5, [r4, #44]	; 0x2c
 800554e:	64e5      	str	r5, [r4, #76]	; 0x4c
 8005550:	1d20      	adds	r0, r4, #4
 8005552:	f8c4 a050 	str.w	sl, [r4, #80]	; 0x50
 8005556:	f7ff fc00 	bl	8004d5a <vListInitialiseItem>
 800555a:	f1c5 0538 	rsb	r5, r5, #56	; 0x38
 800555e:	f104 0018 	add.w	r0, r4, #24
 8005562:	f7ff fbfa 	bl	8004d5a <vListInitialiseItem>
 8005566:	f8c4 a054 	str.w	sl, [r4, #84]	; 0x54
 800556a:	6124      	str	r4, [r4, #16]
 800556c:	61a5      	str	r5, [r4, #24]
 800556e:	6264      	str	r4, [r4, #36]	; 0x24
 8005570:	f884 a058 	strb.w	sl, [r4, #88]	; 0x58
 8005574:	463a      	mov	r2, r7
 8005576:	4631      	mov	r1, r6
 8005578:	4648      	mov	r0, r9
 800557a:	f000 fdfb 	bl	8006174 <pxPortInitialiseStack>
 800557e:	6020      	str	r0, [r4, #0]
 8005580:	f1b8 0f00 	cmp.w	r8, #0
 8005584:	d001      	beq.n	800558a <prvInitialiseNewTask.isra.0+0x92>
 8005586:	f8c8 4000 	str.w	r4, [r8]
 800558a:	e8bd 87f0 	ldmia.w	sp!, {r4, r5, r6, r7, r8, r9, sl, pc}
 800558e:	f884 5034 	strb.w	r5, [r4, #52]	; 0x34
 8005592:	e7d5      	b.n	8005540 <prvInitialiseNewTask.isra.0+0x48>

08005594 <prvDeleteTCB>:
 8005594:	b510      	push	{r4, lr}
 8005596:	f890 3059 	ldrb.w	r3, [r0, #89]	; 0x59
 800559a:	4604      	mov	r4, r0
 800559c:	b93b      	cbnz	r3, 80055ae <prvDeleteTCB+0x1a>
 800559e:	6b00      	ldr	r0, [r0, #48]	; 0x30
 80055a0:	f001 f810 	bl	80065c4 <vPortFree>
 80055a4:	4620      	mov	r0, r4
 80055a6:	e8bd 4010 	ldmia.w	sp!, {r4, lr}
 80055aa:	f001 b80b 	b.w	80065c4 <vPortFree>
 80055ae:	2b01      	cmp	r3, #1
 80055b0:	d0f9      	beq.n	80055a6 <prvDeleteTCB+0x12>
 80055b2:	2b02      	cmp	r3, #2
 80055b4:	d008      	beq.n	80055c8 <prvDeleteTCB+0x34>
 80055b6:	f04f 0350 	mov.w	r3, #80	; 0x50
 80055ba:	f383 8811 	msr	BASEPRI, r3
 80055be:	f3bf 8f6f 	isb	sy
 80055c2:	f3bf 8f4f 	dsb	sy
 80055c6:	e7fe      	b.n	80055c6 <prvDeleteTCB+0x32>
 80055c8:	bd10      	pop	{r4, pc}
	...

080055cc <prvIdleTask>:
 80055cc:	b580      	push	{r7, lr}
 80055ce:	f8df 805c 	ldr.w	r8, [pc, #92]	; 800562c <prvIdleTask+0x60>
 80055d2:	4f12      	ldr	r7, [pc, #72]	; (800561c <prvIdleTask+0x50>)
 80055d4:	4c12      	ldr	r4, [pc, #72]	; (8005620 <prvIdleTask+0x54>)
 80055d6:	4d13      	ldr	r5, [pc, #76]	; (8005624 <prvIdleTask+0x58>)
 80055d8:	6823      	ldr	r3, [r4, #0]
 80055da:	b963      	cbnz	r3, 80055f6 <prvIdleTask+0x2a>
 80055dc:	4b12      	ldr	r3, [pc, #72]	; (8005628 <prvIdleTask+0x5c>)
 80055de:	681b      	ldr	r3, [r3, #0]
 80055e0:	2b01      	cmp	r3, #1
 80055e2:	d9f8      	bls.n	80055d6 <prvIdleTask+0xa>
 80055e4:	f04f 5380 	mov.w	r3, #268435456	; 0x10000000
 80055e8:	f8c8 3000 	str.w	r3, [r8]
 80055ec:	f3bf 8f4f 	dsb	sy
 80055f0:	f3bf 8f6f 	isb	sy
 80055f4:	e7ee      	b.n	80055d4 <prvIdleTask+0x8>
 80055f6:	f000 fde5 	bl	80061c4 <vPortEnterCritical>
 80055fa:	68fb      	ldr	r3, [r7, #12]
 80055fc:	68de      	ldr	r6, [r3, #12]
 80055fe:	1d30      	adds	r0, r6, #4
 8005600:	f7ff fbd1 	bl	8004da6 <uxListRemove>
 8005604:	682b      	ldr	r3, [r5, #0]
 8005606:	3b01      	subs	r3, #1
 8005608:	602b      	str	r3, [r5, #0]
 800560a:	6823      	ldr	r3, [r4, #0]
 800560c:	3b01      	subs	r3, #1
 800560e:	6023      	str	r3, [r4, #0]
 8005610:	f000 fdfa 	bl	8006208 <vPortExitCritical>
 8005614:	4630      	mov	r0, r6
 8005616:	f7ff ffbd 	bl	8005594 <prvDeleteTCB>
 800561a:	e7dd      	b.n	80055d8 <prvIdleTask+0xc>
 800561c:	20000c30 	.word	0x20000c30
 8005620:	20000bc0 	.word	0x20000bc0
 8005624:	20000bbc 	.word	0x20000bbc
 8005628:	2000075c 	.word	0x2000075c
 800562c:	e000ed04 	.word	0xe000ed04

08005630 <prvAddCurrentTaskToDelayedList>:
 8005630:	b5f8      	push	{r3, r4, r5, r6, r7, lr}
 8005632:	4b16      	ldr	r3, [pc, #88]	; (800568c <prvAddCurrentTaskToDelayedList+0x5c>)
 8005634:	4e16      	ldr	r6, [pc, #88]	; (8005690 <prvAddCurrentTaskToDelayedList+0x60>)
 8005636:	681d      	ldr	r5, [r3, #0]
 8005638:	4604      	mov	r4, r0
 800563a:	6830      	ldr	r0, [r6, #0]
 800563c:	3004      	adds	r0, #4
 800563e:	460f      	mov	r7, r1
 8005640:	f7ff fbb1 	bl	8004da6 <uxListRemove>
 8005644:	1c63      	adds	r3, r4, #1
 8005646:	4633      	mov	r3, r6
 8005648:	d107      	bne.n	800565a <prvAddCurrentTaskToDelayedList+0x2a>
 800564a:	b137      	cbz	r7, 800565a <prvAddCurrentTaskToDelayedList+0x2a>
 800564c:	6831      	ldr	r1, [r6, #0]
 800564e:	4811      	ldr	r0, [pc, #68]	; (8005694 <prvAddCurrentTaskToDelayedList+0x64>)
 8005650:	e8bd 40f8 	ldmia.w	sp!, {r3, r4, r5, r6, r7, lr}
 8005654:	3104      	adds	r1, #4
 8005656:	f7ff bb83 	b.w	8004d60 <vListInsertEnd>
 800565a:	681a      	ldr	r2, [r3, #0]
 800565c:	192c      	adds	r4, r5, r4
 800565e:	6054      	str	r4, [r2, #4]
 8005660:	d307      	bcc.n	8005672 <prvAddCurrentTaskToDelayedList+0x42>
 8005662:	4a0d      	ldr	r2, [pc, #52]	; (8005698 <prvAddCurrentTaskToDelayedList+0x68>)
 8005664:	6810      	ldr	r0, [r2, #0]
 8005666:	6819      	ldr	r1, [r3, #0]
 8005668:	e8bd 40f8 	ldmia.w	sp!, {r3, r4, r5, r6, r7, lr}
 800566c:	3104      	adds	r1, #4
 800566e:	f7ff bb83 	b.w	8004d78 <vListInsert>
 8005672:	4a0a      	ldr	r2, [pc, #40]	; (800569c <prvAddCurrentTaskToDelayedList+0x6c>)
 8005674:	6810      	ldr	r0, [r2, #0]
 8005676:	6819      	ldr	r1, [r3, #0]
 8005678:	3104      	adds	r1, #4
 800567a:	f7ff fb7d 	bl	8004d78 <vListInsert>
 800567e:	4b08      	ldr	r3, [pc, #32]	; (80056a0 <prvAddCurrentTaskToDelayedList+0x70>)
 8005680:	681a      	ldr	r2, [r3, #0]
 8005682:	42a2      	cmp	r2, r4
 8005684:	bf88      	it	hi
 8005686:	601c      	strhi	r4, [r3, #0]
 8005688:	bdf8      	pop	{r3, r4, r5, r6, r7, pc}
 800568a:	bf00      	nop
 800568c:	20000c44 	.word	0x20000c44
 8005690:	20000750 	.word	0x20000750
 8005694:	20000c1c 	.word	0x20000c1c
 8005698:	20000758 	.word	0x20000758
 800569c:	20000754 	.word	0x20000754
 80056a0:	20000bf8 	.word	0x20000bf8

080056a4 <xTaskCreateStatic>:
 80056a4:	b570      	push	{r4, r5, r6, lr}
 80056a6:	b086      	sub	sp, #24
 80056a8:	e9dd 540b 	ldrd	r5, r4, [sp, #44]	; 0x2c
 80056ac:	b945      	cbnz	r5, 80056c0 <xTaskCreateStatic+0x1c>
 80056ae:	f04f 0350 	mov.w	r3, #80	; 0x50
 80056b2:	f383 8811 	msr	BASEPRI, r3
 80056b6:	f3bf 8f6f 	isb	sy
 80056ba:	f3bf 8f4f 	dsb	sy
 80056be:	e7fe      	b.n	80056be <xTaskCreateStatic+0x1a>
 80056c0:	b944      	cbnz	r4, 80056d4 <xTaskCreateStatic+0x30>
 80056c2:	f04f 0350 	mov.w	r3, #80	; 0x50
 80056c6:	f383 8811 	msr	BASEPRI, r3
 80056ca:	f3bf 8f6f 	isb	sy
 80056ce:	f3bf 8f4f 	dsb	sy
 80056d2:	e7fe      	b.n	80056d2 <xTaskCreateStatic+0x2e>
 80056d4:	265c      	movs	r6, #92	; 0x5c
 80056d6:	9605      	str	r6, [sp, #20]
 80056d8:	9e05      	ldr	r6, [sp, #20]
 80056da:	2e5c      	cmp	r6, #92	; 0x5c
 80056dc:	d008      	beq.n	80056f0 <xTaskCreateStatic+0x4c>
 80056de:	f04f 0350 	mov.w	r3, #80	; 0x50
 80056e2:	f383 8811 	msr	BASEPRI, r3
 80056e6:	f3bf 8f6f 	isb	sy
 80056ea:	f3bf 8f4f 	dsb	sy
 80056ee:	e7fe      	b.n	80056ee <xTaskCreateStatic+0x4a>
 80056f0:	6325      	str	r5, [r4, #48]	; 0x30
 80056f2:	2502      	movs	r5, #2
 80056f4:	f884 5059 	strb.w	r5, [r4, #89]	; 0x59
 80056f8:	ad04      	add	r5, sp, #16
 80056fa:	9501      	str	r5, [sp, #4]
 80056fc:	9d0a      	ldr	r5, [sp, #40]	; 0x28
 80056fe:	9402      	str	r4, [sp, #8]
 8005700:	9500      	str	r5, [sp, #0]
 8005702:	9e05      	ldr	r6, [sp, #20]
 8005704:	f7ff fef8 	bl	80054f8 <prvInitialiseNewTask.isra.0>
 8005708:	4620      	mov	r0, r4
 800570a:	f7ff fe63 	bl	80053d4 <prvAddNewTaskToReadyList>
 800570e:	9804      	ldr	r0, [sp, #16]
 8005710:	b006      	add	sp, #24
 8005712:	bd70      	pop	{r4, r5, r6, pc}

08005714 <xTaskCreate>:
 8005714:	e92d 43f0 	stmdb	sp!, {r4, r5, r6, r7, r8, r9, lr}
 8005718:	4607      	mov	r7, r0
 800571a:	b085      	sub	sp, #20
 800571c:	0090      	lsls	r0, r2, #2
 800571e:	4688      	mov	r8, r1
 8005720:	4616      	mov	r6, r2
 8005722:	4699      	mov	r9, r3
 8005724:	f000 febc 	bl	80064a0 <pvPortMalloc>
 8005728:	4605      	mov	r5, r0
 800572a:	b1e8      	cbz	r0, 8005768 <xTaskCreate+0x54>
 800572c:	205c      	movs	r0, #92	; 0x5c
 800572e:	f000 feb7 	bl	80064a0 <pvPortMalloc>
 8005732:	4604      	mov	r4, r0
 8005734:	b1a8      	cbz	r0, 8005762 <xTaskCreate+0x4e>
 8005736:	2300      	movs	r3, #0
 8005738:	f880 3059 	strb.w	r3, [r0, #89]	; 0x59
 800573c:	9b0d      	ldr	r3, [sp, #52]	; 0x34
 800573e:	6305      	str	r5, [r0, #48]	; 0x30
 8005740:	9301      	str	r3, [sp, #4]
 8005742:	9b0c      	ldr	r3, [sp, #48]	; 0x30
 8005744:	9002      	str	r0, [sp, #8]
 8005746:	9300      	str	r3, [sp, #0]
 8005748:	4632      	mov	r2, r6
 800574a:	464b      	mov	r3, r9
 800574c:	4641      	mov	r1, r8
 800574e:	4638      	mov	r0, r7
 8005750:	f7ff fed2 	bl	80054f8 <prvInitialiseNewTask.isra.0>
 8005754:	4620      	mov	r0, r4
 8005756:	f7ff fe3d 	bl	80053d4 <prvAddNewTaskToReadyList>
 800575a:	2001      	movs	r0, #1
 800575c:	b005      	add	sp, #20
 800575e:	e8bd 83f0 	ldmia.w	sp!, {r4, r5, r6, r7, r8, r9, pc}
 8005762:	4628      	mov	r0, r5
 8005764:	f000 ff2e 	bl	80065c4 <vPortFree>
 8005768:	f04f 30ff 	mov.w	r0, #4294967295
 800576c:	e7f6      	b.n	800575c <xTaskCreate+0x48>
	...

08005770 <vTaskStartScheduler>:
 8005770:	b510      	push	{r4, lr}
 8005772:	b088      	sub	sp, #32
 8005774:	2400      	movs	r4, #0
 8005776:	aa07      	add	r2, sp, #28
 8005778:	a906      	add	r1, sp, #24
 800577a:	a805      	add	r0, sp, #20
 800577c:	e9cd 4405 	strd	r4, r4, [sp, #20]
 8005780:	f7ff fac8 	bl	8004d14 <vApplicationGetIdleTaskMemory>
 8005784:	9b05      	ldr	r3, [sp, #20]
 8005786:	9302      	str	r3, [sp, #8]
 8005788:	9b06      	ldr	r3, [sp, #24]
 800578a:	9a07      	ldr	r2, [sp, #28]
 800578c:	4915      	ldr	r1, [pc, #84]	; (80057e4 <vTaskStartScheduler+0x74>)
 800578e:	4816      	ldr	r0, [pc, #88]	; (80057e8 <vTaskStartScheduler+0x78>)
 8005790:	e9cd 4300 	strd	r4, r3, [sp]
 8005794:	4623      	mov	r3, r4
 8005796:	f7ff ff85 	bl	80056a4 <xTaskCreateStatic>
 800579a:	b1a8      	cbz	r0, 80057c8 <vTaskStartScheduler+0x58>
 800579c:	f000 fb14 	bl	8005dc8 <xTimerCreateTimerTask>
 80057a0:	2801      	cmp	r0, #1
 80057a2:	d113      	bne.n	80057cc <vTaskStartScheduler+0x5c>
 80057a4:	f04f 0350 	mov.w	r3, #80	; 0x50
 80057a8:	f383 8811 	msr	BASEPRI, r3
 80057ac:	f3bf 8f6f 	isb	sy
 80057b0:	f3bf 8f4f 	dsb	sy
 80057b4:	4b0d      	ldr	r3, [pc, #52]	; (80057ec <vTaskStartScheduler+0x7c>)
 80057b6:	f04f 32ff 	mov.w	r2, #4294967295
 80057ba:	601a      	str	r2, [r3, #0]
 80057bc:	4b0c      	ldr	r3, [pc, #48]	; (80057f0 <vTaskStartScheduler+0x80>)
 80057be:	6018      	str	r0, [r3, #0]
 80057c0:	4b0c      	ldr	r3, [pc, #48]	; (80057f4 <vTaskStartScheduler+0x84>)
 80057c2:	601c      	str	r4, [r3, #0]
 80057c4:	f000 fd96 	bl	80062f4 <xPortStartScheduler>
 80057c8:	b008      	add	sp, #32
 80057ca:	bd10      	pop	{r4, pc}
 80057cc:	3001      	adds	r0, #1
 80057ce:	d1fb      	bne.n	80057c8 <vTaskStartScheduler+0x58>
 80057d0:	f04f 0350 	mov.w	r3, #80	; 0x50
 80057d4:	f383 8811 	msr	BASEPRI, r3
 80057d8:	f3bf 8f6f 	isb	sy
 80057dc:	f3bf 8f4f 	dsb	sy
 80057e0:	e7fe      	b.n	80057e0 <vTaskStartScheduler+0x70>
 80057e2:	bf00      	nop
 80057e4:	080075f0 	.word	0x080075f0
 80057e8:	080055cd 	.word	0x080055cd
 80057ec:	20000bf8 	.word	0x20000bf8
 80057f0:	20000c18 	.word	0x20000c18
 80057f4:	20000c44 	.word	0x20000c44

080057f8 <vTaskSuspendAll>:
 80057f8:	4a02      	ldr	r2, [pc, #8]	; (8005804 <vTaskSuspendAll+0xc>)
 80057fa:	6813      	ldr	r3, [r2, #0]
 80057fc:	3301      	adds	r3, #1
 80057fe:	6013      	str	r3, [r2, #0]
 8005800:	4770      	bx	lr
 8005802:	bf00      	nop
 8005804:	20000bc4 	.word	0x20000bc4

08005808 <xTaskGetTickCount>:
 8005808:	4b01      	ldr	r3, [pc, #4]	; (8005810 <xTaskGetTickCount+0x8>)
 800580a:	6818      	ldr	r0, [r3, #0]
 800580c:	4770      	bx	lr
 800580e:	bf00      	nop
 8005810:	20000c44 	.word	0x20000c44

08005814 <xTaskIncrementTick>:
 8005814:	4b3f      	ldr	r3, [pc, #252]	; (8005914 <xTaskIncrementTick+0x100>)
 8005816:	681b      	ldr	r3, [r3, #0]
 8005818:	e92d 4ff7 	stmdb	sp!, {r0, r1, r2, r4, r5, r6, r7, r8, r9, sl, fp, lr}
 800581c:	2b00      	cmp	r3, #0
 800581e:	d173      	bne.n	8005908 <xTaskIncrementTick+0xf4>
 8005820:	4b3d      	ldr	r3, [pc, #244]	; (8005918 <xTaskIncrementTick+0x104>)
 8005822:	681d      	ldr	r5, [r3, #0]
 8005824:	3501      	adds	r5, #1
 8005826:	601d      	str	r5, [r3, #0]
 8005828:	b9bd      	cbnz	r5, 800585a <xTaskIncrementTick+0x46>
 800582a:	4b3c      	ldr	r3, [pc, #240]	; (800591c <xTaskIncrementTick+0x108>)
 800582c:	681a      	ldr	r2, [r3, #0]
 800582e:	6812      	ldr	r2, [r2, #0]
 8005830:	b142      	cbz	r2, 8005844 <xTaskIncrementTick+0x30>
 8005832:	f04f 0350 	mov.w	r3, #80	; 0x50
 8005836:	f383 8811 	msr	BASEPRI, r3
 800583a:	f3bf 8f6f 	isb	sy
 800583e:	f3bf 8f4f 	dsb	sy
 8005842:	e7fe      	b.n	8005842 <xTaskIncrementTick+0x2e>
 8005844:	4a36      	ldr	r2, [pc, #216]	; (8005920 <xTaskIncrementTick+0x10c>)
 8005846:	6819      	ldr	r1, [r3, #0]
 8005848:	6810      	ldr	r0, [r2, #0]
 800584a:	6018      	str	r0, [r3, #0]
 800584c:	6011      	str	r1, [r2, #0]
 800584e:	4a35      	ldr	r2, [pc, #212]	; (8005924 <xTaskIncrementTick+0x110>)
 8005850:	6813      	ldr	r3, [r2, #0]
 8005852:	3301      	adds	r3, #1
 8005854:	6013      	str	r3, [r2, #0]
 8005856:	f7ff fe3d 	bl	80054d4 <prvResetNextTaskUnblockTime>
 800585a:	4e33      	ldr	r6, [pc, #204]	; (8005928 <xTaskIncrementTick+0x114>)
 800585c:	4f33      	ldr	r7, [pc, #204]	; (800592c <xTaskIncrementTick+0x118>)
 800585e:	6833      	ldr	r3, [r6, #0]
 8005860:	f8df 80d4 	ldr.w	r8, [pc, #212]	; 8005938 <xTaskIncrementTick+0x124>
 8005864:	429d      	cmp	r5, r3
 8005866:	f04f 0400 	mov.w	r4, #0
 800586a:	d211      	bcs.n	8005890 <xTaskIncrementTick+0x7c>
 800586c:	f8d8 3000 	ldr.w	r3, [r8]
 8005870:	6ada      	ldr	r2, [r3, #44]	; 0x2c
 8005872:	2314      	movs	r3, #20
 8005874:	4353      	muls	r3, r2
 8005876:	58fb      	ldr	r3, [r7, r3]
 8005878:	2b02      	cmp	r3, #2
 800587a:	4b2d      	ldr	r3, [pc, #180]	; (8005930 <xTaskIncrementTick+0x11c>)
 800587c:	681b      	ldr	r3, [r3, #0]
 800587e:	bf28      	it	cs
 8005880:	2401      	movcs	r4, #1
 8005882:	2b00      	cmp	r3, #0
 8005884:	bf18      	it	ne
 8005886:	2401      	movne	r4, #1
 8005888:	4620      	mov	r0, r4
 800588a:	b003      	add	sp, #12
 800588c:	e8bd 8ff0 	ldmia.w	sp!, {r4, r5, r6, r7, r8, r9, sl, fp, pc}
 8005890:	f8df 9088 	ldr.w	r9, [pc, #136]	; 800591c <xTaskIncrementTick+0x108>
 8005894:	f8df a0a4 	ldr.w	sl, [pc, #164]	; 800593c <xTaskIncrementTick+0x128>
 8005898:	f8d9 3000 	ldr.w	r3, [r9]
 800589c:	681b      	ldr	r3, [r3, #0]
 800589e:	b91b      	cbnz	r3, 80058a8 <xTaskIncrementTick+0x94>
 80058a0:	f04f 33ff 	mov.w	r3, #4294967295
 80058a4:	6033      	str	r3, [r6, #0]
 80058a6:	e7e1      	b.n	800586c <xTaskIncrementTick+0x58>
 80058a8:	f8d9 3000 	ldr.w	r3, [r9]
 80058ac:	68db      	ldr	r3, [r3, #12]
 80058ae:	f8d3 b00c 	ldr.w	fp, [r3, #12]
 80058b2:	f8db 2004 	ldr.w	r2, [fp, #4]
 80058b6:	4295      	cmp	r5, r2
 80058b8:	d201      	bcs.n	80058be <xTaskIncrementTick+0xaa>
 80058ba:	6032      	str	r2, [r6, #0]
 80058bc:	e7d6      	b.n	800586c <xTaskIncrementTick+0x58>
 80058be:	f10b 0104 	add.w	r1, fp, #4
 80058c2:	4608      	mov	r0, r1
 80058c4:	9101      	str	r1, [sp, #4]
 80058c6:	f7ff fa6e 	bl	8004da6 <uxListRemove>
 80058ca:	f8db 2028 	ldr.w	r2, [fp, #40]	; 0x28
 80058ce:	9901      	ldr	r1, [sp, #4]
 80058d0:	b122      	cbz	r2, 80058dc <xTaskIncrementTick+0xc8>
 80058d2:	f10b 0018 	add.w	r0, fp, #24
 80058d6:	f7ff fa66 	bl	8004da6 <uxListRemove>
 80058da:	9901      	ldr	r1, [sp, #4]
 80058dc:	f8db 002c 	ldr.w	r0, [fp, #44]	; 0x2c
 80058e0:	f8da 2000 	ldr.w	r2, [sl]
 80058e4:	2314      	movs	r3, #20
 80058e6:	4290      	cmp	r0, r2
 80058e8:	bf88      	it	hi
 80058ea:	f8ca 0000 	strhi.w	r0, [sl]
 80058ee:	fb03 7000 	mla	r0, r3, r0, r7
 80058f2:	f7ff fa35 	bl	8004d60 <vListInsertEnd>
 80058f6:	f8d8 1000 	ldr.w	r1, [r8]
 80058fa:	f8db 202c 	ldr.w	r2, [fp, #44]	; 0x2c
 80058fe:	6acb      	ldr	r3, [r1, #44]	; 0x2c
 8005900:	429a      	cmp	r2, r3
 8005902:	bf28      	it	cs
 8005904:	2401      	movcs	r4, #1
 8005906:	e7c7      	b.n	8005898 <xTaskIncrementTick+0x84>
 8005908:	4a0a      	ldr	r2, [pc, #40]	; (8005934 <xTaskIncrementTick+0x120>)
 800590a:	6813      	ldr	r3, [r2, #0]
 800590c:	3301      	adds	r3, #1
 800590e:	6013      	str	r3, [r2, #0]
 8005910:	2400      	movs	r4, #0
 8005912:	e7b9      	b.n	8005888 <xTaskIncrementTick+0x74>
 8005914:	20000bc4 	.word	0x20000bc4
 8005918:	20000c44 	.word	0x20000c44
 800591c:	20000754 	.word	0x20000754
 8005920:	20000758 	.word	0x20000758
 8005924:	20000bfc 	.word	0x20000bfc
 8005928:	20000bf8 	.word	0x20000bf8
 800592c:	2000075c 	.word	0x2000075c
 8005930:	20000c48 	.word	0x20000c48
 8005934:	20000c00 	.word	0x20000c00
 8005938:	20000750 	.word	0x20000750
 800593c:	20000bcc 	.word	0x20000bcc

08005940 <xTaskResumeAll>:
 8005940:	b5f7      	push	{r0, r1, r2, r4, r5, r6, r7, lr}
 8005942:	4c30      	ldr	r4, [pc, #192]	; (8005a04 <xTaskResumeAll+0xc4>)
 8005944:	6823      	ldr	r3, [r4, #0]
 8005946:	b943      	cbnz	r3, 800595a <xTaskResumeAll+0x1a>
 8005948:	f04f 0350 	mov.w	r3, #80	; 0x50
 800594c:	f383 8811 	msr	BASEPRI, r3
 8005950:	f3bf 8f6f 	isb	sy
 8005954:	f3bf 8f4f 	dsb	sy
 8005958:	e7fe      	b.n	8005958 <xTaskResumeAll+0x18>
 800595a:	f000 fc33 	bl	80061c4 <vPortEnterCritical>
 800595e:	6823      	ldr	r3, [r4, #0]
 8005960:	3b01      	subs	r3, #1
 8005962:	6023      	str	r3, [r4, #0]
 8005964:	6824      	ldr	r4, [r4, #0]
 8005966:	b12c      	cbz	r4, 8005974 <xTaskResumeAll+0x34>
 8005968:	2400      	movs	r4, #0
 800596a:	f000 fc4d 	bl	8006208 <vPortExitCritical>
 800596e:	4620      	mov	r0, r4
 8005970:	b003      	add	sp, #12
 8005972:	bdf0      	pop	{r4, r5, r6, r7, pc}
 8005974:	4b24      	ldr	r3, [pc, #144]	; (8005a08 <xTaskResumeAll+0xc8>)
 8005976:	681b      	ldr	r3, [r3, #0]
 8005978:	2b00      	cmp	r3, #0
 800597a:	d0f5      	beq.n	8005968 <xTaskResumeAll+0x28>
 800597c:	4d23      	ldr	r5, [pc, #140]	; (8005a0c <xTaskResumeAll+0xcc>)
 800597e:	4e24      	ldr	r6, [pc, #144]	; (8005a10 <xTaskResumeAll+0xd0>)
 8005980:	4f24      	ldr	r7, [pc, #144]	; (8005a14 <xTaskResumeAll+0xd4>)
 8005982:	e01e      	b.n	80059c2 <xTaskResumeAll+0x82>
 8005984:	68eb      	ldr	r3, [r5, #12]
 8005986:	68dc      	ldr	r4, [r3, #12]
 8005988:	f104 0018 	add.w	r0, r4, #24
 800598c:	f7ff fa0b 	bl	8004da6 <uxListRemove>
 8005990:	1d21      	adds	r1, r4, #4
 8005992:	4608      	mov	r0, r1
 8005994:	9101      	str	r1, [sp, #4]
 8005996:	f7ff fa06 	bl	8004da6 <uxListRemove>
 800599a:	6ae3      	ldr	r3, [r4, #44]	; 0x2c
 800599c:	6832      	ldr	r2, [r6, #0]
 800599e:	9901      	ldr	r1, [sp, #4]
 80059a0:	2014      	movs	r0, #20
 80059a2:	4293      	cmp	r3, r2
 80059a4:	fb00 7003 	mla	r0, r0, r3, r7
 80059a8:	bf88      	it	hi
 80059aa:	6033      	strhi	r3, [r6, #0]
 80059ac:	f7ff f9d8 	bl	8004d60 <vListInsertEnd>
 80059b0:	4b19      	ldr	r3, [pc, #100]	; (8005a18 <xTaskResumeAll+0xd8>)
 80059b2:	6ae2      	ldr	r2, [r4, #44]	; 0x2c
 80059b4:	681b      	ldr	r3, [r3, #0]
 80059b6:	6adb      	ldr	r3, [r3, #44]	; 0x2c
 80059b8:	429a      	cmp	r2, r3
 80059ba:	d302      	bcc.n	80059c2 <xTaskResumeAll+0x82>
 80059bc:	4b17      	ldr	r3, [pc, #92]	; (8005a1c <xTaskResumeAll+0xdc>)
 80059be:	2201      	movs	r2, #1
 80059c0:	601a      	str	r2, [r3, #0]
 80059c2:	682b      	ldr	r3, [r5, #0]
 80059c4:	2b00      	cmp	r3, #0
 80059c6:	d1dd      	bne.n	8005984 <xTaskResumeAll+0x44>
 80059c8:	b10c      	cbz	r4, 80059ce <xTaskResumeAll+0x8e>
 80059ca:	f7ff fd83 	bl	80054d4 <prvResetNextTaskUnblockTime>
 80059ce:	4d14      	ldr	r5, [pc, #80]	; (8005a20 <xTaskResumeAll+0xe0>)
 80059d0:	682c      	ldr	r4, [r5, #0]
 80059d2:	b144      	cbz	r4, 80059e6 <xTaskResumeAll+0xa6>
 80059d4:	4e11      	ldr	r6, [pc, #68]	; (8005a1c <xTaskResumeAll+0xdc>)
 80059d6:	2701      	movs	r7, #1
 80059d8:	f7ff ff1c 	bl	8005814 <xTaskIncrementTick>
 80059dc:	b100      	cbz	r0, 80059e0 <xTaskResumeAll+0xa0>
 80059de:	6037      	str	r7, [r6, #0]
 80059e0:	3c01      	subs	r4, #1
 80059e2:	d1f9      	bne.n	80059d8 <xTaskResumeAll+0x98>
 80059e4:	602c      	str	r4, [r5, #0]
 80059e6:	4b0d      	ldr	r3, [pc, #52]	; (8005a1c <xTaskResumeAll+0xdc>)
 80059e8:	681b      	ldr	r3, [r3, #0]
 80059ea:	2b00      	cmp	r3, #0
 80059ec:	d0bc      	beq.n	8005968 <xTaskResumeAll+0x28>
 80059ee:	4b0d      	ldr	r3, [pc, #52]	; (8005a24 <xTaskResumeAll+0xe4>)
 80059f0:	f04f 5280 	mov.w	r2, #268435456	; 0x10000000
 80059f4:	601a      	str	r2, [r3, #0]
 80059f6:	f3bf 8f4f 	dsb	sy
 80059fa:	f3bf 8f6f 	isb	sy
 80059fe:	2401      	movs	r4, #1
 8005a00:	e7b3      	b.n	800596a <xTaskResumeAll+0x2a>
 8005a02:	bf00      	nop
 8005a04:	20000bc4 	.word	0x20000bc4
 8005a08:	20000bbc 	.word	0x20000bbc
 8005a0c:	20000c04 	.word	0x20000c04
 8005a10:	20000bcc 	.word	0x20000bcc
 8005a14:	2000075c 	.word	0x2000075c
 8005a18:	20000750 	.word	0x20000750
 8005a1c:	20000c48 	.word	0x20000c48
 8005a20:	20000c00 	.word	0x20000c00
 8005a24:	e000ed04 	.word	0xe000ed04

08005a28 <vTaskDelay>:
 8005a28:	b508      	push	{r3, lr}
 8005a2a:	b940      	cbnz	r0, 8005a3e <vTaskDelay+0x16>
 8005a2c:	4b0e      	ldr	r3, [pc, #56]	; (8005a68 <vTaskDelay+0x40>)
 8005a2e:	f04f 5280 	mov.w	r2, #268435456	; 0x10000000
 8005a32:	601a      	str	r2, [r3, #0]
 8005a34:	f3bf 8f4f 	dsb	sy
 8005a38:	f3bf 8f6f 	isb	sy
 8005a3c:	bd08      	pop	{r3, pc}
 8005a3e:	4b0b      	ldr	r3, [pc, #44]	; (8005a6c <vTaskDelay+0x44>)
 8005a40:	6819      	ldr	r1, [r3, #0]
 8005a42:	b141      	cbz	r1, 8005a56 <vTaskDelay+0x2e>
 8005a44:	f04f 0350 	mov.w	r3, #80	; 0x50
 8005a48:	f383 8811 	msr	BASEPRI, r3
 8005a4c:	f3bf 8f6f 	isb	sy
 8005a50:	f3bf 8f4f 	dsb	sy
 8005a54:	e7fe      	b.n	8005a54 <vTaskDelay+0x2c>
 8005a56:	f7ff fecf 	bl	80057f8 <vTaskSuspendAll>
 8005a5a:	f7ff fde9 	bl	8005630 <prvAddCurrentTaskToDelayedList>
 8005a5e:	f7ff ff6f 	bl	8005940 <xTaskResumeAll>
 8005a62:	2800      	cmp	r0, #0
 8005a64:	d0e2      	beq.n	8005a2c <vTaskDelay+0x4>
 8005a66:	e7e9      	b.n	8005a3c <vTaskDelay+0x14>
 8005a68:	e000ed04 	.word	0xe000ed04
 8005a6c:	20000bc4 	.word	0x20000bc4

08005a70 <vTaskSwitchContext>:
 8005a70:	4b18      	ldr	r3, [pc, #96]	; (8005ad4 <vTaskSwitchContext+0x64>)
 8005a72:	681a      	ldr	r2, [r3, #0]
 8005a74:	4b18      	ldr	r3, [pc, #96]	; (8005ad8 <vTaskSwitchContext+0x68>)
 8005a76:	b5f0      	push	{r4, r5, r6, r7, lr}
 8005a78:	b112      	cbz	r2, 8005a80 <vTaskSwitchContext+0x10>
 8005a7a:	2201      	movs	r2, #1
 8005a7c:	601a      	str	r2, [r3, #0]
 8005a7e:	bdf0      	pop	{r4, r5, r6, r7, pc}
 8005a80:	4d16      	ldr	r5, [pc, #88]	; (8005adc <vTaskSwitchContext+0x6c>)
 8005a82:	601a      	str	r2, [r3, #0]
 8005a84:	4a16      	ldr	r2, [pc, #88]	; (8005ae0 <vTaskSwitchContext+0x70>)
 8005a86:	682b      	ldr	r3, [r5, #0]
 8005a88:	2714      	movs	r7, #20
 8005a8a:	4616      	mov	r6, r2
 8005a8c:	fb07 f103 	mul.w	r1, r7, r3
 8005a90:	1850      	adds	r0, r2, r1
 8005a92:	5854      	ldr	r4, [r2, r1]
 8005a94:	b18c      	cbz	r4, 8005aba <vTaskSwitchContext+0x4a>
 8005a96:	6844      	ldr	r4, [r0, #4]
 8005a98:	3108      	adds	r1, #8
 8005a9a:	6864      	ldr	r4, [r4, #4]
 8005a9c:	6044      	str	r4, [r0, #4]
 8005a9e:	440a      	add	r2, r1
 8005aa0:	4294      	cmp	r4, r2
 8005aa2:	bf04      	itt	eq
 8005aa4:	6862      	ldreq	r2, [r4, #4]
 8005aa6:	6042      	streq	r2, [r0, #4]
 8005aa8:	2214      	movs	r2, #20
 8005aaa:	fb02 6203 	mla	r2, r2, r3, r6
 8005aae:	6852      	ldr	r2, [r2, #4]
 8005ab0:	68d1      	ldr	r1, [r2, #12]
 8005ab2:	4a0c      	ldr	r2, [pc, #48]	; (8005ae4 <vTaskSwitchContext+0x74>)
 8005ab4:	6011      	str	r1, [r2, #0]
 8005ab6:	602b      	str	r3, [r5, #0]
 8005ab8:	e7e1      	b.n	8005a7e <vTaskSwitchContext+0xe>
 8005aba:	b943      	cbnz	r3, 8005ace <vTaskSwitchContext+0x5e>
 8005abc:	f04f 0350 	mov.w	r3, #80	; 0x50
 8005ac0:	f383 8811 	msr	BASEPRI, r3
 8005ac4:	f3bf 8f6f 	isb	sy
 8005ac8:	f3bf 8f4f 	dsb	sy
 8005acc:	e7fe      	b.n	8005acc <vTaskSwitchContext+0x5c>
 8005ace:	3b01      	subs	r3, #1
 8005ad0:	e7dc      	b.n	8005a8c <vTaskSwitchContext+0x1c>
 8005ad2:	bf00      	nop
 8005ad4:	20000bc4 	.word	0x20000bc4
 8005ad8:	20000c48 	.word	0x20000c48
 8005adc:	20000bcc 	.word	0x20000bcc
 8005ae0:	2000075c 	.word	0x2000075c
 8005ae4:	20000750 	.word	0x20000750

08005ae8 <vTaskPlaceOnEventList>:
 8005ae8:	b510      	push	{r4, lr}
 8005aea:	460c      	mov	r4, r1
 8005aec:	b940      	cbnz	r0, 8005b00 <vTaskPlaceOnEventList+0x18>
 8005aee:	f04f 0350 	mov.w	r3, #80	; 0x50
 8005af2:	f383 8811 	msr	BASEPRI, r3
 8005af6:	f3bf 8f6f 	isb	sy
 8005afa:	f3bf 8f4f 	dsb	sy
 8005afe:	e7fe      	b.n	8005afe <vTaskPlaceOnEventList+0x16>
 8005b00:	4b05      	ldr	r3, [pc, #20]	; (8005b18 <vTaskPlaceOnEventList+0x30>)
 8005b02:	6819      	ldr	r1, [r3, #0]
 8005b04:	3118      	adds	r1, #24
 8005b06:	f7ff f937 	bl	8004d78 <vListInsert>
 8005b0a:	4620      	mov	r0, r4
 8005b0c:	2101      	movs	r1, #1
 8005b0e:	e8bd 4010 	ldmia.w	sp!, {r4, lr}
 8005b12:	f7ff bd8d 	b.w	8005630 <prvAddCurrentTaskToDelayedList>
 8005b16:	bf00      	nop
 8005b18:	20000750 	.word	0x20000750

08005b1c <vTaskPlaceOnEventListRestricted>:
 8005b1c:	b538      	push	{r3, r4, r5, lr}
 8005b1e:	460d      	mov	r5, r1
 8005b20:	4614      	mov	r4, r2
 8005b22:	b940      	cbnz	r0, 8005b36 <vTaskPlaceOnEventListRestricted+0x1a>
 8005b24:	f04f 0350 	mov.w	r3, #80	; 0x50
 8005b28:	f383 8811 	msr	BASEPRI, r3
 8005b2c:	f3bf 8f6f 	isb	sy
 8005b30:	f3bf 8f4f 	dsb	sy
 8005b34:	e7fe      	b.n	8005b34 <vTaskPlaceOnEventListRestricted+0x18>
 8005b36:	4b07      	ldr	r3, [pc, #28]	; (8005b54 <vTaskPlaceOnEventListRestricted+0x38>)
 8005b38:	6819      	ldr	r1, [r3, #0]
 8005b3a:	3118      	adds	r1, #24
 8005b3c:	f7ff f910 	bl	8004d60 <vListInsertEnd>
 8005b40:	2c00      	cmp	r4, #0
 8005b42:	4621      	mov	r1, r4
 8005b44:	bf0c      	ite	eq
 8005b46:	4628      	moveq	r0, r5
 8005b48:	f04f 30ff 	movne.w	r0, #4294967295
 8005b4c:	e8bd 4038 	ldmia.w	sp!, {r3, r4, r5, lr}
 8005b50:	f7ff bd6e 	b.w	8005630 <prvAddCurrentTaskToDelayedList>
 8005b54:	20000750 	.word	0x20000750

08005b58 <xTaskRemoveFromEventList>:
 8005b58:	68c3      	ldr	r3, [r0, #12]
 8005b5a:	b513      	push	{r0, r1, r4, lr}
 8005b5c:	68dc      	ldr	r4, [r3, #12]
 8005b5e:	b944      	cbnz	r4, 8005b72 <xTaskRemoveFromEventList+0x1a>
 8005b60:	f04f 0350 	mov.w	r3, #80	; 0x50
 8005b64:	f383 8811 	msr	BASEPRI, r3
 8005b68:	f3bf 8f6f 	isb	sy
 8005b6c:	f3bf 8f4f 	dsb	sy
 8005b70:	e7fe      	b.n	8005b70 <xTaskRemoveFromEventList+0x18>
 8005b72:	f104 0118 	add.w	r1, r4, #24
 8005b76:	4608      	mov	r0, r1
 8005b78:	9101      	str	r1, [sp, #4]
 8005b7a:	f7ff f914 	bl	8004da6 <uxListRemove>
 8005b7e:	4b12      	ldr	r3, [pc, #72]	; (8005bc8 <xTaskRemoveFromEventList+0x70>)
 8005b80:	9901      	ldr	r1, [sp, #4]
 8005b82:	681b      	ldr	r3, [r3, #0]
 8005b84:	b9eb      	cbnz	r3, 8005bc2 <xTaskRemoveFromEventList+0x6a>
 8005b86:	1d21      	adds	r1, r4, #4
 8005b88:	4608      	mov	r0, r1
 8005b8a:	9101      	str	r1, [sp, #4]
 8005b8c:	f7ff f90b 	bl	8004da6 <uxListRemove>
 8005b90:	4a0e      	ldr	r2, [pc, #56]	; (8005bcc <xTaskRemoveFromEventList+0x74>)
 8005b92:	6ae3      	ldr	r3, [r4, #44]	; 0x2c
 8005b94:	6810      	ldr	r0, [r2, #0]
 8005b96:	9901      	ldr	r1, [sp, #4]
 8005b98:	4283      	cmp	r3, r0
 8005b9a:	bf88      	it	hi
 8005b9c:	6013      	strhi	r3, [r2, #0]
 8005b9e:	4a0c      	ldr	r2, [pc, #48]	; (8005bd0 <xTaskRemoveFromEventList+0x78>)
 8005ba0:	2014      	movs	r0, #20
 8005ba2:	fb00 2003 	mla	r0, r0, r3, r2
 8005ba6:	f7ff f8db 	bl	8004d60 <vListInsertEnd>
 8005baa:	4b0a      	ldr	r3, [pc, #40]	; (8005bd4 <xTaskRemoveFromEventList+0x7c>)
 8005bac:	6ae2      	ldr	r2, [r4, #44]	; 0x2c
 8005bae:	681b      	ldr	r3, [r3, #0]
 8005bb0:	6adb      	ldr	r3, [r3, #44]	; 0x2c
 8005bb2:	429a      	cmp	r2, r3
 8005bb4:	bf85      	ittet	hi
 8005bb6:	4b08      	ldrhi	r3, [pc, #32]	; (8005bd8 <xTaskRemoveFromEventList+0x80>)
 8005bb8:	2001      	movhi	r0, #1
 8005bba:	2000      	movls	r0, #0
 8005bbc:	6018      	strhi	r0, [r3, #0]
 8005bbe:	b002      	add	sp, #8
 8005bc0:	bd10      	pop	{r4, pc}
 8005bc2:	4806      	ldr	r0, [pc, #24]	; (8005bdc <xTaskRemoveFromEventList+0x84>)
 8005bc4:	e7ef      	b.n	8005ba6 <xTaskRemoveFromEventList+0x4e>
 8005bc6:	bf00      	nop
 8005bc8:	20000bc4 	.word	0x20000bc4
 8005bcc:	20000bcc 	.word	0x20000bcc
 8005bd0:	2000075c 	.word	0x2000075c
 8005bd4:	20000750 	.word	0x20000750
 8005bd8:	20000c48 	.word	0x20000c48
 8005bdc:	20000c04 	.word	0x20000c04

08005be0 <vTaskInternalSetTimeOutState>:
 8005be0:	4b03      	ldr	r3, [pc, #12]	; (8005bf0 <vTaskInternalSetTimeOutState+0x10>)
 8005be2:	681b      	ldr	r3, [r3, #0]
 8005be4:	6003      	str	r3, [r0, #0]
 8005be6:	4b03      	ldr	r3, [pc, #12]	; (8005bf4 <vTaskInternalSetTimeOutState+0x14>)
 8005be8:	681b      	ldr	r3, [r3, #0]
 8005bea:	6043      	str	r3, [r0, #4]
 8005bec:	4770      	bx	lr
 8005bee:	bf00      	nop
 8005bf0:	20000bfc 	.word	0x20000bfc
 8005bf4:	20000c44 	.word	0x20000c44

08005bf8 <xTaskCheckForTimeOut>:
 8005bf8:	b570      	push	{r4, r5, r6, lr}
 8005bfa:	460c      	mov	r4, r1
 8005bfc:	4605      	mov	r5, r0
 8005bfe:	b940      	cbnz	r0, 8005c12 <xTaskCheckForTimeOut+0x1a>
 8005c00:	f04f 0350 	mov.w	r3, #80	; 0x50
 8005c04:	f383 8811 	msr	BASEPRI, r3
 8005c08:	f3bf 8f6f 	isb	sy
 8005c0c:	f3bf 8f4f 	dsb	sy
 8005c10:	e7fe      	b.n	8005c10 <xTaskCheckForTimeOut+0x18>
 8005c12:	b941      	cbnz	r1, 8005c26 <xTaskCheckForTimeOut+0x2e>
 8005c14:	f04f 0350 	mov.w	r3, #80	; 0x50
 8005c18:	f383 8811 	msr	BASEPRI, r3
 8005c1c:	f3bf 8f6f 	isb	sy
 8005c20:	f3bf 8f4f 	dsb	sy
 8005c24:	e7fe      	b.n	8005c24 <xTaskCheckForTimeOut+0x2c>
 8005c26:	f000 facd 	bl	80061c4 <vPortEnterCritical>
 8005c2a:	4b0f      	ldr	r3, [pc, #60]	; (8005c68 <xTaskCheckForTimeOut+0x70>)
 8005c2c:	6819      	ldr	r1, [r3, #0]
 8005c2e:	6823      	ldr	r3, [r4, #0]
 8005c30:	1c5a      	adds	r2, r3, #1
 8005c32:	d010      	beq.n	8005c56 <xTaskCheckForTimeOut+0x5e>
 8005c34:	480d      	ldr	r0, [pc, #52]	; (8005c6c <xTaskCheckForTimeOut+0x74>)
 8005c36:	682e      	ldr	r6, [r5, #0]
 8005c38:	6800      	ldr	r0, [r0, #0]
 8005c3a:	686a      	ldr	r2, [r5, #4]
 8005c3c:	4286      	cmp	r6, r0
 8005c3e:	d001      	beq.n	8005c44 <xTaskCheckForTimeOut+0x4c>
 8005c40:	428a      	cmp	r2, r1
 8005c42:	d90f      	bls.n	8005c64 <xTaskCheckForTimeOut+0x6c>
 8005c44:	1a88      	subs	r0, r1, r2
 8005c46:	4283      	cmp	r3, r0
 8005c48:	d90a      	bls.n	8005c60 <xTaskCheckForTimeOut+0x68>
 8005c4a:	1a5b      	subs	r3, r3, r1
 8005c4c:	4413      	add	r3, r2
 8005c4e:	6023      	str	r3, [r4, #0]
 8005c50:	4628      	mov	r0, r5
 8005c52:	f7ff ffc5 	bl	8005be0 <vTaskInternalSetTimeOutState>
 8005c56:	2400      	movs	r4, #0
 8005c58:	f000 fad6 	bl	8006208 <vPortExitCritical>
 8005c5c:	4620      	mov	r0, r4
 8005c5e:	bd70      	pop	{r4, r5, r6, pc}
 8005c60:	2300      	movs	r3, #0
 8005c62:	6023      	str	r3, [r4, #0]
 8005c64:	2401      	movs	r4, #1
 8005c66:	e7f7      	b.n	8005c58 <xTaskCheckForTimeOut+0x60>
 8005c68:	20000c44 	.word	0x20000c44
 8005c6c:	20000bfc 	.word	0x20000bfc

08005c70 <vTaskMissedYield>:
 8005c70:	4b01      	ldr	r3, [pc, #4]	; (8005c78 <vTaskMissedYield+0x8>)
 8005c72:	2201      	movs	r2, #1
 8005c74:	601a      	str	r2, [r3, #0]
 8005c76:	4770      	bx	lr
 8005c78:	20000c48 	.word	0x20000c48

08005c7c <xTaskGetSchedulerState>:
 8005c7c:	4b05      	ldr	r3, [pc, #20]	; (8005c94 <xTaskGetSchedulerState+0x18>)
 8005c7e:	681b      	ldr	r3, [r3, #0]
 8005c80:	b133      	cbz	r3, 8005c90 <xTaskGetSchedulerState+0x14>
 8005c82:	4b05      	ldr	r3, [pc, #20]	; (8005c98 <xTaskGetSchedulerState+0x1c>)
 8005c84:	681b      	ldr	r3, [r3, #0]
 8005c86:	2b00      	cmp	r3, #0
 8005c88:	bf0c      	ite	eq
 8005c8a:	2002      	moveq	r0, #2
 8005c8c:	2000      	movne	r0, #0
 8005c8e:	4770      	bx	lr
 8005c90:	2001      	movs	r0, #1
 8005c92:	4770      	bx	lr
 8005c94:	20000c18 	.word	0x20000c18
 8005c98:	20000bc4 	.word	0x20000bc4

08005c9c <xTaskPriorityDisinherit>:
 8005c9c:	b513      	push	{r0, r1, r4, lr}
 8005c9e:	b910      	cbnz	r0, 8005ca6 <xTaskPriorityDisinherit+0xa>
 8005ca0:	2000      	movs	r0, #0
 8005ca2:	b002      	add	sp, #8
 8005ca4:	bd10      	pop	{r4, pc}
 8005ca6:	4b1c      	ldr	r3, [pc, #112]	; (8005d18 <xTaskPriorityDisinherit+0x7c>)
 8005ca8:	681c      	ldr	r4, [r3, #0]
 8005caa:	4284      	cmp	r4, r0
 8005cac:	d008      	beq.n	8005cc0 <xTaskPriorityDisinherit+0x24>
 8005cae:	f04f 0350 	mov.w	r3, #80	; 0x50
 8005cb2:	f383 8811 	msr	BASEPRI, r3
 8005cb6:	f3bf 8f6f 	isb	sy
 8005cba:	f3bf 8f4f 	dsb	sy
 8005cbe:	e7fe      	b.n	8005cbe <xTaskPriorityDisinherit+0x22>
 8005cc0:	6d23      	ldr	r3, [r4, #80]	; 0x50
 8005cc2:	b943      	cbnz	r3, 8005cd6 <xTaskPriorityDisinherit+0x3a>
 8005cc4:	f04f 0350 	mov.w	r3, #80	; 0x50
 8005cc8:	f383 8811 	msr	BASEPRI, r3
 8005ccc:	f3bf 8f6f 	isb	sy
 8005cd0:	f3bf 8f4f 	dsb	sy
 8005cd4:	e7fe      	b.n	8005cd4 <xTaskPriorityDisinherit+0x38>
 8005cd6:	6ae1      	ldr	r1, [r4, #44]	; 0x2c
 8005cd8:	6ce2      	ldr	r2, [r4, #76]	; 0x4c
 8005cda:	3b01      	subs	r3, #1
 8005cdc:	4291      	cmp	r1, r2
 8005cde:	6523      	str	r3, [r4, #80]	; 0x50
 8005ce0:	d0de      	beq.n	8005ca0 <xTaskPriorityDisinherit+0x4>
 8005ce2:	2b00      	cmp	r3, #0
 8005ce4:	d1dc      	bne.n	8005ca0 <xTaskPriorityDisinherit+0x4>
 8005ce6:	1d21      	adds	r1, r4, #4
 8005ce8:	4608      	mov	r0, r1
 8005cea:	9101      	str	r1, [sp, #4]
 8005cec:	f7ff f85b 	bl	8004da6 <uxListRemove>
 8005cf0:	6ce3      	ldr	r3, [r4, #76]	; 0x4c
 8005cf2:	9901      	ldr	r1, [sp, #4]
 8005cf4:	62e3      	str	r3, [r4, #44]	; 0x2c
 8005cf6:	f1c3 0238 	rsb	r2, r3, #56	; 0x38
 8005cfa:	61a2      	str	r2, [r4, #24]
 8005cfc:	4a07      	ldr	r2, [pc, #28]	; (8005d1c <xTaskPriorityDisinherit+0x80>)
 8005cfe:	6810      	ldr	r0, [r2, #0]
 8005d00:	4283      	cmp	r3, r0
 8005d02:	bf88      	it	hi
 8005d04:	6013      	strhi	r3, [r2, #0]
 8005d06:	4a06      	ldr	r2, [pc, #24]	; (8005d20 <xTaskPriorityDisinherit+0x84>)
 8005d08:	2014      	movs	r0, #20
 8005d0a:	fb00 2003 	mla	r0, r0, r3, r2
 8005d0e:	f7ff f827 	bl	8004d60 <vListInsertEnd>
 8005d12:	2001      	movs	r0, #1
 8005d14:	e7c5      	b.n	8005ca2 <xTaskPriorityDisinherit+0x6>
 8005d16:	bf00      	nop
 8005d18:	20000750 	.word	0x20000750
 8005d1c:	20000bcc 	.word	0x20000bcc
 8005d20:	2000075c 	.word	0x2000075c

08005d24 <prvCheckForValidListAndQueue>:
 8005d24:	b5f7      	push	{r0, r1, r2, r4, r5, r6, r7, lr}
 8005d26:	4c11      	ldr	r4, [pc, #68]	; (8005d6c <prvCheckForValidListAndQueue+0x48>)
 8005d28:	f000 fa4c 	bl	80061c4 <vPortEnterCritical>
 8005d2c:	6825      	ldr	r5, [r4, #0]
 8005d2e:	b9bd      	cbnz	r5, 8005d60 <prvCheckForValidListAndQueue+0x3c>
 8005d30:	4f0f      	ldr	r7, [pc, #60]	; (8005d70 <prvCheckForValidListAndQueue+0x4c>)
 8005d32:	4e10      	ldr	r6, [pc, #64]	; (8005d74 <prvCheckForValidListAndQueue+0x50>)
 8005d34:	4638      	mov	r0, r7
 8005d36:	f7ff f805 	bl	8004d44 <vListInitialise>
 8005d3a:	4630      	mov	r0, r6
 8005d3c:	f7ff f802 	bl	8004d44 <vListInitialise>
 8005d40:	4b0d      	ldr	r3, [pc, #52]	; (8005d78 <prvCheckForValidListAndQueue+0x54>)
 8005d42:	4a0e      	ldr	r2, [pc, #56]	; (8005d7c <prvCheckForValidListAndQueue+0x58>)
 8005d44:	601f      	str	r7, [r3, #0]
 8005d46:	4b0e      	ldr	r3, [pc, #56]	; (8005d80 <prvCheckForValidListAndQueue+0x5c>)
 8005d48:	2110      	movs	r1, #16
 8005d4a:	601e      	str	r6, [r3, #0]
 8005d4c:	200a      	movs	r0, #10
 8005d4e:	4b0d      	ldr	r3, [pc, #52]	; (8005d84 <prvCheckForValidListAndQueue+0x60>)
 8005d50:	9500      	str	r5, [sp, #0]
 8005d52:	f7ff f907 	bl	8004f64 <xQueueGenericCreateStatic>
 8005d56:	6020      	str	r0, [r4, #0]
 8005d58:	b110      	cbz	r0, 8005d60 <prvCheckForValidListAndQueue+0x3c>
 8005d5a:	490b      	ldr	r1, [pc, #44]	; (8005d88 <prvCheckForValidListAndQueue+0x64>)
 8005d5c:	f7ff fb04 	bl	8005368 <vQueueAddToRegistry>
 8005d60:	b003      	add	sp, #12
 8005d62:	e8bd 40f0 	ldmia.w	sp!, {r4, r5, r6, r7, lr}
 8005d66:	f000 ba4f 	b.w	8006208 <vPortExitCritical>
 8005d6a:	bf00      	nop
 8005d6c:	20000d70 	.word	0x20000d70
 8005d70:	20000cf4 	.word	0x20000cf4
 8005d74:	20000d08 	.word	0x20000d08
 8005d78:	20000c4c 	.word	0x20000c4c
 8005d7c:	20000c54 	.word	0x20000c54
 8005d80:	20000c50 	.word	0x20000c50
 8005d84:	20000d20 	.word	0x20000d20
 8005d88:	080075f5 	.word	0x080075f5

08005d8c <prvInsertTimerInActiveList>:
 8005d8c:	4291      	cmp	r1, r2
 8005d8e:	b508      	push	{r3, lr}
 8005d90:	6041      	str	r1, [r0, #4]
 8005d92:	6100      	str	r0, [r0, #16]
 8005d94:	d80a      	bhi.n	8005dac <prvInsertTimerInActiveList+0x20>
 8005d96:	1ad2      	subs	r2, r2, r3
 8005d98:	6983      	ldr	r3, [r0, #24]
 8005d9a:	429a      	cmp	r2, r3
 8005d9c:	d20d      	bcs.n	8005dba <prvInsertTimerInActiveList+0x2e>
 8005d9e:	4b08      	ldr	r3, [pc, #32]	; (8005dc0 <prvInsertTimerInActiveList+0x34>)
 8005da0:	1d01      	adds	r1, r0, #4
 8005da2:	6818      	ldr	r0, [r3, #0]
 8005da4:	f7fe ffe8 	bl	8004d78 <vListInsert>
 8005da8:	2000      	movs	r0, #0
 8005daa:	bd08      	pop	{r3, pc}
 8005dac:	429a      	cmp	r2, r3
 8005dae:	d201      	bcs.n	8005db4 <prvInsertTimerInActiveList+0x28>
 8005db0:	4299      	cmp	r1, r3
 8005db2:	d202      	bcs.n	8005dba <prvInsertTimerInActiveList+0x2e>
 8005db4:	4b03      	ldr	r3, [pc, #12]	; (8005dc4 <prvInsertTimerInActiveList+0x38>)
 8005db6:	1d01      	adds	r1, r0, #4
 8005db8:	e7f3      	b.n	8005da2 <prvInsertTimerInActiveList+0x16>
 8005dba:	2001      	movs	r0, #1
 8005dbc:	e7f5      	b.n	8005daa <prvInsertTimerInActiveList+0x1e>
 8005dbe:	bf00      	nop
 8005dc0:	20000c50 	.word	0x20000c50
 8005dc4:	20000c4c 	.word	0x20000c4c

08005dc8 <xTimerCreateTimerTask>:
 8005dc8:	b510      	push	{r4, lr}
 8005dca:	b088      	sub	sp, #32
 8005dcc:	f7ff ffaa 	bl	8005d24 <prvCheckForValidListAndQueue>
 8005dd0:	4b12      	ldr	r3, [pc, #72]	; (8005e1c <xTimerCreateTimerTask+0x54>)
 8005dd2:	681b      	ldr	r3, [r3, #0]
 8005dd4:	b1b3      	cbz	r3, 8005e04 <xTimerCreateTimerTask+0x3c>
 8005dd6:	2400      	movs	r4, #0
 8005dd8:	aa07      	add	r2, sp, #28
 8005dda:	a906      	add	r1, sp, #24
 8005ddc:	a805      	add	r0, sp, #20
 8005dde:	e9cd 4405 	strd	r4, r4, [sp, #20]
 8005de2:	f7fe ffa3 	bl	8004d2c <vApplicationGetTimerTaskMemory>
 8005de6:	9b05      	ldr	r3, [sp, #20]
 8005de8:	9302      	str	r3, [sp, #8]
 8005dea:	9b06      	ldr	r3, [sp, #24]
 8005dec:	9301      	str	r3, [sp, #4]
 8005dee:	2302      	movs	r3, #2
 8005df0:	9300      	str	r3, [sp, #0]
 8005df2:	9a07      	ldr	r2, [sp, #28]
 8005df4:	490a      	ldr	r1, [pc, #40]	; (8005e20 <xTimerCreateTimerTask+0x58>)
 8005df6:	480b      	ldr	r0, [pc, #44]	; (8005e24 <xTimerCreateTimerTask+0x5c>)
 8005df8:	4623      	mov	r3, r4
 8005dfa:	f7ff fc53 	bl	80056a4 <xTaskCreateStatic>
 8005dfe:	4b0a      	ldr	r3, [pc, #40]	; (8005e28 <xTimerCreateTimerTask+0x60>)
 8005e00:	6018      	str	r0, [r3, #0]
 8005e02:	b940      	cbnz	r0, 8005e16 <xTimerCreateTimerTask+0x4e>
 8005e04:	f04f 0350 	mov.w	r3, #80	; 0x50
 8005e08:	f383 8811 	msr	BASEPRI, r3
 8005e0c:	f3bf 8f6f 	isb	sy
 8005e10:	f3bf 8f4f 	dsb	sy
 8005e14:	e7fe      	b.n	8005e14 <xTimerCreateTimerTask+0x4c>
 8005e16:	2001      	movs	r0, #1
 8005e18:	b008      	add	sp, #32
 8005e1a:	bd10      	pop	{r4, pc}
 8005e1c:	20000d70 	.word	0x20000d70
 8005e20:	080075fa 	.word	0x080075fa
 8005e24:	08005f01 	.word	0x08005f01
 8005e28:	20000d74 	.word	0x20000d74

08005e2c <xTimerGenericCommand>:
 8005e2c:	b57f      	push	{r0, r1, r2, r3, r4, r5, r6, lr}
 8005e2e:	4616      	mov	r6, r2
 8005e30:	4604      	mov	r4, r0
 8005e32:	461a      	mov	r2, r3
 8005e34:	b940      	cbnz	r0, 8005e48 <xTimerGenericCommand+0x1c>
 8005e36:	f04f 0350 	mov.w	r3, #80	; 0x50
 8005e3a:	f383 8811 	msr	BASEPRI, r3
 8005e3e:	f3bf 8f6f 	isb	sy
 8005e42:	f3bf 8f4f 	dsb	sy
 8005e46:	e7fe      	b.n	8005e46 <xTimerGenericCommand+0x1a>
 8005e48:	4d0d      	ldr	r5, [pc, #52]	; (8005e80 <xTimerGenericCommand+0x54>)
 8005e4a:	6828      	ldr	r0, [r5, #0]
 8005e4c:	b180      	cbz	r0, 8005e70 <xTimerGenericCommand+0x44>
 8005e4e:	2905      	cmp	r1, #5
 8005e50:	e9cd 1600 	strd	r1, r6, [sp]
 8005e54:	9402      	str	r4, [sp, #8]
 8005e56:	dc0d      	bgt.n	8005e74 <xTimerGenericCommand+0x48>
 8005e58:	f7ff ff10 	bl	8005c7c <xTaskGetSchedulerState>
 8005e5c:	2300      	movs	r3, #0
 8005e5e:	2802      	cmp	r0, #2
 8005e60:	bf08      	it	eq
 8005e62:	9a08      	ldreq	r2, [sp, #32]
 8005e64:	6828      	ldr	r0, [r5, #0]
 8005e66:	bf18      	it	ne
 8005e68:	461a      	movne	r2, r3
 8005e6a:	4669      	mov	r1, sp
 8005e6c:	f7ff f8c8 	bl	8005000 <xQueueGenericSend>
 8005e70:	b004      	add	sp, #16
 8005e72:	bd70      	pop	{r4, r5, r6, pc}
 8005e74:	2300      	movs	r3, #0
 8005e76:	4669      	mov	r1, sp
 8005e78:	f7ff f974 	bl	8005164 <xQueueGenericSendFromISR>
 8005e7c:	e7f8      	b.n	8005e70 <xTimerGenericCommand+0x44>
 8005e7e:	bf00      	nop
 8005e80:	20000d70 	.word	0x20000d70

08005e84 <prvSwitchTimerLists>:
 8005e84:	b5f0      	push	{r4, r5, r6, r7, lr}
 8005e86:	4d1c      	ldr	r5, [pc, #112]	; (8005ef8 <prvSwitchTimerLists+0x74>)
 8005e88:	b085      	sub	sp, #20
 8005e8a:	2700      	movs	r7, #0
 8005e8c:	682b      	ldr	r3, [r5, #0]
 8005e8e:	681a      	ldr	r2, [r3, #0]
 8005e90:	b92a      	cbnz	r2, 8005e9e <prvSwitchTimerLists+0x1a>
 8005e92:	4a1a      	ldr	r2, [pc, #104]	; (8005efc <prvSwitchTimerLists+0x78>)
 8005e94:	6811      	ldr	r1, [r2, #0]
 8005e96:	6029      	str	r1, [r5, #0]
 8005e98:	6013      	str	r3, [r2, #0]
 8005e9a:	b005      	add	sp, #20
 8005e9c:	bdf0      	pop	{r4, r5, r6, r7, pc}
 8005e9e:	68db      	ldr	r3, [r3, #12]
 8005ea0:	68dc      	ldr	r4, [r3, #12]
 8005ea2:	681e      	ldr	r6, [r3, #0]
 8005ea4:	1d21      	adds	r1, r4, #4
 8005ea6:	4608      	mov	r0, r1
 8005ea8:	9103      	str	r1, [sp, #12]
 8005eaa:	f7fe ff7c 	bl	8004da6 <uxListRemove>
 8005eae:	6a23      	ldr	r3, [r4, #32]
 8005eb0:	4620      	mov	r0, r4
 8005eb2:	4798      	blx	r3
 8005eb4:	f894 3028 	ldrb.w	r3, [r4, #40]	; 0x28
 8005eb8:	9903      	ldr	r1, [sp, #12]
 8005eba:	f013 0f04 	tst.w	r3, #4
 8005ebe:	d0e5      	beq.n	8005e8c <prvSwitchTimerLists+0x8>
 8005ec0:	69a3      	ldr	r3, [r4, #24]
 8005ec2:	4433      	add	r3, r6
 8005ec4:	429e      	cmp	r6, r3
 8005ec6:	d205      	bcs.n	8005ed4 <prvSwitchTimerLists+0x50>
 8005ec8:	6828      	ldr	r0, [r5, #0]
 8005eca:	6063      	str	r3, [r4, #4]
 8005ecc:	6124      	str	r4, [r4, #16]
 8005ece:	f7fe ff53 	bl	8004d78 <vListInsert>
 8005ed2:	e7db      	b.n	8005e8c <prvSwitchTimerLists+0x8>
 8005ed4:	2300      	movs	r3, #0
 8005ed6:	9700      	str	r7, [sp, #0]
 8005ed8:	4632      	mov	r2, r6
 8005eda:	4619      	mov	r1, r3
 8005edc:	4620      	mov	r0, r4
 8005ede:	f7ff ffa5 	bl	8005e2c <xTimerGenericCommand>
 8005ee2:	2800      	cmp	r0, #0
 8005ee4:	d1d2      	bne.n	8005e8c <prvSwitchTimerLists+0x8>
 8005ee6:	f04f 0350 	mov.w	r3, #80	; 0x50
 8005eea:	f383 8811 	msr	BASEPRI, r3
 8005eee:	f3bf 8f6f 	isb	sy
 8005ef2:	f3bf 8f4f 	dsb	sy
 8005ef6:	e7fe      	b.n	8005ef6 <prvSwitchTimerLists+0x72>
 8005ef8:	20000c4c 	.word	0x20000c4c
 8005efc:	20000c50 	.word	0x20000c50

08005f00 <prvTimerTask>:
 8005f00:	e92d 4ff0 	stmdb	sp!, {r4, r5, r6, r7, r8, r9, sl, fp, lr}
 8005f04:	4f77      	ldr	r7, [pc, #476]	; (80060e4 <prvTimerTask+0x1e4>)
 8005f06:	f8df a1ec 	ldr.w	sl, [pc, #492]	; 80060f4 <prvTimerTask+0x1f4>
 8005f0a:	b087      	sub	sp, #28
 8005f0c:	46b9      	mov	r9, r7
 8005f0e:	683b      	ldr	r3, [r7, #0]
 8005f10:	f8d3 b000 	ldr.w	fp, [r3]
 8005f14:	f1bb 0f00 	cmp.w	fp, #0
 8005f18:	d028      	beq.n	8005f6c <prvTimerTask+0x6c>
 8005f1a:	68db      	ldr	r3, [r3, #12]
 8005f1c:	f8d3 b000 	ldr.w	fp, [r3]
 8005f20:	2400      	movs	r4, #0
 8005f22:	4e71      	ldr	r6, [pc, #452]	; (80060e8 <prvTimerTask+0x1e8>)
 8005f24:	f7ff fc68 	bl	80057f8 <vTaskSuspendAll>
 8005f28:	f7ff fc6e 	bl	8005808 <xTaskGetTickCount>
 8005f2c:	6833      	ldr	r3, [r6, #0]
 8005f2e:	4298      	cmp	r0, r3
 8005f30:	4605      	mov	r5, r0
 8005f32:	46b0      	mov	r8, r6
 8005f34:	d31c      	bcc.n	8005f70 <prvTimerTask+0x70>
 8005f36:	6030      	str	r0, [r6, #0]
 8005f38:	b31c      	cbz	r4, 8005f82 <prvTimerTask+0x82>
 8005f3a:	4b6c      	ldr	r3, [pc, #432]	; (80060ec <prvTimerTask+0x1ec>)
 8005f3c:	681b      	ldr	r3, [r3, #0]
 8005f3e:	681c      	ldr	r4, [r3, #0]
 8005f40:	fab4 f484 	clz	r4, r4
 8005f44:	0964      	lsrs	r4, r4, #5
 8005f46:	4b6a      	ldr	r3, [pc, #424]	; (80060f0 <prvTimerTask+0x1f0>)
 8005f48:	4622      	mov	r2, r4
 8005f4a:	6818      	ldr	r0, [r3, #0]
 8005f4c:	ebab 0105 	sub.w	r1, fp, r5
 8005f50:	f7ff fa1c 	bl	800538c <vQueueWaitForMessageRestricted>
 8005f54:	f7ff fcf4 	bl	8005940 <xTaskResumeAll>
 8005f58:	b978      	cbnz	r0, 8005f7a <prvTimerTask+0x7a>
 8005f5a:	f04f 5380 	mov.w	r3, #268435456	; 0x10000000
 8005f5e:	f8ca 3000 	str.w	r3, [sl]
 8005f62:	f3bf 8f4f 	dsb	sy
 8005f66:	f3bf 8f6f 	isb	sy
 8005f6a:	e006      	b.n	8005f7a <prvTimerTask+0x7a>
 8005f6c:	2401      	movs	r4, #1
 8005f6e:	e7d8      	b.n	8005f22 <prvTimerTask+0x22>
 8005f70:	f7ff ff88 	bl	8005e84 <prvSwitchTimerLists>
 8005f74:	6035      	str	r5, [r6, #0]
 8005f76:	f7ff fce3 	bl	8005940 <xTaskResumeAll>
 8005f7a:	4e5d      	ldr	r6, [pc, #372]	; (80060f0 <prvTimerTask+0x1f0>)
 8005f7c:	f04f 0b00 	mov.w	fp, #0
 8005f80:	e035      	b.n	8005fee <prvTimerTask+0xee>
 8005f82:	4583      	cmp	fp, r0
 8005f84:	d8df      	bhi.n	8005f46 <prvTimerTask+0x46>
 8005f86:	f7ff fcdb 	bl	8005940 <xTaskResumeAll>
 8005f8a:	f8d9 3000 	ldr.w	r3, [r9]
 8005f8e:	68db      	ldr	r3, [r3, #12]
 8005f90:	68de      	ldr	r6, [r3, #12]
 8005f92:	1d30      	adds	r0, r6, #4
 8005f94:	f7fe ff07 	bl	8004da6 <uxListRemove>
 8005f98:	f896 3028 	ldrb.w	r3, [r6, #40]	; 0x28
 8005f9c:	0758      	lsls	r0, r3, #29
 8005f9e:	d518      	bpl.n	8005fd2 <prvTimerTask+0xd2>
 8005fa0:	69b1      	ldr	r1, [r6, #24]
 8005fa2:	465b      	mov	r3, fp
 8005fa4:	462a      	mov	r2, r5
 8005fa6:	4459      	add	r1, fp
 8005fa8:	4630      	mov	r0, r6
 8005faa:	f7ff feef 	bl	8005d8c <prvInsertTimerInActiveList>
 8005fae:	b1a0      	cbz	r0, 8005fda <prvTimerTask+0xda>
 8005fb0:	9400      	str	r4, [sp, #0]
 8005fb2:	4623      	mov	r3, r4
 8005fb4:	465a      	mov	r2, fp
 8005fb6:	4621      	mov	r1, r4
 8005fb8:	4630      	mov	r0, r6
 8005fba:	f7ff ff37 	bl	8005e2c <xTimerGenericCommand>
 8005fbe:	b960      	cbnz	r0, 8005fda <prvTimerTask+0xda>
 8005fc0:	f04f 0350 	mov.w	r3, #80	; 0x50
 8005fc4:	f383 8811 	msr	BASEPRI, r3
 8005fc8:	f3bf 8f6f 	isb	sy
 8005fcc:	f3bf 8f4f 	dsb	sy
 8005fd0:	e7fe      	b.n	8005fd0 <prvTimerTask+0xd0>
 8005fd2:	f023 0301 	bic.w	r3, r3, #1
 8005fd6:	f886 3028 	strb.w	r3, [r6, #40]	; 0x28
 8005fda:	6a33      	ldr	r3, [r6, #32]
 8005fdc:	4630      	mov	r0, r6
 8005fde:	4798      	blx	r3
 8005fe0:	e7cb      	b.n	8005f7a <prvTimerTask+0x7a>
 8005fe2:	9b03      	ldr	r3, [sp, #12]
 8005fe4:	9905      	ldr	r1, [sp, #20]
 8005fe6:	4798      	blx	r3
 8005fe8:	9b02      	ldr	r3, [sp, #8]
 8005fea:	2b00      	cmp	r3, #0
 8005fec:	da0a      	bge.n	8006004 <prvTimerTask+0x104>
 8005fee:	6830      	ldr	r0, [r6, #0]
 8005ff0:	2200      	movs	r2, #0
 8005ff2:	a902      	add	r1, sp, #8
 8005ff4:	f7ff f918 	bl	8005228 <xQueueReceive>
 8005ff8:	2800      	cmp	r0, #0
 8005ffa:	d088      	beq.n	8005f0e <prvTimerTask+0xe>
 8005ffc:	9b02      	ldr	r3, [sp, #8]
 8005ffe:	9804      	ldr	r0, [sp, #16]
 8006000:	2b00      	cmp	r3, #0
 8006002:	dbee      	blt.n	8005fe2 <prvTimerTask+0xe2>
 8006004:	9c04      	ldr	r4, [sp, #16]
 8006006:	6963      	ldr	r3, [r4, #20]
 8006008:	b9a3      	cbnz	r3, 8006034 <prvTimerTask+0x134>
 800600a:	f7ff fbfd 	bl	8005808 <xTaskGetTickCount>
 800600e:	f8d8 3000 	ldr.w	r3, [r8]
 8006012:	4298      	cmp	r0, r3
 8006014:	4605      	mov	r5, r0
 8006016:	d201      	bcs.n	800601c <prvTimerTask+0x11c>
 8006018:	f7ff ff34 	bl	8005e84 <prvSwitchTimerLists>
 800601c:	9b02      	ldr	r3, [sp, #8]
 800601e:	f8c8 5000 	str.w	r5, [r8]
 8006022:	2b09      	cmp	r3, #9
 8006024:	d8e3      	bhi.n	8005fee <prvTimerTask+0xee>
 8006026:	e8df f003 	tbb	[pc, r3]
 800602a:	0909      	.short	0x0909
 800602c:	543b3409 	.word	0x543b3409
 8006030:	3b340909 	.word	0x3b340909
 8006034:	1d20      	adds	r0, r4, #4
 8006036:	f7fe feb6 	bl	8004da6 <uxListRemove>
 800603a:	e7e6      	b.n	800600a <prvTimerTask+0x10a>
 800603c:	f894 3028 	ldrb.w	r3, [r4, #40]	; 0x28
 8006040:	69a1      	ldr	r1, [r4, #24]
 8006042:	f043 0301 	orr.w	r3, r3, #1
 8006046:	f884 3028 	strb.w	r3, [r4, #40]	; 0x28
 800604a:	9b03      	ldr	r3, [sp, #12]
 800604c:	462a      	mov	r2, r5
 800604e:	4419      	add	r1, r3
 8006050:	4620      	mov	r0, r4
 8006052:	f7ff fe9b 	bl	8005d8c <prvInsertTimerInActiveList>
 8006056:	2800      	cmp	r0, #0
 8006058:	d0c9      	beq.n	8005fee <prvTimerTask+0xee>
 800605a:	6a23      	ldr	r3, [r4, #32]
 800605c:	4620      	mov	r0, r4
 800605e:	4798      	blx	r3
 8006060:	f894 3028 	ldrb.w	r3, [r4, #40]	; 0x28
 8006064:	0759      	lsls	r1, r3, #29
 8006066:	d5c2      	bpl.n	8005fee <prvTimerTask+0xee>
 8006068:	69a2      	ldr	r2, [r4, #24]
 800606a:	9903      	ldr	r1, [sp, #12]
 800606c:	f8cd b000 	str.w	fp, [sp]
 8006070:	2300      	movs	r3, #0
 8006072:	440a      	add	r2, r1
 8006074:	4620      	mov	r0, r4
 8006076:	4619      	mov	r1, r3
 8006078:	f7ff fed8 	bl	8005e2c <xTimerGenericCommand>
 800607c:	2800      	cmp	r0, #0
 800607e:	d1b6      	bne.n	8005fee <prvTimerTask+0xee>
 8006080:	f04f 0350 	mov.w	r3, #80	; 0x50
 8006084:	f383 8811 	msr	BASEPRI, r3
 8006088:	f3bf 8f6f 	isb	sy
 800608c:	f3bf 8f4f 	dsb	sy
 8006090:	e7fe      	b.n	8006090 <prvTimerTask+0x190>
 8006092:	f894 3028 	ldrb.w	r3, [r4, #40]	; 0x28
 8006096:	f023 0301 	bic.w	r3, r3, #1
 800609a:	f884 3028 	strb.w	r3, [r4, #40]	; 0x28
 800609e:	e7a6      	b.n	8005fee <prvTimerTask+0xee>
 80060a0:	f894 3028 	ldrb.w	r3, [r4, #40]	; 0x28
 80060a4:	9903      	ldr	r1, [sp, #12]
 80060a6:	61a1      	str	r1, [r4, #24]
 80060a8:	f043 0301 	orr.w	r3, r3, #1
 80060ac:	f884 3028 	strb.w	r3, [r4, #40]	; 0x28
 80060b0:	b941      	cbnz	r1, 80060c4 <prvTimerTask+0x1c4>
 80060b2:	f04f 0350 	mov.w	r3, #80	; 0x50
 80060b6:	f383 8811 	msr	BASEPRI, r3
 80060ba:	f3bf 8f6f 	isb	sy
 80060be:	f3bf 8f4f 	dsb	sy
 80060c2:	e7fe      	b.n	80060c2 <prvTimerTask+0x1c2>
 80060c4:	462b      	mov	r3, r5
 80060c6:	462a      	mov	r2, r5
 80060c8:	4429      	add	r1, r5
 80060ca:	4620      	mov	r0, r4
 80060cc:	f7ff fe5e 	bl	8005d8c <prvInsertTimerInActiveList>
 80060d0:	e78d      	b.n	8005fee <prvTimerTask+0xee>
 80060d2:	f894 3028 	ldrb.w	r3, [r4, #40]	; 0x28
 80060d6:	079a      	lsls	r2, r3, #30
 80060d8:	d4dd      	bmi.n	8006096 <prvTimerTask+0x196>
 80060da:	4620      	mov	r0, r4
 80060dc:	f000 fa72 	bl	80065c4 <vPortFree>
 80060e0:	e785      	b.n	8005fee <prvTimerTask+0xee>
 80060e2:	bf00      	nop
 80060e4:	20000c4c 	.word	0x20000c4c
 80060e8:	20000d1c 	.word	0x20000d1c
 80060ec:	20000c50 	.word	0x20000c50
 80060f0:	20000d70 	.word	0x20000d70
 80060f4:	e000ed04 	.word	0xe000ed04

080060f8 <prvPortStartFirstTask>:
 80060f8:	4808      	ldr	r0, [pc, #32]	; (800611c <prvPortStartFirstTask+0x24>)
 80060fa:	6800      	ldr	r0, [r0, #0]
 80060fc:	6800      	ldr	r0, [r0, #0]
 80060fe:	f380 8808 	msr	MSP, r0
 8006102:	f04f 0000 	mov.w	r0, #0
 8006106:	f380 8814 	msr	CONTROL, r0
 800610a:	b662      	cpsie	i
 800610c:	b661      	cpsie	f
 800610e:	f3bf 8f4f 	dsb	sy
 8006112:	f3bf 8f6f 	isb	sy
 8006116:	df00      	svc	0
 8006118:	bf00      	nop
 800611a:	0000      	.short	0x0000
 800611c:	e000ed08 	.word	0xe000ed08

08006120 <vPortEnableVFP>:
 8006120:	f8df 000c 	ldr.w	r0, [pc, #12]	; 8006130 <vPortEnableVFP+0x10>
 8006124:	6801      	ldr	r1, [r0, #0]
 8006126:	f441 0170 	orr.w	r1, r1, #15728640	; 0xf00000
 800612a:	6001      	str	r1, [r0, #0]
 800612c:	4770      	bx	lr
 800612e:	0000      	.short	0x0000
 8006130:	e000ed88 	.word	0xe000ed88

08006134 <prvTaskExitError>:
 8006134:	b082      	sub	sp, #8
 8006136:	2300      	movs	r3, #0
 8006138:	9301      	str	r3, [sp, #4]
 800613a:	4b0d      	ldr	r3, [pc, #52]	; (8006170 <prvTaskExitError+0x3c>)
 800613c:	681b      	ldr	r3, [r3, #0]
 800613e:	3301      	adds	r3, #1
 8006140:	d008      	beq.n	8006154 <prvTaskExitError+0x20>
 8006142:	f04f 0350 	mov.w	r3, #80	; 0x50
 8006146:	f383 8811 	msr	BASEPRI, r3
 800614a:	f3bf 8f6f 	isb	sy
 800614e:	f3bf 8f4f 	dsb	sy
 8006152:	e7fe      	b.n	8006152 <prvTaskExitError+0x1e>
 8006154:	f04f 0350 	mov.w	r3, #80	; 0x50
 8006158:	f383 8811 	msr	BASEPRI, r3
 800615c:	f3bf 8f6f 	isb	sy
 8006160:	f3bf 8f4f 	dsb	sy
 8006164:	9b01      	ldr	r3, [sp, #4]
 8006166:	2b00      	cmp	r3, #0
 8006168:	d0fc      	beq.n	8006164 <prvTaskExitError+0x30>
 800616a:	b002      	add	sp, #8
 800616c:	4770      	bx	lr
 800616e:	bf00      	nop
 8006170:	2000000c 	.word	0x2000000c

08006174 <pxPortInitialiseStack>:
 8006174:	f04f 7380 	mov.w	r3, #16777216	; 0x1000000
 8006178:	f840 3c04 	str.w	r3, [r0, #-4]
 800617c:	4b07      	ldr	r3, [pc, #28]	; (800619c <pxPortInitialiseStack+0x28>)
 800617e:	f840 3c0c 	str.w	r3, [r0, #-12]
 8006182:	f021 0101 	bic.w	r1, r1, #1
 8006186:	f06f 0302 	mvn.w	r3, #2
 800618a:	f840 1c08 	str.w	r1, [r0, #-8]
 800618e:	f840 2c20 	str.w	r2, [r0, #-32]
 8006192:	f840 3c24 	str.w	r3, [r0, #-36]
 8006196:	3844      	subs	r0, #68	; 0x44
 8006198:	4770      	bx	lr
 800619a:	bf00      	nop
 800619c:	08006135 	.word	0x08006135

080061a0 <SVC_Handler>:
 80061a0:	4b07      	ldr	r3, [pc, #28]	; (80061c0 <pxCurrentTCBConst2>)
 80061a2:	6819      	ldr	r1, [r3, #0]
 80061a4:	6808      	ldr	r0, [r1, #0]
 80061a6:	e8b0 4ff0 	ldmia.w	r0!, {r4, r5, r6, r7, r8, r9, sl, fp, lr}
 80061aa:	f380 8809 	msr	PSP, r0
 80061ae:	f3bf 8f6f 	isb	sy
 80061b2:	f04f 0000 	mov.w	r0, #0
 80061b6:	f380 8811 	msr	BASEPRI, r0
 80061ba:	4770      	bx	lr
 80061bc:	f3af 8000 	nop.w

080061c0 <pxCurrentTCBConst2>:
 80061c0:	20000750 	.word	0x20000750

080061c4 <vPortEnterCritical>:
 80061c4:	f04f 0350 	mov.w	r3, #80	; 0x50
 80061c8:	f383 8811 	msr	BASEPRI, r3
 80061cc:	f3bf 8f6f 	isb	sy
 80061d0:	f3bf 8f4f 	dsb	sy
 80061d4:	4a0a      	ldr	r2, [pc, #40]	; (8006200 <vPortEnterCritical+0x3c>)
 80061d6:	6813      	ldr	r3, [r2, #0]
 80061d8:	3301      	adds	r3, #1
 80061da:	2b01      	cmp	r3, #1
 80061dc:	6013      	str	r3, [r2, #0]
 80061de:	d10d      	bne.n	80061fc <vPortEnterCritical+0x38>
 80061e0:	4b08      	ldr	r3, [pc, #32]	; (8006204 <vPortEnterCritical+0x40>)
 80061e2:	681b      	ldr	r3, [r3, #0]
 80061e4:	f013 0fff 	tst.w	r3, #255	; 0xff
 80061e8:	d008      	beq.n	80061fc <vPortEnterCritical+0x38>
 80061ea:	f04f 0350 	mov.w	r3, #80	; 0x50
 80061ee:	f383 8811 	msr	BASEPRI, r3
 80061f2:	f3bf 8f6f 	isb	sy
 80061f6:	f3bf 8f4f 	dsb	sy
 80061fa:	e7fe      	b.n	80061fa <vPortEnterCritical+0x36>
 80061fc:	4770      	bx	lr
 80061fe:	bf00      	nop
 8006200:	2000000c 	.word	0x2000000c
 8006204:	e000ed04 	.word	0xe000ed04

08006208 <vPortExitCritical>:
 8006208:	4a08      	ldr	r2, [pc, #32]	; (800622c <vPortExitCritical+0x24>)
 800620a:	6813      	ldr	r3, [r2, #0]
 800620c:	b943      	cbnz	r3, 8006220 <vPortExitCritical+0x18>
 800620e:	f04f 0350 	mov.w	r3, #80	; 0x50
 8006212:	f383 8811 	msr	BASEPRI, r3
 8006216:	f3bf 8f6f 	isb	sy
 800621a:	f3bf 8f4f 	dsb	sy
 800621e:	e7fe      	b.n	800621e <vPortExitCritical+0x16>
 8006220:	3b01      	subs	r3, #1
 8006222:	6013      	str	r3, [r2, #0]
 8006224:	b90b      	cbnz	r3, 800622a <vPortExitCritical+0x22>
 8006226:	f383 8811 	msr	BASEPRI, r3
 800622a:	4770      	bx	lr
 800622c:	2000000c 	.word	0x2000000c

08006230 <PendSV_Handler>:
 8006230:	f3ef 8009 	mrs	r0, PSP
 8006234:	f3bf 8f6f 	isb	sy
 8006238:	4b15      	ldr	r3, [pc, #84]	; (8006290 <pxCurrentTCBConst>)
 800623a:	681a      	ldr	r2, [r3, #0]
 800623c:	f01e 0f10 	tst.w	lr, #16
 8006240:	bf08      	it	eq
 8006242:	ed20 8a10 	vstmdbeq	r0!, {s16-s31}
 8006246:	e920 4ff0 	stmdb	r0!, {r4, r5, r6, r7, r8, r9, sl, fp, lr}
 800624a:	6010      	str	r0, [r2, #0]
 800624c:	e92d 0009 	stmdb	sp!, {r0, r3}
 8006250:	f04f 0050 	mov.w	r0, #80	; 0x50
 8006254:	f380 8811 	msr	BASEPRI, r0
 8006258:	f3bf 8f4f 	dsb	sy
 800625c:	f3bf 8f6f 	isb	sy
 8006260:	f7ff fc06 	bl	8005a70 <vTaskSwitchContext>
 8006264:	f04f 0000 	mov.w	r0, #0
 8006268:	f380 8811 	msr	BASEPRI, r0
 800626c:	bc09      	pop	{r0, r3}
 800626e:	6819      	ldr	r1, [r3, #0]
 8006270:	6808      	ldr	r0, [r1, #0]
 8006272:	e8b0 4ff0 	ldmia.w	r0!, {r4, r5, r6, r7, r8, r9, sl, fp, lr}
 8006276:	f01e 0f10 	tst.w	lr, #16
 800627a:	bf08      	it	eq
 800627c:	ecb0 8a10 	vldmiaeq	r0!, {s16-s31}
 8006280:	f380 8809 	msr	PSP, r0
 8006284:	f3bf 8f6f 	isb	sy
 8006288:	4770      	bx	lr
 800628a:	bf00      	nop
 800628c:	f3af 8000 	nop.w

08006290 <pxCurrentTCBConst>:
 8006290:	20000750 	.word	0x20000750

08006294 <xPortSysTickHandler>:
 8006294:	b508      	push	{r3, lr}
 8006296:	f04f 0350 	mov.w	r3, #80	; 0x50
 800629a:	f383 8811 	msr	BASEPRI, r3
 800629e:	f3bf 8f6f 	isb	sy
 80062a2:	f3bf 8f4f 	dsb	sy
 80062a6:	f7ff fab5 	bl	8005814 <xTaskIncrementTick>
 80062aa:	b118      	cbz	r0, 80062b4 <xPortSysTickHandler+0x20>
 80062ac:	4b03      	ldr	r3, [pc, #12]	; (80062bc <xPortSysTickHandler+0x28>)
 80062ae:	f04f 5280 	mov.w	r2, #268435456	; 0x10000000
 80062b2:	601a      	str	r2, [r3, #0]
 80062b4:	2300      	movs	r3, #0
 80062b6:	f383 8811 	msr	BASEPRI, r3
 80062ba:	bd08      	pop	{r3, pc}
 80062bc:	e000ed04 	.word	0xe000ed04

080062c0 <vPortSetupTimerInterrupt>:
 80062c0:	4a08      	ldr	r2, [pc, #32]	; (80062e4 <vPortSetupTimerInterrupt+0x24>)
 80062c2:	4909      	ldr	r1, [pc, #36]	; (80062e8 <vPortSetupTimerInterrupt+0x28>)
 80062c4:	2300      	movs	r3, #0
 80062c6:	6013      	str	r3, [r2, #0]
 80062c8:	600b      	str	r3, [r1, #0]
 80062ca:	4b08      	ldr	r3, [pc, #32]	; (80062ec <vPortSetupTimerInterrupt+0x2c>)
 80062cc:	f44f 717a 	mov.w	r1, #1000	; 0x3e8
 80062d0:	681b      	ldr	r3, [r3, #0]
 80062d2:	fbb3 f3f1 	udiv	r3, r3, r1
 80062d6:	4906      	ldr	r1, [pc, #24]	; (80062f0 <vPortSetupTimerInterrupt+0x30>)
 80062d8:	3b01      	subs	r3, #1
 80062da:	600b      	str	r3, [r1, #0]
 80062dc:	2307      	movs	r3, #7
 80062de:	6013      	str	r3, [r2, #0]
 80062e0:	4770      	bx	lr
 80062e2:	bf00      	nop
 80062e4:	e000e010 	.word	0xe000e010
 80062e8:	e000e018 	.word	0xe000e018
 80062ec:	20000000 	.word	0x20000000
 80062f0:	e000e014 	.word	0xe000e014

080062f4 <xPortStartScheduler>:
 80062f4:	4b38      	ldr	r3, [pc, #224]	; (80063d8 <xPortStartScheduler+0xe4>)
 80062f6:	4a39      	ldr	r2, [pc, #228]	; (80063dc <xPortStartScheduler+0xe8>)
 80062f8:	b513      	push	{r0, r1, r4, lr}
 80062fa:	6819      	ldr	r1, [r3, #0]
 80062fc:	4291      	cmp	r1, r2
 80062fe:	d108      	bne.n	8006312 <xPortStartScheduler+0x1e>
 8006300:	f04f 0350 	mov.w	r3, #80	; 0x50
 8006304:	f383 8811 	msr	BASEPRI, r3
 8006308:	f3bf 8f6f 	isb	sy
 800630c:	f3bf 8f4f 	dsb	sy
 8006310:	e7fe      	b.n	8006310 <xPortStartScheduler+0x1c>
 8006312:	681a      	ldr	r2, [r3, #0]
 8006314:	4b32      	ldr	r3, [pc, #200]	; (80063e0 <xPortStartScheduler+0xec>)
 8006316:	429a      	cmp	r2, r3
 8006318:	d108      	bne.n	800632c <xPortStartScheduler+0x38>
 800631a:	f04f 0350 	mov.w	r3, #80	; 0x50
 800631e:	f383 8811 	msr	BASEPRI, r3
 8006322:	f3bf 8f6f 	isb	sy
 8006326:	f3bf 8f4f 	dsb	sy
 800632a:	e7fe      	b.n	800632a <xPortStartScheduler+0x36>
 800632c:	4b2d      	ldr	r3, [pc, #180]	; (80063e4 <xPortStartScheduler+0xf0>)
 800632e:	781a      	ldrb	r2, [r3, #0]
 8006330:	b2d2      	uxtb	r2, r2
 8006332:	9201      	str	r2, [sp, #4]
 8006334:	22ff      	movs	r2, #255	; 0xff
 8006336:	701a      	strb	r2, [r3, #0]
 8006338:	781b      	ldrb	r3, [r3, #0]
 800633a:	4a2b      	ldr	r2, [pc, #172]	; (80063e8 <xPortStartScheduler+0xf4>)
 800633c:	b2db      	uxtb	r3, r3
 800633e:	f88d 3003 	strb.w	r3, [sp, #3]
 8006342:	f89d 3003 	ldrb.w	r3, [sp, #3]
 8006346:	f003 0350 	and.w	r3, r3, #80	; 0x50
 800634a:	7013      	strb	r3, [r2, #0]
 800634c:	4a27      	ldr	r2, [pc, #156]	; (80063ec <xPortStartScheduler+0xf8>)
 800634e:	2307      	movs	r3, #7
 8006350:	6013      	str	r3, [r2, #0]
 8006352:	2100      	movs	r1, #0
 8006354:	f89d 0003 	ldrb.w	r0, [sp, #3]
 8006358:	0600      	lsls	r0, r0, #24
 800635a:	f103 34ff 	add.w	r4, r3, #4294967295
 800635e:	d40c      	bmi.n	800637a <xPortStartScheduler+0x86>
 8006360:	b111      	cbz	r1, 8006368 <xPortStartScheduler+0x74>
 8006362:	2b03      	cmp	r3, #3
 8006364:	6013      	str	r3, [r2, #0]
 8006366:	d011      	beq.n	800638c <xPortStartScheduler+0x98>
 8006368:	f04f 0350 	mov.w	r3, #80	; 0x50
 800636c:	f383 8811 	msr	BASEPRI, r3
 8006370:	f3bf 8f6f 	isb	sy
 8006374:	f3bf 8f4f 	dsb	sy
 8006378:	e7fe      	b.n	8006378 <xPortStartScheduler+0x84>
 800637a:	f89d 3003 	ldrb.w	r3, [sp, #3]
 800637e:	005b      	lsls	r3, r3, #1
 8006380:	b2db      	uxtb	r3, r3
 8006382:	f88d 3003 	strb.w	r3, [sp, #3]
 8006386:	2101      	movs	r1, #1
 8006388:	4623      	mov	r3, r4
 800638a:	e7e3      	b.n	8006354 <xPortStartScheduler+0x60>
 800638c:	f44f 7340 	mov.w	r3, #768	; 0x300
 8006390:	6013      	str	r3, [r2, #0]
 8006392:	9b01      	ldr	r3, [sp, #4]
 8006394:	4a13      	ldr	r2, [pc, #76]	; (80063e4 <xPortStartScheduler+0xf0>)
 8006396:	b2db      	uxtb	r3, r3
 8006398:	7013      	strb	r3, [r2, #0]
 800639a:	4b15      	ldr	r3, [pc, #84]	; (80063f0 <xPortStartScheduler+0xfc>)
 800639c:	681a      	ldr	r2, [r3, #0]
 800639e:	f442 0270 	orr.w	r2, r2, #15728640	; 0xf00000
 80063a2:	601a      	str	r2, [r3, #0]
 80063a4:	681a      	ldr	r2, [r3, #0]
 80063a6:	f042 4270 	orr.w	r2, r2, #4026531840	; 0xf0000000
 80063aa:	601a      	str	r2, [r3, #0]
 80063ac:	f7ff ff88 	bl	80062c0 <vPortSetupTimerInterrupt>
 80063b0:	4b10      	ldr	r3, [pc, #64]	; (80063f4 <xPortStartScheduler+0x100>)
 80063b2:	2400      	movs	r4, #0
 80063b4:	601c      	str	r4, [r3, #0]
 80063b6:	f7ff feb3 	bl	8006120 <vPortEnableVFP>
 80063ba:	4a0f      	ldr	r2, [pc, #60]	; (80063f8 <xPortStartScheduler+0x104>)
 80063bc:	6813      	ldr	r3, [r2, #0]
 80063be:	f043 4340 	orr.w	r3, r3, #3221225472	; 0xc0000000
 80063c2:	6013      	str	r3, [r2, #0]
 80063c4:	f7ff fe98 	bl	80060f8 <prvPortStartFirstTask>
 80063c8:	f7ff fb52 	bl	8005a70 <vTaskSwitchContext>
 80063cc:	f7ff feb2 	bl	8006134 <prvTaskExitError>
 80063d0:	4620      	mov	r0, r4
 80063d2:	b002      	add	sp, #8
 80063d4:	bd10      	pop	{r4, pc}
 80063d6:	bf00      	nop
 80063d8:	e000ed00 	.word	0xe000ed00
 80063dc:	410fc271 	.word	0x410fc271
 80063e0:	410fc270 	.word	0x410fc270
 80063e4:	e000e400 	.word	0xe000e400
 80063e8:	20000d78 	.word	0x20000d78
 80063ec:	20000d7c 	.word	0x20000d7c
 80063f0:	e000ed20 	.word	0xe000ed20
 80063f4:	2000000c 	.word	0x2000000c
 80063f8:	e000ef34 	.word	0xe000ef34

080063fc <vPortValidateInterruptPriority>:
 80063fc:	f3ef 8305 	mrs	r3, IPSR
 8006400:	2b0f      	cmp	r3, #15
 8006402:	d90e      	bls.n	8006422 <vPortValidateInterruptPriority+0x26>
 8006404:	4a10      	ldr	r2, [pc, #64]	; (8006448 <vPortValidateInterruptPriority+0x4c>)
 8006406:	5c9b      	ldrb	r3, [r3, r2]
 8006408:	4a10      	ldr	r2, [pc, #64]	; (800644c <vPortValidateInterruptPriority+0x50>)
 800640a:	7812      	ldrb	r2, [r2, #0]
 800640c:	429a      	cmp	r2, r3
 800640e:	d908      	bls.n	8006422 <vPortValidateInterruptPriority+0x26>
 8006410:	f04f 0350 	mov.w	r3, #80	; 0x50
 8006414:	f383 8811 	msr	BASEPRI, r3
 8006418:	f3bf 8f6f 	isb	sy
 800641c:	f3bf 8f4f 	dsb	sy
 8006420:	e7fe      	b.n	8006420 <vPortValidateInterruptPriority+0x24>
 8006422:	4b0b      	ldr	r3, [pc, #44]	; (8006450 <vPortValidateInterruptPriority+0x54>)
 8006424:	4a0b      	ldr	r2, [pc, #44]	; (8006454 <vPortValidateInterruptPriority+0x58>)
 8006426:	681b      	ldr	r3, [r3, #0]
 8006428:	6812      	ldr	r2, [r2, #0]
 800642a:	f403 63e0 	and.w	r3, r3, #1792	; 0x700
 800642e:	4293      	cmp	r3, r2
 8006430:	d908      	bls.n	8006444 <vPortValidateInterruptPriority+0x48>
 8006432:	f04f 0350 	mov.w	r3, #80	; 0x50
 8006436:	f383 8811 	msr	BASEPRI, r3
 800643a:	f3bf 8f6f 	isb	sy
 800643e:	f3bf 8f4f 	dsb	sy
 8006442:	e7fe      	b.n	8006442 <vPortValidateInterruptPriority+0x46>
 8006444:	4770      	bx	lr
 8006446:	bf00      	nop
 8006448:	e000e3f0 	.word	0xe000e3f0
 800644c:	20000d78 	.word	0x20000d78
 8006450:	e000ed0c 	.word	0xe000ed0c
 8006454:	20000d7c 	.word	0x20000d7c

08006458 <prvInsertBlockIntoFreeList>:
 8006458:	b510      	push	{r4, lr}
 800645a:	4b0f      	ldr	r3, [pc, #60]	; (8006498 <prvInsertBlockIntoFreeList+0x40>)
 800645c:	461a      	mov	r2, r3
 800645e:	681b      	ldr	r3, [r3, #0]
 8006460:	4283      	cmp	r3, r0
 8006462:	d3fb      	bcc.n	800645c <prvInsertBlockIntoFreeList+0x4>
 8006464:	6854      	ldr	r4, [r2, #4]
 8006466:	1911      	adds	r1, r2, r4
 8006468:	4288      	cmp	r0, r1
 800646a:	bf01      	itttt	eq
 800646c:	6841      	ldreq	r1, [r0, #4]
 800646e:	4610      	moveq	r0, r2
 8006470:	1909      	addeq	r1, r1, r4
 8006472:	6051      	streq	r1, [r2, #4]
 8006474:	6844      	ldr	r4, [r0, #4]
 8006476:	1901      	adds	r1, r0, r4
 8006478:	428b      	cmp	r3, r1
 800647a:	d107      	bne.n	800648c <prvInsertBlockIntoFreeList+0x34>
 800647c:	4907      	ldr	r1, [pc, #28]	; (800649c <prvInsertBlockIntoFreeList+0x44>)
 800647e:	6809      	ldr	r1, [r1, #0]
 8006480:	428b      	cmp	r3, r1
 8006482:	bf1f      	itttt	ne
 8006484:	6859      	ldrne	r1, [r3, #4]
 8006486:	681b      	ldrne	r3, [r3, #0]
 8006488:	1909      	addne	r1, r1, r4
 800648a:	6041      	strne	r1, [r0, #4]
 800648c:	4290      	cmp	r0, r2
 800648e:	6003      	str	r3, [r0, #0]
 8006490:	bf18      	it	ne
 8006492:	6010      	strne	r0, [r2, #0]
 8006494:	bd10      	pop	{r4, pc}
 8006496:	bf00      	nop
 8006498:	20004998 	.word	0x20004998
 800649c:	20000d80 	.word	0x20000d80

080064a0 <pvPortMalloc>:
 80064a0:	e92d 41f0 	stmdb	sp!, {r4, r5, r6, r7, r8, lr}
 80064a4:	4604      	mov	r4, r0
 80064a6:	f7ff f9a7 	bl	80057f8 <vTaskSuspendAll>
 80064aa:	4b3e      	ldr	r3, [pc, #248]	; (80065a4 <pvPortMalloc+0x104>)
 80064ac:	483e      	ldr	r0, [pc, #248]	; (80065a8 <pvPortMalloc+0x108>)
 80064ae:	681a      	ldr	r2, [r3, #0]
 80064b0:	469c      	mov	ip, r3
 80064b2:	b9d2      	cbnz	r2, 80064ea <pvPortMalloc+0x4a>
 80064b4:	4a3d      	ldr	r2, [pc, #244]	; (80065ac <pvPortMalloc+0x10c>)
 80064b6:	4b3e      	ldr	r3, [pc, #248]	; (80065b0 <pvPortMalloc+0x110>)
 80064b8:	0755      	lsls	r5, r2, #29
 80064ba:	bf1c      	itt	ne
 80064bc:	3207      	addne	r2, #7
 80064be:	f022 0207 	bicne.w	r2, r2, #7
 80064c2:	2100      	movs	r1, #0
 80064c4:	601a      	str	r2, [r3, #0]
 80064c6:	6059      	str	r1, [r3, #4]
 80064c8:	4b3a      	ldr	r3, [pc, #232]	; (80065b4 <pvPortMalloc+0x114>)
 80064ca:	f023 0307 	bic.w	r3, r3, #7
 80064ce:	e9c3 1100 	strd	r1, r1, [r3]
 80064d2:	1a99      	subs	r1, r3, r2
 80064d4:	e9c2 3100 	strd	r3, r1, [r2]
 80064d8:	f8cc 3000 	str.w	r3, [ip]
 80064dc:	4b36      	ldr	r3, [pc, #216]	; (80065b8 <pvPortMalloc+0x118>)
 80064de:	6019      	str	r1, [r3, #0]
 80064e0:	4b36      	ldr	r3, [pc, #216]	; (80065bc <pvPortMalloc+0x11c>)
 80064e2:	6019      	str	r1, [r3, #0]
 80064e4:	f04f 4300 	mov.w	r3, #2147483648	; 0x80000000
 80064e8:	6003      	str	r3, [r0, #0]
 80064ea:	6807      	ldr	r7, [r0, #0]
 80064ec:	4227      	tst	r7, r4
 80064ee:	d153      	bne.n	8006598 <pvPortMalloc+0xf8>
 80064f0:	2c00      	cmp	r4, #0
 80064f2:	d044      	beq.n	800657e <pvPortMalloc+0xde>
 80064f4:	f104 0308 	add.w	r3, r4, #8
 80064f8:	0761      	lsls	r1, r4, #29
 80064fa:	bf1c      	itt	ne
 80064fc:	f023 0307 	bicne.w	r3, r3, #7
 8006500:	3308      	addne	r3, #8
 8006502:	2b00      	cmp	r3, #0
 8006504:	d048      	beq.n	8006598 <pvPortMalloc+0xf8>
 8006506:	4a2d      	ldr	r2, [pc, #180]	; (80065bc <pvPortMalloc+0x11c>)
 8006508:	6816      	ldr	r6, [r2, #0]
 800650a:	429e      	cmp	r6, r3
 800650c:	4690      	mov	r8, r2
 800650e:	d343      	bcc.n	8006598 <pvPortMalloc+0xf8>
 8006510:	4a27      	ldr	r2, [pc, #156]	; (80065b0 <pvPortMalloc+0x110>)
 8006512:	6815      	ldr	r5, [r2, #0]
 8006514:	6869      	ldr	r1, [r5, #4]
 8006516:	4299      	cmp	r1, r3
 8006518:	d201      	bcs.n	800651e <pvPortMalloc+0x7e>
 800651a:	6828      	ldr	r0, [r5, #0]
 800651c:	b9a8      	cbnz	r0, 800654a <pvPortMalloc+0xaa>
 800651e:	f8dc 0000 	ldr.w	r0, [ip]
 8006522:	42a8      	cmp	r0, r5
 8006524:	d038      	beq.n	8006598 <pvPortMalloc+0xf8>
 8006526:	1ac9      	subs	r1, r1, r3
 8006528:	6828      	ldr	r0, [r5, #0]
 800652a:	6814      	ldr	r4, [r2, #0]
 800652c:	6010      	str	r0, [r2, #0]
 800652e:	2910      	cmp	r1, #16
 8006530:	d912      	bls.n	8006558 <pvPortMalloc+0xb8>
 8006532:	18e8      	adds	r0, r5, r3
 8006534:	0742      	lsls	r2, r0, #29
 8006536:	d00b      	beq.n	8006550 <pvPortMalloc+0xb0>
 8006538:	f04f 0350 	mov.w	r3, #80	; 0x50
 800653c:	f383 8811 	msr	BASEPRI, r3
 8006540:	f3bf 8f6f 	isb	sy
 8006544:	f3bf 8f4f 	dsb	sy
 8006548:	e7fe      	b.n	8006548 <pvPortMalloc+0xa8>
 800654a:	462a      	mov	r2, r5
 800654c:	4605      	mov	r5, r0
 800654e:	e7e1      	b.n	8006514 <pvPortMalloc+0x74>
 8006550:	6041      	str	r1, [r0, #4]
 8006552:	606b      	str	r3, [r5, #4]
 8006554:	f7ff ff80 	bl	8006458 <prvInsertBlockIntoFreeList>
 8006558:	686b      	ldr	r3, [r5, #4]
 800655a:	4917      	ldr	r1, [pc, #92]	; (80065b8 <pvPortMalloc+0x118>)
 800655c:	4a18      	ldr	r2, [pc, #96]	; (80065c0 <pvPortMalloc+0x120>)
 800655e:	6808      	ldr	r0, [r1, #0]
 8006560:	1af6      	subs	r6, r6, r3
 8006562:	431f      	orrs	r7, r3
 8006564:	2300      	movs	r3, #0
 8006566:	602b      	str	r3, [r5, #0]
 8006568:	6813      	ldr	r3, [r2, #0]
 800656a:	f8c8 6000 	str.w	r6, [r8]
 800656e:	4286      	cmp	r6, r0
 8006570:	f103 0301 	add.w	r3, r3, #1
 8006574:	bf38      	it	cc
 8006576:	600e      	strcc	r6, [r1, #0]
 8006578:	3408      	adds	r4, #8
 800657a:	606f      	str	r7, [r5, #4]
 800657c:	6013      	str	r3, [r2, #0]
 800657e:	f7ff f9df 	bl	8005940 <xTaskResumeAll>
 8006582:	0763      	lsls	r3, r4, #29
 8006584:	d00a      	beq.n	800659c <pvPortMalloc+0xfc>
 8006586:	f04f 0350 	mov.w	r3, #80	; 0x50
 800658a:	f383 8811 	msr	BASEPRI, r3
 800658e:	f3bf 8f6f 	isb	sy
 8006592:	f3bf 8f4f 	dsb	sy
 8006596:	e7fe      	b.n	8006596 <pvPortMalloc+0xf6>
 8006598:	2400      	movs	r4, #0
 800659a:	e7f0      	b.n	800657e <pvPortMalloc+0xde>
 800659c:	4620      	mov	r0, r4
 800659e:	e8bd 81f0 	ldmia.w	sp!, {r4, r5, r6, r7, r8, pc}
 80065a2:	bf00      	nop
 80065a4:	20000d80 	.word	0x20000d80
 80065a8:	20004984 	.word	0x20004984
 80065ac:	20000d84 	.word	0x20000d84
 80065b0:	20004998 	.word	0x20004998
 80065b4:	2000497c 	.word	0x2000497c
 80065b8:	2000498c 	.word	0x2000498c
 80065bc:	20004988 	.word	0x20004988
 80065c0:	20004990 	.word	0x20004990

080065c4 <vPortFree>:
 80065c4:	b510      	push	{r4, lr}
 80065c6:	4604      	mov	r4, r0
 80065c8:	b390      	cbz	r0, 8006630 <vPortFree+0x6c>
 80065ca:	4a1a      	ldr	r2, [pc, #104]	; (8006634 <vPortFree+0x70>)
 80065cc:	f850 3c04 	ldr.w	r3, [r0, #-4]
 80065d0:	6812      	ldr	r2, [r2, #0]
 80065d2:	4213      	tst	r3, r2
 80065d4:	d108      	bne.n	80065e8 <vPortFree+0x24>
 80065d6:	f04f 0350 	mov.w	r3, #80	; 0x50
 80065da:	f383 8811 	msr	BASEPRI, r3
 80065de:	f3bf 8f6f 	isb	sy
 80065e2:	f3bf 8f4f 	dsb	sy
 80065e6:	e7fe      	b.n	80065e6 <vPortFree+0x22>
 80065e8:	f850 1c08 	ldr.w	r1, [r0, #-8]
 80065ec:	b141      	cbz	r1, 8006600 <vPortFree+0x3c>
 80065ee:	f04f 0350 	mov.w	r3, #80	; 0x50
 80065f2:	f383 8811 	msr	BASEPRI, r3
 80065f6:	f3bf 8f6f 	isb	sy
 80065fa:	f3bf 8f4f 	dsb	sy
 80065fe:	e7fe      	b.n	80065fe <vPortFree+0x3a>
 8006600:	ea23 0302 	bic.w	r3, r3, r2
 8006604:	f840 3c04 	str.w	r3, [r0, #-4]
 8006608:	f7ff f8f6 	bl	80057f8 <vTaskSuspendAll>
 800660c:	4a0a      	ldr	r2, [pc, #40]	; (8006638 <vPortFree+0x74>)
 800660e:	f854 3c04 	ldr.w	r3, [r4, #-4]
 8006612:	6811      	ldr	r1, [r2, #0]
 8006614:	f1a4 0008 	sub.w	r0, r4, #8
 8006618:	440b      	add	r3, r1
 800661a:	6013      	str	r3, [r2, #0]
 800661c:	f7ff ff1c 	bl	8006458 <prvInsertBlockIntoFreeList>
 8006620:	4a06      	ldr	r2, [pc, #24]	; (800663c <vPortFree+0x78>)
 8006622:	6813      	ldr	r3, [r2, #0]
 8006624:	e8bd 4010 	ldmia.w	sp!, {r4, lr}
 8006628:	3301      	adds	r3, #1
 800662a:	6013      	str	r3, [r2, #0]
 800662c:	f7ff b988 	b.w	8005940 <xTaskResumeAll>
 8006630:	bd10      	pop	{r4, pc}
 8006632:	bf00      	nop
 8006634:	20004984 	.word	0x20004984
 8006638:	20004988 	.word	0x20004988
 800663c:	20004994 	.word	0x20004994

08006640 <OLED_WR_Byte>:
 8006640:	b570      	push	{r4, r5, r6, lr}
 8006642:	460a      	mov	r2, r1
 8006644:	4604      	mov	r4, r0
 8006646:	b101      	cbz	r1, 800664a <OLED_WR_Byte+0xa>
 8006648:	2201      	movs	r2, #1
 800664a:	4813      	ldr	r0, [pc, #76]	; (8006698 <OLED_WR_Byte+0x58>)
 800664c:	4e12      	ldr	r6, [pc, #72]	; (8006698 <OLED_WR_Byte+0x58>)
 800664e:	f44f 7180 	mov.w	r1, #256	; 0x100
 8006652:	f7fc fdeb 	bl	800322c <HAL_GPIO_WritePin>
 8006656:	2508      	movs	r5, #8
 8006658:	2200      	movs	r2, #0
 800665a:	2120      	movs	r1, #32
 800665c:	4630      	mov	r0, r6
 800665e:	f7fc fde5 	bl	800322c <HAL_GPIO_WritePin>
 8006662:	0623      	lsls	r3, r4, #24
 8006664:	bf4c      	ite	mi
 8006666:	2201      	movmi	r2, #1
 8006668:	2200      	movpl	r2, #0
 800666a:	2140      	movs	r1, #64	; 0x40
 800666c:	4630      	mov	r0, r6
 800666e:	f7fc fddd 	bl	800322c <HAL_GPIO_WritePin>
 8006672:	3d01      	subs	r5, #1
 8006674:	2201      	movs	r2, #1
 8006676:	2120      	movs	r1, #32
 8006678:	4630      	mov	r0, r6
 800667a:	f7fc fdd7 	bl	800322c <HAL_GPIO_WritePin>
 800667e:	0064      	lsls	r4, r4, #1
 8006680:	f015 05ff 	ands.w	r5, r5, #255	; 0xff
 8006684:	b2e4      	uxtb	r4, r4
 8006686:	d1e7      	bne.n	8006658 <OLED_WR_Byte+0x18>
 8006688:	e8bd 4070 	ldmia.w	sp!, {r4, r5, r6, lr}
 800668c:	4802      	ldr	r0, [pc, #8]	; (8006698 <OLED_WR_Byte+0x58>)
 800668e:	2201      	movs	r2, #1
 8006690:	f44f 7180 	mov.w	r1, #256	; 0x100
 8006694:	f7fc bdca 	b.w	800322c <HAL_GPIO_WritePin>
 8006698:	40021000 	.word	0x40021000

0800669c <OLED_Refresh_Gram>:
 800669c:	b570      	push	{r4, r5, r6, lr}
 800669e:	4e0f      	ldr	r6, [pc, #60]	; (80066dc <OLED_Refresh_Gram+0x40>)
 80066a0:	24b0      	movs	r4, #176	; 0xb0
 80066a2:	2100      	movs	r1, #0
 80066a4:	4620      	mov	r0, r4
 80066a6:	f7ff ffcb 	bl	8006640 <OLED_WR_Byte>
 80066aa:	2100      	movs	r1, #0
 80066ac:	4608      	mov	r0, r1
 80066ae:	f7ff ffc7 	bl	8006640 <OLED_WR_Byte>
 80066b2:	2100      	movs	r1, #0
 80066b4:	2010      	movs	r0, #16
 80066b6:	f7ff ffc3 	bl	8006640 <OLED_WR_Byte>
 80066ba:	2500      	movs	r5, #0
 80066bc:	f816 0035 	ldrb.w	r0, [r6, r5, lsl #3]
 80066c0:	2101      	movs	r1, #1
 80066c2:	3501      	adds	r5, #1
 80066c4:	f7ff ffbc 	bl	8006640 <OLED_WR_Byte>
 80066c8:	2d80      	cmp	r5, #128	; 0x80
 80066ca:	d1f7      	bne.n	80066bc <OLED_Refresh_Gram+0x20>
 80066cc:	3401      	adds	r4, #1
 80066ce:	b2e4      	uxtb	r4, r4
 80066d0:	2cb8      	cmp	r4, #184	; 0xb8
 80066d2:	f106 0601 	add.w	r6, r6, #1
 80066d6:	d1e4      	bne.n	80066a2 <OLED_Refresh_Gram+0x6>
 80066d8:	bd70      	pop	{r4, r5, r6, pc}
 80066da:	bf00      	nop
 80066dc:	20009c34 	.word	0x20009c34

080066e0 <OLED_Clear>:
 80066e0:	4908      	ldr	r1, [pc, #32]	; (8006704 <OLED_Clear+0x24>)
 80066e2:	2308      	movs	r3, #8
 80066e4:	2000      	movs	r0, #0
 80066e6:	2200      	movs	r2, #0
 80066e8:	f801 0032 	strb.w	r0, [r1, r2, lsl #3]
 80066ec:	3201      	adds	r2, #1
 80066ee:	2a80      	cmp	r2, #128	; 0x80
 80066f0:	d1fa      	bne.n	80066e8 <OLED_Clear+0x8>
 80066f2:	3b01      	subs	r3, #1
 80066f4:	f013 03ff 	ands.w	r3, r3, #255	; 0xff
 80066f8:	f101 0101 	add.w	r1, r1, #1
 80066fc:	d1f3      	bne.n	80066e6 <OLED_Clear+0x6>
 80066fe:	f7ff bfcd 	b.w	800669c <OLED_Refresh_Gram>
 8006702:	bf00      	nop
 8006704:	20009c34 	.word	0x20009c34

08006708 <OLED_DrawPoint>:
 8006708:	0603      	lsls	r3, r0, #24
 800670a:	b530      	push	{r4, r5, lr}
 800670c:	d413      	bmi.n	8006736 <OLED_DrawPoint+0x2e>
 800670e:	293f      	cmp	r1, #63	; 0x3f
 8006710:	d811      	bhi.n	8006736 <OLED_DrawPoint+0x2e>
 8006712:	f001 0507 	and.w	r5, r1, #7
 8006716:	4c0a      	ldr	r4, [pc, #40]	; (8006740 <OLED_DrawPoint+0x38>)
 8006718:	08c9      	lsrs	r1, r1, #3
 800671a:	f1c1 0107 	rsb	r1, r1, #7
 800671e:	b2c9      	uxtb	r1, r1
 8006720:	eb04 00c0 	add.w	r0, r4, r0, lsl #3
 8006724:	2301      	movs	r3, #1
 8006726:	f1c5 0507 	rsb	r5, r5, #7
 800672a:	fa03 f505 	lsl.w	r5, r3, r5
 800672e:	5c43      	ldrb	r3, [r0, r1]
 8006730:	b112      	cbz	r2, 8006738 <OLED_DrawPoint+0x30>
 8006732:	432b      	orrs	r3, r5
 8006734:	5443      	strb	r3, [r0, r1]
 8006736:	bd30      	pop	{r4, r5, pc}
 8006738:	ea23 0305 	bic.w	r3, r3, r5
 800673c:	e7fa      	b.n	8006734 <OLED_DrawPoint+0x2c>
 800673e:	bf00      	nop
 8006740:	20009c34 	.word	0x20009c34

08006744 <OLED_ShowChar>:
 8006744:	e92d 4ff7 	stmdb	sp!, {r0, r1, r2, r4, r5, r6, r7, r8, r9, sl, fp, lr}
 8006748:	461f      	mov	r7, r3
 800674a:	f1a2 0a20 	sub.w	sl, r2, #32
 800674e:	4b1f      	ldr	r3, [pc, #124]	; (80067cc <OLED_ShowChar+0x88>)
 8006750:	f89d b030 	ldrb.w	fp, [sp, #48]	; 0x30
 8006754:	fa5f fa8a 	uxtb.w	sl, sl
 8006758:	eb03 130a 	add.w	r3, r3, sl, lsl #4
 800675c:	9300      	str	r3, [sp, #0]
 800675e:	4b1c      	ldr	r3, [pc, #112]	; (80067d0 <OLED_ShowChar+0x8c>)
 8006760:	eb0a 0a4a 	add.w	sl, sl, sl, lsl #1
 8006764:	eb03 038a 	add.w	r3, r3, sl, lsl #2
 8006768:	4681      	mov	r9, r0
 800676a:	4688      	mov	r8, r1
 800676c:	9301      	str	r3, [sp, #4]
 800676e:	460c      	mov	r4, r1
 8006770:	2600      	movs	r6, #0
 8006772:	42b7      	cmp	r7, r6
 8006774:	d102      	bne.n	800677c <OLED_ShowChar+0x38>
 8006776:	b003      	add	sp, #12
 8006778:	e8bd 8ff0 	ldmia.w	sp!, {r4, r5, r6, r7, r8, r9, sl, fp, pc}
 800677c:	2f0c      	cmp	r7, #12
 800677e:	bf0c      	ite	eq
 8006780:	9b01      	ldreq	r3, [sp, #4]
 8006782:	9b00      	ldrne	r3, [sp, #0]
 8006784:	5d9d      	ldrb	r5, [r3, r6]
 8006786:	f104 0308 	add.w	r3, r4, #8
 800678a:	fa5f fa83 	uxtb.w	sl, r3
 800678e:	062b      	lsls	r3, r5, #24
 8006790:	bf58      	it	pl
 8006792:	fabb f28b 	clzpl	r2, fp
 8006796:	4621      	mov	r1, r4
 8006798:	f104 0401 	add.w	r4, r4, #1
 800679c:	bf4c      	ite	mi
 800679e:	465a      	movmi	r2, fp
 80067a0:	0952      	lsrpl	r2, r2, #5
 80067a2:	4648      	mov	r0, r9
 80067a4:	b2e4      	uxtb	r4, r4
 80067a6:	f7ff ffaf 	bl	8006708 <OLED_DrawPoint>
 80067aa:	eba4 0208 	sub.w	r2, r4, r8
 80067ae:	006d      	lsls	r5, r5, #1
 80067b0:	42ba      	cmp	r2, r7
 80067b2:	b2ed      	uxtb	r5, r5
 80067b4:	d107      	bne.n	80067c6 <OLED_ShowChar+0x82>
 80067b6:	f109 0001 	add.w	r0, r9, #1
 80067ba:	fa5f f980 	uxtb.w	r9, r0
 80067be:	46c2      	mov	sl, r8
 80067c0:	3601      	adds	r6, #1
 80067c2:	4654      	mov	r4, sl
 80067c4:	e7d5      	b.n	8006772 <OLED_ShowChar+0x2e>
 80067c6:	45a2      	cmp	sl, r4
 80067c8:	d1e1      	bne.n	800678e <OLED_ShowChar+0x4a>
 80067ca:	e7f9      	b.n	80067c0 <OLED_ShowChar+0x7c>
 80067cc:	08007a76 	.word	0x08007a76
 80067d0:	08007602 	.word	0x08007602

080067d4 <OLED_ShowString>:
 80067d4:	b5f7      	push	{r0, r1, r2, r4, r5, r6, r7, lr}
 80067d6:	4604      	mov	r4, r0
 80067d8:	460d      	mov	r5, r1
 80067da:	1e56      	subs	r6, r2, #1
 80067dc:	2701      	movs	r7, #1
 80067de:	f816 3f01 	ldrb.w	r3, [r6, #1]!
 80067e2:	b90b      	cbnz	r3, 80067e8 <OLED_ShowString+0x14>
 80067e4:	b003      	add	sp, #12
 80067e6:	bdf0      	pop	{r4, r5, r6, r7, pc}
 80067e8:	2c7a      	cmp	r4, #122	; 0x7a
 80067ea:	bf82      	ittt	hi
 80067ec:	3510      	addhi	r5, #16
 80067ee:	b2ed      	uxtbhi	r5, r5
 80067f0:	2400      	movhi	r4, #0
 80067f2:	2d3a      	cmp	r5, #58	; 0x3a
 80067f4:	d903      	bls.n	80067fe <OLED_ShowString+0x2a>
 80067f6:	f7ff ff73 	bl	80066e0 <OLED_Clear>
 80067fa:	2500      	movs	r5, #0
 80067fc:	462c      	mov	r4, r5
 80067fe:	9700      	str	r7, [sp, #0]
 8006800:	4620      	mov	r0, r4
 8006802:	7832      	ldrb	r2, [r6, #0]
 8006804:	230c      	movs	r3, #12
 8006806:	4629      	mov	r1, r5
 8006808:	3408      	adds	r4, #8
 800680a:	f7ff ff9b 	bl	8006744 <OLED_ShowChar>
 800680e:	b2e4      	uxtb	r4, r4
 8006810:	e7e5      	b.n	80067de <OLED_ShowString+0xa>
	...

08006814 <OLED_Init>:
 8006814:	b510      	push	{r4, lr}
 8006816:	f7fc fd23 	bl	8003260 <HAL_PWR_EnableBkUpAccess>
 800681a:	4b40      	ldr	r3, [pc, #256]	; (800691c <OLED_Init+0x108>)
 800681c:	4c40      	ldr	r4, [pc, #256]	; (8006920 <OLED_Init+0x10c>)
 800681e:	6f1a      	ldr	r2, [r3, #112]	; 0x70
 8006820:	f022 0201 	bic.w	r2, r2, #1
 8006824:	671a      	str	r2, [r3, #112]	; 0x70
 8006826:	6f1a      	ldr	r2, [r3, #112]	; 0x70
 8006828:	f022 0204 	bic.w	r2, r2, #4
 800682c:	671a      	str	r2, [r3, #112]	; 0x70
 800682e:	f7fc fd25 	bl	800327c <HAL_PWR_DisableBkUpAccess>
 8006832:	2200      	movs	r2, #0
 8006834:	2180      	movs	r1, #128	; 0x80
 8006836:	4620      	mov	r0, r4
 8006838:	f7fc fcf8 	bl	800322c <HAL_GPIO_WritePin>
 800683c:	2064      	movs	r0, #100	; 0x64
 800683e:	f7fc f937 	bl	8002ab0 <HAL_Delay>
 8006842:	2201      	movs	r2, #1
 8006844:	4620      	mov	r0, r4
 8006846:	2180      	movs	r1, #128	; 0x80
 8006848:	f7fc fcf0 	bl	800322c <HAL_GPIO_WritePin>
 800684c:	2100      	movs	r1, #0
 800684e:	20ae      	movs	r0, #174	; 0xae
 8006850:	f7ff fef6 	bl	8006640 <OLED_WR_Byte>
 8006854:	2100      	movs	r1, #0
 8006856:	20d5      	movs	r0, #213	; 0xd5
 8006858:	f7ff fef2 	bl	8006640 <OLED_WR_Byte>
 800685c:	2100      	movs	r1, #0
 800685e:	2050      	movs	r0, #80	; 0x50
 8006860:	f7ff feee 	bl	8006640 <OLED_WR_Byte>
 8006864:	2100      	movs	r1, #0
 8006866:	20a8      	movs	r0, #168	; 0xa8
 8006868:	f7ff feea 	bl	8006640 <OLED_WR_Byte>
 800686c:	2100      	movs	r1, #0
 800686e:	203f      	movs	r0, #63	; 0x3f
 8006870:	f7ff fee6 	bl	8006640 <OLED_WR_Byte>
 8006874:	2100      	movs	r1, #0
 8006876:	20d3      	movs	r0, #211	; 0xd3
 8006878:	f7ff fee2 	bl	8006640 <OLED_WR_Byte>
 800687c:	2100      	movs	r1, #0
 800687e:	4608      	mov	r0, r1
 8006880:	f7ff fede 	bl	8006640 <OLED_WR_Byte>
 8006884:	2100      	movs	r1, #0
 8006886:	2040      	movs	r0, #64	; 0x40
 8006888:	f7ff feda 	bl	8006640 <OLED_WR_Byte>
 800688c:	2100      	movs	r1, #0
 800688e:	208d      	movs	r0, #141	; 0x8d
 8006890:	f7ff fed6 	bl	8006640 <OLED_WR_Byte>
 8006894:	2100      	movs	r1, #0
 8006896:	2014      	movs	r0, #20
 8006898:	f7ff fed2 	bl	8006640 <OLED_WR_Byte>
 800689c:	2100      	movs	r1, #0
 800689e:	2020      	movs	r0, #32
 80068a0:	f7ff fece 	bl	8006640 <OLED_WR_Byte>
 80068a4:	2100      	movs	r1, #0
 80068a6:	2002      	movs	r0, #2
 80068a8:	f7ff feca 	bl	8006640 <OLED_WR_Byte>
 80068ac:	2100      	movs	r1, #0
 80068ae:	20a1      	movs	r0, #161	; 0xa1
 80068b0:	f7ff fec6 	bl	8006640 <OLED_WR_Byte>
 80068b4:	2100      	movs	r1, #0
 80068b6:	20c0      	movs	r0, #192	; 0xc0
 80068b8:	f7ff fec2 	bl	8006640 <OLED_WR_Byte>
 80068bc:	2100      	movs	r1, #0
 80068be:	20da      	movs	r0, #218	; 0xda
 80068c0:	f7ff febe 	bl	8006640 <OLED_WR_Byte>
 80068c4:	2100      	movs	r1, #0
 80068c6:	2012      	movs	r0, #18
 80068c8:	f7ff feba 	bl	8006640 <OLED_WR_Byte>
 80068cc:	2100      	movs	r1, #0
 80068ce:	2081      	movs	r0, #129	; 0x81
 80068d0:	f7ff feb6 	bl	8006640 <OLED_WR_Byte>
 80068d4:	2100      	movs	r1, #0
 80068d6:	20ef      	movs	r0, #239	; 0xef
 80068d8:	f7ff feb2 	bl	8006640 <OLED_WR_Byte>
 80068dc:	2100      	movs	r1, #0
 80068de:	20d9      	movs	r0, #217	; 0xd9
 80068e0:	f7ff feae 	bl	8006640 <OLED_WR_Byte>
 80068e4:	2100      	movs	r1, #0
 80068e6:	20f1      	movs	r0, #241	; 0xf1
 80068e8:	f7ff feaa 	bl	8006640 <OLED_WR_Byte>
 80068ec:	2100      	movs	r1, #0
 80068ee:	20db      	movs	r0, #219	; 0xdb
 80068f0:	f7ff fea6 	bl	8006640 <OLED_WR_Byte>
 80068f4:	2100      	movs	r1, #0
 80068f6:	2030      	movs	r0, #48	; 0x30
 80068f8:	f7ff fea2 	bl	8006640 <OLED_WR_Byte>
 80068fc:	2100      	movs	r1, #0
 80068fe:	20a4      	movs	r0, #164	; 0xa4
 8006900:	f7ff fe9e 	bl	8006640 <OLED_WR_Byte>
 8006904:	2100      	movs	r1, #0
 8006906:	20a6      	movs	r0, #166	; 0xa6
 8006908:	f7ff fe9a 	bl	8006640 <OLED_WR_Byte>
 800690c:	2100      	movs	r1, #0
 800690e:	20af      	movs	r0, #175	; 0xaf
 8006910:	f7ff fe96 	bl	8006640 <OLED_WR_Byte>
 8006914:	e8bd 4010 	ldmia.w	sp!, {r4, lr}
 8006918:	f7ff bee2 	b.w	80066e0 <OLED_Clear>
 800691c:	40023800 	.word	0x40023800
 8006920:	40021000 	.word	0x40021000

08006924 <atoi>:
 8006924:	220a      	movs	r2, #10
 8006926:	2100      	movs	r1, #0
 8006928:	f000 b900 	b.w	8006b2c <strtol>

0800692c <__errno>:
 800692c:	4b01      	ldr	r3, [pc, #4]	; (8006934 <__errno+0x8>)
 800692e:	6818      	ldr	r0, [r3, #0]
 8006930:	4770      	bx	lr
 8006932:	bf00      	nop
 8006934:	20000010 	.word	0x20000010

08006938 <__libc_init_array>:
 8006938:	b570      	push	{r4, r5, r6, lr}
 800693a:	4d0d      	ldr	r5, [pc, #52]	; (8006970 <__libc_init_array+0x38>)
 800693c:	4c0d      	ldr	r4, [pc, #52]	; (8006974 <__libc_init_array+0x3c>)
 800693e:	1b64      	subs	r4, r4, r5
 8006940:	10a4      	asrs	r4, r4, #2
 8006942:	2600      	movs	r6, #0
 8006944:	42a6      	cmp	r6, r4
 8006946:	d109      	bne.n	800695c <__libc_init_array+0x24>
 8006948:	4d0b      	ldr	r5, [pc, #44]	; (8006978 <__libc_init_array+0x40>)
 800694a:	4c0c      	ldr	r4, [pc, #48]	; (800697c <__libc_init_array+0x44>)
 800694c:	f000 fcf8 	bl	8007340 <_init>
 8006950:	1b64      	subs	r4, r4, r5
 8006952:	10a4      	asrs	r4, r4, #2
 8006954:	2600      	movs	r6, #0
 8006956:	42a6      	cmp	r6, r4
 8006958:	d105      	bne.n	8006966 <__libc_init_array+0x2e>
 800695a:	bd70      	pop	{r4, r5, r6, pc}
 800695c:	f855 3b04 	ldr.w	r3, [r5], #4
 8006960:	4798      	blx	r3
 8006962:	3601      	adds	r6, #1
 8006964:	e7ee      	b.n	8006944 <__libc_init_array+0xc>
 8006966:	f855 3b04 	ldr.w	r3, [r5], #4
 800696a:	4798      	blx	r3
 800696c:	3601      	adds	r6, #1
 800696e:	e7f2      	b.n	8006956 <__libc_init_array+0x1e>
 8006970:	080081a4 	.word	0x080081a4
 8006974:	080081a4 	.word	0x080081a4
 8006978:	080081a4 	.word	0x080081a4
 800697c:	080081a8 	.word	0x080081a8

08006980 <memcpy>:
 8006980:	440a      	add	r2, r1
 8006982:	4291      	cmp	r1, r2
 8006984:	f100 33ff 	add.w	r3, r0, #4294967295
 8006988:	d100      	bne.n	800698c <memcpy+0xc>
 800698a:	4770      	bx	lr
 800698c:	b510      	push	{r4, lr}
 800698e:	f811 4b01 	ldrb.w	r4, [r1], #1
 8006992:	f803 4f01 	strb.w	r4, [r3, #1]!
 8006996:	4291      	cmp	r1, r2
 8006998:	d1f9      	bne.n	800698e <memcpy+0xe>
 800699a:	bd10      	pop	{r4, pc}

0800699c <memset>:
 800699c:	4402      	add	r2, r0
 800699e:	4603      	mov	r3, r0
 80069a0:	4293      	cmp	r3, r2
 80069a2:	d100      	bne.n	80069a6 <memset+0xa>
 80069a4:	4770      	bx	lr
 80069a6:	f803 1b01 	strb.w	r1, [r3], #1
 80069aa:	e7f9      	b.n	80069a0 <memset+0x4>

080069ac <siprintf>:
 80069ac:	b40e      	push	{r1, r2, r3}
 80069ae:	b500      	push	{lr}
 80069b0:	b09c      	sub	sp, #112	; 0x70
 80069b2:	ab1d      	add	r3, sp, #116	; 0x74
 80069b4:	9002      	str	r0, [sp, #8]
 80069b6:	9006      	str	r0, [sp, #24]
 80069b8:	f06f 4100 	mvn.w	r1, #2147483648	; 0x80000000
 80069bc:	4809      	ldr	r0, [pc, #36]	; (80069e4 <siprintf+0x38>)
 80069be:	9107      	str	r1, [sp, #28]
 80069c0:	9104      	str	r1, [sp, #16]
 80069c2:	4909      	ldr	r1, [pc, #36]	; (80069e8 <siprintf+0x3c>)
 80069c4:	f853 2b04 	ldr.w	r2, [r3], #4
 80069c8:	9105      	str	r1, [sp, #20]
 80069ca:	6800      	ldr	r0, [r0, #0]
 80069cc:	9301      	str	r3, [sp, #4]
 80069ce:	a902      	add	r1, sp, #8
 80069d0:	f000 f912 	bl	8006bf8 <_svfiprintf_r>
 80069d4:	9b02      	ldr	r3, [sp, #8]
 80069d6:	2200      	movs	r2, #0
 80069d8:	701a      	strb	r2, [r3, #0]
 80069da:	b01c      	add	sp, #112	; 0x70
 80069dc:	f85d eb04 	ldr.w	lr, [sp], #4
 80069e0:	b003      	add	sp, #12
 80069e2:	4770      	bx	lr
 80069e4:	20000010 	.word	0x20000010
 80069e8:	ffff0208 	.word	0xffff0208

080069ec <strcpy>:
 80069ec:	4603      	mov	r3, r0
 80069ee:	f811 2b01 	ldrb.w	r2, [r1], #1
 80069f2:	f803 2b01 	strb.w	r2, [r3], #1
 80069f6:	2a00      	cmp	r2, #0
 80069f8:	d1f9      	bne.n	80069ee <strcpy+0x2>
 80069fa:	4770      	bx	lr

080069fc <strncpy>:
 80069fc:	b510      	push	{r4, lr}
 80069fe:	3901      	subs	r1, #1
 8006a00:	4603      	mov	r3, r0
 8006a02:	b132      	cbz	r2, 8006a12 <strncpy+0x16>
 8006a04:	f811 4f01 	ldrb.w	r4, [r1, #1]!
 8006a08:	f803 4b01 	strb.w	r4, [r3], #1
 8006a0c:	3a01      	subs	r2, #1
 8006a0e:	2c00      	cmp	r4, #0
 8006a10:	d1f7      	bne.n	8006a02 <strncpy+0x6>
 8006a12:	441a      	add	r2, r3
 8006a14:	2100      	movs	r1, #0
 8006a16:	4293      	cmp	r3, r2
 8006a18:	d100      	bne.n	8006a1c <strncpy+0x20>
 8006a1a:	bd10      	pop	{r4, pc}
 8006a1c:	f803 1b01 	strb.w	r1, [r3], #1
 8006a20:	e7f9      	b.n	8006a16 <strncpy+0x1a>
	...

08006a24 <_strtol_l.isra.0>:
 8006a24:	2b01      	cmp	r3, #1
 8006a26:	e92d 47f0 	stmdb	sp!, {r4, r5, r6, r7, r8, r9, sl, lr}
 8006a2a:	d001      	beq.n	8006a30 <_strtol_l.isra.0+0xc>
 8006a2c:	2b24      	cmp	r3, #36	; 0x24
 8006a2e:	d906      	bls.n	8006a3e <_strtol_l.isra.0+0x1a>
 8006a30:	f7ff ff7c 	bl	800692c <__errno>
 8006a34:	2316      	movs	r3, #22
 8006a36:	6003      	str	r3, [r0, #0]
 8006a38:	2000      	movs	r0, #0
 8006a3a:	e8bd 87f0 	ldmia.w	sp!, {r4, r5, r6, r7, r8, r9, sl, pc}
 8006a3e:	4f3a      	ldr	r7, [pc, #232]	; (8006b28 <_strtol_l.isra.0+0x104>)
 8006a40:	468e      	mov	lr, r1
 8006a42:	4676      	mov	r6, lr
 8006a44:	f81e 4b01 	ldrb.w	r4, [lr], #1
 8006a48:	5de5      	ldrb	r5, [r4, r7]
 8006a4a:	f015 0508 	ands.w	r5, r5, #8
 8006a4e:	d1f8      	bne.n	8006a42 <_strtol_l.isra.0+0x1e>
 8006a50:	2c2d      	cmp	r4, #45	; 0x2d
 8006a52:	d134      	bne.n	8006abe <_strtol_l.isra.0+0x9a>
 8006a54:	f89e 4000 	ldrb.w	r4, [lr]
 8006a58:	f04f 0801 	mov.w	r8, #1
 8006a5c:	f106 0e02 	add.w	lr, r6, #2
 8006a60:	2b00      	cmp	r3, #0
 8006a62:	d05c      	beq.n	8006b1e <_strtol_l.isra.0+0xfa>
 8006a64:	2b10      	cmp	r3, #16
 8006a66:	d10c      	bne.n	8006a82 <_strtol_l.isra.0+0x5e>
 8006a68:	2c30      	cmp	r4, #48	; 0x30
 8006a6a:	d10a      	bne.n	8006a82 <_strtol_l.isra.0+0x5e>
 8006a6c:	f89e 4000 	ldrb.w	r4, [lr]
 8006a70:	f004 04df 	and.w	r4, r4, #223	; 0xdf
 8006a74:	2c58      	cmp	r4, #88	; 0x58
 8006a76:	d14d      	bne.n	8006b14 <_strtol_l.isra.0+0xf0>
 8006a78:	f89e 4001 	ldrb.w	r4, [lr, #1]
 8006a7c:	2310      	movs	r3, #16
 8006a7e:	f10e 0e02 	add.w	lr, lr, #2
 8006a82:	f108 4c00 	add.w	ip, r8, #2147483648	; 0x80000000
 8006a86:	f10c 3cff 	add.w	ip, ip, #4294967295
 8006a8a:	2600      	movs	r6, #0
 8006a8c:	fbbc f9f3 	udiv	r9, ip, r3
 8006a90:	4635      	mov	r5, r6
 8006a92:	fb03 ca19 	mls	sl, r3, r9, ip
 8006a96:	f1a4 0730 	sub.w	r7, r4, #48	; 0x30
 8006a9a:	2f09      	cmp	r7, #9
 8006a9c:	d818      	bhi.n	8006ad0 <_strtol_l.isra.0+0xac>
 8006a9e:	463c      	mov	r4, r7
 8006aa0:	42a3      	cmp	r3, r4
 8006aa2:	dd24      	ble.n	8006aee <_strtol_l.isra.0+0xca>
 8006aa4:	2e00      	cmp	r6, #0
 8006aa6:	db1f      	blt.n	8006ae8 <_strtol_l.isra.0+0xc4>
 8006aa8:	45a9      	cmp	r9, r5
 8006aaa:	d31d      	bcc.n	8006ae8 <_strtol_l.isra.0+0xc4>
 8006aac:	d101      	bne.n	8006ab2 <_strtol_l.isra.0+0x8e>
 8006aae:	45a2      	cmp	sl, r4
 8006ab0:	db1a      	blt.n	8006ae8 <_strtol_l.isra.0+0xc4>
 8006ab2:	fb05 4503 	mla	r5, r5, r3, r4
 8006ab6:	2601      	movs	r6, #1
 8006ab8:	f81e 4b01 	ldrb.w	r4, [lr], #1
 8006abc:	e7eb      	b.n	8006a96 <_strtol_l.isra.0+0x72>
 8006abe:	2c2b      	cmp	r4, #43	; 0x2b
 8006ac0:	bf08      	it	eq
 8006ac2:	f89e 4000 	ldrbeq.w	r4, [lr]
 8006ac6:	46a8      	mov	r8, r5
 8006ac8:	bf08      	it	eq
 8006aca:	f106 0e02 	addeq.w	lr, r6, #2
 8006ace:	e7c7      	b.n	8006a60 <_strtol_l.isra.0+0x3c>
 8006ad0:	f1a4 0741 	sub.w	r7, r4, #65	; 0x41
 8006ad4:	2f19      	cmp	r7, #25
 8006ad6:	d801      	bhi.n	8006adc <_strtol_l.isra.0+0xb8>
 8006ad8:	3c37      	subs	r4, #55	; 0x37
 8006ada:	e7e1      	b.n	8006aa0 <_strtol_l.isra.0+0x7c>
 8006adc:	f1a4 0761 	sub.w	r7, r4, #97	; 0x61
 8006ae0:	2f19      	cmp	r7, #25
 8006ae2:	d804      	bhi.n	8006aee <_strtol_l.isra.0+0xca>
 8006ae4:	3c57      	subs	r4, #87	; 0x57
 8006ae6:	e7db      	b.n	8006aa0 <_strtol_l.isra.0+0x7c>
 8006ae8:	f04f 36ff 	mov.w	r6, #4294967295
 8006aec:	e7e4      	b.n	8006ab8 <_strtol_l.isra.0+0x94>
 8006aee:	2e00      	cmp	r6, #0
 8006af0:	da05      	bge.n	8006afe <_strtol_l.isra.0+0xda>
 8006af2:	2322      	movs	r3, #34	; 0x22
 8006af4:	6003      	str	r3, [r0, #0]
 8006af6:	4665      	mov	r5, ip
 8006af8:	b942      	cbnz	r2, 8006b0c <_strtol_l.isra.0+0xe8>
 8006afa:	4628      	mov	r0, r5
 8006afc:	e79d      	b.n	8006a3a <_strtol_l.isra.0+0x16>
 8006afe:	f1b8 0f00 	cmp.w	r8, #0
 8006b02:	d000      	beq.n	8006b06 <_strtol_l.isra.0+0xe2>
 8006b04:	426d      	negs	r5, r5
 8006b06:	2a00      	cmp	r2, #0
 8006b08:	d0f7      	beq.n	8006afa <_strtol_l.isra.0+0xd6>
 8006b0a:	b10e      	cbz	r6, 8006b10 <_strtol_l.isra.0+0xec>
 8006b0c:	f10e 31ff 	add.w	r1, lr, #4294967295
 8006b10:	6011      	str	r1, [r2, #0]
 8006b12:	e7f2      	b.n	8006afa <_strtol_l.isra.0+0xd6>
 8006b14:	2430      	movs	r4, #48	; 0x30
 8006b16:	2b00      	cmp	r3, #0
 8006b18:	d1b3      	bne.n	8006a82 <_strtol_l.isra.0+0x5e>
 8006b1a:	2308      	movs	r3, #8
 8006b1c:	e7b1      	b.n	8006a82 <_strtol_l.isra.0+0x5e>
 8006b1e:	2c30      	cmp	r4, #48	; 0x30
 8006b20:	d0a4      	beq.n	8006a6c <_strtol_l.isra.0+0x48>
 8006b22:	230a      	movs	r3, #10
 8006b24:	e7ad      	b.n	8006a82 <_strtol_l.isra.0+0x5e>
 8006b26:	bf00      	nop
 8006b28:	08008067 	.word	0x08008067

08006b2c <strtol>:
 8006b2c:	4613      	mov	r3, r2
 8006b2e:	460a      	mov	r2, r1
 8006b30:	4601      	mov	r1, r0
 8006b32:	4802      	ldr	r0, [pc, #8]	; (8006b3c <strtol+0x10>)
 8006b34:	6800      	ldr	r0, [r0, #0]
 8006b36:	f7ff bf75 	b.w	8006a24 <_strtol_l.isra.0>
 8006b3a:	bf00      	nop
 8006b3c:	20000010 	.word	0x20000010

08006b40 <__ssputs_r>:
 8006b40:	e92d 47f0 	stmdb	sp!, {r4, r5, r6, r7, r8, r9, sl, lr}
 8006b44:	688e      	ldr	r6, [r1, #8]
 8006b46:	429e      	cmp	r6, r3
 8006b48:	4682      	mov	sl, r0
 8006b4a:	460c      	mov	r4, r1
 8006b4c:	4690      	mov	r8, r2
 8006b4e:	461f      	mov	r7, r3
 8006b50:	d838      	bhi.n	8006bc4 <__ssputs_r+0x84>
 8006b52:	898a      	ldrh	r2, [r1, #12]
 8006b54:	f412 6f90 	tst.w	r2, #1152	; 0x480
 8006b58:	d032      	beq.n	8006bc0 <__ssputs_r+0x80>
 8006b5a:	6825      	ldr	r5, [r4, #0]
 8006b5c:	6909      	ldr	r1, [r1, #16]
 8006b5e:	eba5 0901 	sub.w	r9, r5, r1
 8006b62:	6965      	ldr	r5, [r4, #20]
 8006b64:	eb05 0545 	add.w	r5, r5, r5, lsl #1
 8006b68:	eb05 75d5 	add.w	r5, r5, r5, lsr #31
 8006b6c:	3301      	adds	r3, #1
 8006b6e:	444b      	add	r3, r9
 8006b70:	106d      	asrs	r5, r5, #1
 8006b72:	429d      	cmp	r5, r3
 8006b74:	bf38      	it	cc
 8006b76:	461d      	movcc	r5, r3
 8006b78:	0553      	lsls	r3, r2, #21
 8006b7a:	d531      	bpl.n	8006be0 <__ssputs_r+0xa0>
 8006b7c:	4629      	mov	r1, r5
 8006b7e:	f000 fb39 	bl	80071f4 <_malloc_r>
 8006b82:	4606      	mov	r6, r0
 8006b84:	b950      	cbnz	r0, 8006b9c <__ssputs_r+0x5c>
 8006b86:	230c      	movs	r3, #12
 8006b88:	f8ca 3000 	str.w	r3, [sl]
 8006b8c:	89a3      	ldrh	r3, [r4, #12]
 8006b8e:	f043 0340 	orr.w	r3, r3, #64	; 0x40
 8006b92:	81a3      	strh	r3, [r4, #12]
 8006b94:	f04f 30ff 	mov.w	r0, #4294967295
 8006b98:	e8bd 87f0 	ldmia.w	sp!, {r4, r5, r6, r7, r8, r9, sl, pc}
 8006b9c:	6921      	ldr	r1, [r4, #16]
 8006b9e:	464a      	mov	r2, r9
 8006ba0:	f7ff feee 	bl	8006980 <memcpy>
 8006ba4:	89a3      	ldrh	r3, [r4, #12]
 8006ba6:	f423 6390 	bic.w	r3, r3, #1152	; 0x480
 8006baa:	f043 0380 	orr.w	r3, r3, #128	; 0x80
 8006bae:	81a3      	strh	r3, [r4, #12]
 8006bb0:	6126      	str	r6, [r4, #16]
 8006bb2:	6165      	str	r5, [r4, #20]
 8006bb4:	444e      	add	r6, r9
 8006bb6:	eba5 0509 	sub.w	r5, r5, r9
 8006bba:	6026      	str	r6, [r4, #0]
 8006bbc:	60a5      	str	r5, [r4, #8]
 8006bbe:	463e      	mov	r6, r7
 8006bc0:	42be      	cmp	r6, r7
 8006bc2:	d900      	bls.n	8006bc6 <__ssputs_r+0x86>
 8006bc4:	463e      	mov	r6, r7
 8006bc6:	4632      	mov	r2, r6
 8006bc8:	6820      	ldr	r0, [r4, #0]
 8006bca:	4641      	mov	r1, r8
 8006bcc:	f000 faa8 	bl	8007120 <memmove>
 8006bd0:	68a3      	ldr	r3, [r4, #8]
 8006bd2:	6822      	ldr	r2, [r4, #0]
 8006bd4:	1b9b      	subs	r3, r3, r6
 8006bd6:	4432      	add	r2, r6
 8006bd8:	60a3      	str	r3, [r4, #8]
 8006bda:	6022      	str	r2, [r4, #0]
 8006bdc:	2000      	movs	r0, #0
 8006bde:	e7db      	b.n	8006b98 <__ssputs_r+0x58>
 8006be0:	462a      	mov	r2, r5
 8006be2:	f000 fb61 	bl	80072a8 <_realloc_r>
 8006be6:	4606      	mov	r6, r0
 8006be8:	2800      	cmp	r0, #0
 8006bea:	d1e1      	bne.n	8006bb0 <__ssputs_r+0x70>
 8006bec:	6921      	ldr	r1, [r4, #16]
 8006bee:	4650      	mov	r0, sl
 8006bf0:	f000 fab0 	bl	8007154 <_free_r>
 8006bf4:	e7c7      	b.n	8006b86 <__ssputs_r+0x46>
	...

08006bf8 <_svfiprintf_r>:
 8006bf8:	e92d 4ff0 	stmdb	sp!, {r4, r5, r6, r7, r8, r9, sl, fp, lr}
 8006bfc:	4698      	mov	r8, r3
 8006bfe:	898b      	ldrh	r3, [r1, #12]
 8006c00:	061b      	lsls	r3, r3, #24
 8006c02:	b09d      	sub	sp, #116	; 0x74
 8006c04:	4607      	mov	r7, r0
 8006c06:	460d      	mov	r5, r1
 8006c08:	4614      	mov	r4, r2
 8006c0a:	d50e      	bpl.n	8006c2a <_svfiprintf_r+0x32>
 8006c0c:	690b      	ldr	r3, [r1, #16]
 8006c0e:	b963      	cbnz	r3, 8006c2a <_svfiprintf_r+0x32>
 8006c10:	2140      	movs	r1, #64	; 0x40
 8006c12:	f000 faef 	bl	80071f4 <_malloc_r>
 8006c16:	6028      	str	r0, [r5, #0]
 8006c18:	6128      	str	r0, [r5, #16]
 8006c1a:	b920      	cbnz	r0, 8006c26 <_svfiprintf_r+0x2e>
 8006c1c:	230c      	movs	r3, #12
 8006c1e:	603b      	str	r3, [r7, #0]
 8006c20:	f04f 30ff 	mov.w	r0, #4294967295
 8006c24:	e0d1      	b.n	8006dca <_svfiprintf_r+0x1d2>
 8006c26:	2340      	movs	r3, #64	; 0x40
 8006c28:	616b      	str	r3, [r5, #20]
 8006c2a:	2300      	movs	r3, #0
 8006c2c:	9309      	str	r3, [sp, #36]	; 0x24
 8006c2e:	2320      	movs	r3, #32
 8006c30:	f88d 3029 	strb.w	r3, [sp, #41]	; 0x29
 8006c34:	f8cd 800c 	str.w	r8, [sp, #12]
 8006c38:	2330      	movs	r3, #48	; 0x30
 8006c3a:	f8df 81a8 	ldr.w	r8, [pc, #424]	; 8006de4 <_svfiprintf_r+0x1ec>
 8006c3e:	f88d 302a 	strb.w	r3, [sp, #42]	; 0x2a
 8006c42:	f04f 0901 	mov.w	r9, #1
 8006c46:	4623      	mov	r3, r4
 8006c48:	469a      	mov	sl, r3
 8006c4a:	f813 2b01 	ldrb.w	r2, [r3], #1
 8006c4e:	b10a      	cbz	r2, 8006c54 <_svfiprintf_r+0x5c>
 8006c50:	2a25      	cmp	r2, #37	; 0x25
 8006c52:	d1f9      	bne.n	8006c48 <_svfiprintf_r+0x50>
 8006c54:	ebba 0b04 	subs.w	fp, sl, r4
 8006c58:	d00b      	beq.n	8006c72 <_svfiprintf_r+0x7a>
 8006c5a:	465b      	mov	r3, fp
 8006c5c:	4622      	mov	r2, r4
 8006c5e:	4629      	mov	r1, r5
 8006c60:	4638      	mov	r0, r7
 8006c62:	f7ff ff6d 	bl	8006b40 <__ssputs_r>
 8006c66:	3001      	adds	r0, #1
 8006c68:	f000 80aa 	beq.w	8006dc0 <_svfiprintf_r+0x1c8>
 8006c6c:	9a09      	ldr	r2, [sp, #36]	; 0x24
 8006c6e:	445a      	add	r2, fp
 8006c70:	9209      	str	r2, [sp, #36]	; 0x24
 8006c72:	f89a 3000 	ldrb.w	r3, [sl]
 8006c76:	2b00      	cmp	r3, #0
 8006c78:	f000 80a2 	beq.w	8006dc0 <_svfiprintf_r+0x1c8>
 8006c7c:	2300      	movs	r3, #0
 8006c7e:	f04f 32ff 	mov.w	r2, #4294967295
 8006c82:	e9cd 2305 	strd	r2, r3, [sp, #20]
 8006c86:	f10a 0a01 	add.w	sl, sl, #1
 8006c8a:	9304      	str	r3, [sp, #16]
 8006c8c:	9307      	str	r3, [sp, #28]
 8006c8e:	f88d 3053 	strb.w	r3, [sp, #83]	; 0x53
 8006c92:	931a      	str	r3, [sp, #104]	; 0x68
 8006c94:	4654      	mov	r4, sl
 8006c96:	2205      	movs	r2, #5
 8006c98:	f814 1b01 	ldrb.w	r1, [r4], #1
 8006c9c:	4851      	ldr	r0, [pc, #324]	; (8006de4 <_svfiprintf_r+0x1ec>)
 8006c9e:	f7f9 fa97 	bl	80001d0 <memchr>
 8006ca2:	9a04      	ldr	r2, [sp, #16]
 8006ca4:	b9d8      	cbnz	r0, 8006cde <_svfiprintf_r+0xe6>
 8006ca6:	06d0      	lsls	r0, r2, #27
 8006ca8:	bf44      	itt	mi
 8006caa:	2320      	movmi	r3, #32
 8006cac:	f88d 3053 	strbmi.w	r3, [sp, #83]	; 0x53
 8006cb0:	0711      	lsls	r1, r2, #28
 8006cb2:	bf44      	itt	mi
 8006cb4:	232b      	movmi	r3, #43	; 0x2b
 8006cb6:	f88d 3053 	strbmi.w	r3, [sp, #83]	; 0x53
 8006cba:	f89a 3000 	ldrb.w	r3, [sl]
 8006cbe:	2b2a      	cmp	r3, #42	; 0x2a
 8006cc0:	d015      	beq.n	8006cee <_svfiprintf_r+0xf6>
 8006cc2:	9a07      	ldr	r2, [sp, #28]
 8006cc4:	4654      	mov	r4, sl
 8006cc6:	2000      	movs	r0, #0
 8006cc8:	f04f 0c0a 	mov.w	ip, #10
 8006ccc:	4621      	mov	r1, r4
 8006cce:	f811 3b01 	ldrb.w	r3, [r1], #1
 8006cd2:	3b30      	subs	r3, #48	; 0x30
 8006cd4:	2b09      	cmp	r3, #9
 8006cd6:	d94e      	bls.n	8006d76 <_svfiprintf_r+0x17e>
 8006cd8:	b1b0      	cbz	r0, 8006d08 <_svfiprintf_r+0x110>
 8006cda:	9207      	str	r2, [sp, #28]
 8006cdc:	e014      	b.n	8006d08 <_svfiprintf_r+0x110>
 8006cde:	eba0 0308 	sub.w	r3, r0, r8
 8006ce2:	fa09 f303 	lsl.w	r3, r9, r3
 8006ce6:	4313      	orrs	r3, r2
 8006ce8:	9304      	str	r3, [sp, #16]
 8006cea:	46a2      	mov	sl, r4
 8006cec:	e7d2      	b.n	8006c94 <_svfiprintf_r+0x9c>
 8006cee:	9b03      	ldr	r3, [sp, #12]
 8006cf0:	1d19      	adds	r1, r3, #4
 8006cf2:	681b      	ldr	r3, [r3, #0]
 8006cf4:	9103      	str	r1, [sp, #12]
 8006cf6:	2b00      	cmp	r3, #0
 8006cf8:	bfbb      	ittet	lt
 8006cfa:	425b      	neglt	r3, r3
 8006cfc:	f042 0202 	orrlt.w	r2, r2, #2
 8006d00:	9307      	strge	r3, [sp, #28]
 8006d02:	9307      	strlt	r3, [sp, #28]
 8006d04:	bfb8      	it	lt
 8006d06:	9204      	strlt	r2, [sp, #16]
 8006d08:	7823      	ldrb	r3, [r4, #0]
 8006d0a:	2b2e      	cmp	r3, #46	; 0x2e
 8006d0c:	d10c      	bne.n	8006d28 <_svfiprintf_r+0x130>
 8006d0e:	7863      	ldrb	r3, [r4, #1]
 8006d10:	2b2a      	cmp	r3, #42	; 0x2a
 8006d12:	d135      	bne.n	8006d80 <_svfiprintf_r+0x188>
 8006d14:	9b03      	ldr	r3, [sp, #12]
 8006d16:	1d1a      	adds	r2, r3, #4
 8006d18:	681b      	ldr	r3, [r3, #0]
 8006d1a:	9203      	str	r2, [sp, #12]
 8006d1c:	2b00      	cmp	r3, #0
 8006d1e:	bfb8      	it	lt
 8006d20:	f04f 33ff 	movlt.w	r3, #4294967295
 8006d24:	3402      	adds	r4, #2
 8006d26:	9305      	str	r3, [sp, #20]
 8006d28:	f8df a0c8 	ldr.w	sl, [pc, #200]	; 8006df4 <_svfiprintf_r+0x1fc>
 8006d2c:	7821      	ldrb	r1, [r4, #0]
 8006d2e:	2203      	movs	r2, #3
 8006d30:	4650      	mov	r0, sl
 8006d32:	f7f9 fa4d 	bl	80001d0 <memchr>
 8006d36:	b140      	cbz	r0, 8006d4a <_svfiprintf_r+0x152>
 8006d38:	2340      	movs	r3, #64	; 0x40
 8006d3a:	eba0 000a 	sub.w	r0, r0, sl
 8006d3e:	fa03 f000 	lsl.w	r0, r3, r0
 8006d42:	9b04      	ldr	r3, [sp, #16]
 8006d44:	4303      	orrs	r3, r0
 8006d46:	3401      	adds	r4, #1
 8006d48:	9304      	str	r3, [sp, #16]
 8006d4a:	f814 1b01 	ldrb.w	r1, [r4], #1
 8006d4e:	4826      	ldr	r0, [pc, #152]	; (8006de8 <_svfiprintf_r+0x1f0>)
 8006d50:	f88d 1028 	strb.w	r1, [sp, #40]	; 0x28
 8006d54:	2206      	movs	r2, #6
 8006d56:	f7f9 fa3b 	bl	80001d0 <memchr>
 8006d5a:	2800      	cmp	r0, #0
 8006d5c:	d038      	beq.n	8006dd0 <_svfiprintf_r+0x1d8>
 8006d5e:	4b23      	ldr	r3, [pc, #140]	; (8006dec <_svfiprintf_r+0x1f4>)
 8006d60:	bb1b      	cbnz	r3, 8006daa <_svfiprintf_r+0x1b2>
 8006d62:	9b03      	ldr	r3, [sp, #12]
 8006d64:	3307      	adds	r3, #7
 8006d66:	f023 0307 	bic.w	r3, r3, #7
 8006d6a:	3308      	adds	r3, #8
 8006d6c:	9303      	str	r3, [sp, #12]
 8006d6e:	9b09      	ldr	r3, [sp, #36]	; 0x24
 8006d70:	4433      	add	r3, r6
 8006d72:	9309      	str	r3, [sp, #36]	; 0x24
 8006d74:	e767      	b.n	8006c46 <_svfiprintf_r+0x4e>
 8006d76:	fb0c 3202 	mla	r2, ip, r2, r3
 8006d7a:	460c      	mov	r4, r1
 8006d7c:	2001      	movs	r0, #1
 8006d7e:	e7a5      	b.n	8006ccc <_svfiprintf_r+0xd4>
 8006d80:	2300      	movs	r3, #0
 8006d82:	3401      	adds	r4, #1
 8006d84:	9305      	str	r3, [sp, #20]
 8006d86:	4619      	mov	r1, r3
 8006d88:	f04f 0c0a 	mov.w	ip, #10
 8006d8c:	4620      	mov	r0, r4
 8006d8e:	f810 2b01 	ldrb.w	r2, [r0], #1
 8006d92:	3a30      	subs	r2, #48	; 0x30
 8006d94:	2a09      	cmp	r2, #9
 8006d96:	d903      	bls.n	8006da0 <_svfiprintf_r+0x1a8>
 8006d98:	2b00      	cmp	r3, #0
 8006d9a:	d0c5      	beq.n	8006d28 <_svfiprintf_r+0x130>
 8006d9c:	9105      	str	r1, [sp, #20]
 8006d9e:	e7c3      	b.n	8006d28 <_svfiprintf_r+0x130>
 8006da0:	fb0c 2101 	mla	r1, ip, r1, r2
 8006da4:	4604      	mov	r4, r0
 8006da6:	2301      	movs	r3, #1
 8006da8:	e7f0      	b.n	8006d8c <_svfiprintf_r+0x194>
 8006daa:	ab03      	add	r3, sp, #12
 8006dac:	9300      	str	r3, [sp, #0]
 8006dae:	462a      	mov	r2, r5
 8006db0:	4b0f      	ldr	r3, [pc, #60]	; (8006df0 <_svfiprintf_r+0x1f8>)
 8006db2:	a904      	add	r1, sp, #16
 8006db4:	4638      	mov	r0, r7
 8006db6:	f3af 8000 	nop.w
 8006dba:	1c42      	adds	r2, r0, #1
 8006dbc:	4606      	mov	r6, r0
 8006dbe:	d1d6      	bne.n	8006d6e <_svfiprintf_r+0x176>
 8006dc0:	89ab      	ldrh	r3, [r5, #12]
 8006dc2:	065b      	lsls	r3, r3, #25
 8006dc4:	f53f af2c 	bmi.w	8006c20 <_svfiprintf_r+0x28>
 8006dc8:	9809      	ldr	r0, [sp, #36]	; 0x24
 8006dca:	b01d      	add	sp, #116	; 0x74
 8006dcc:	e8bd 8ff0 	ldmia.w	sp!, {r4, r5, r6, r7, r8, r9, sl, fp, pc}
 8006dd0:	ab03      	add	r3, sp, #12
 8006dd2:	9300      	str	r3, [sp, #0]
 8006dd4:	462a      	mov	r2, r5
 8006dd6:	4b06      	ldr	r3, [pc, #24]	; (8006df0 <_svfiprintf_r+0x1f8>)
 8006dd8:	a904      	add	r1, sp, #16
 8006dda:	4638      	mov	r0, r7
 8006ddc:	f000 f87a 	bl	8006ed4 <_printf_i>
 8006de0:	e7eb      	b.n	8006dba <_svfiprintf_r+0x1c2>
 8006de2:	bf00      	nop
 8006de4:	08008167 	.word	0x08008167
 8006de8:	08008171 	.word	0x08008171
 8006dec:	00000000 	.word	0x00000000
 8006df0:	08006b41 	.word	0x08006b41
 8006df4:	0800816d 	.word	0x0800816d

08006df8 <_printf_common>:
 8006df8:	e92d 47f0 	stmdb	sp!, {r4, r5, r6, r7, r8, r9, sl, lr}
 8006dfc:	4616      	mov	r6, r2
 8006dfe:	4699      	mov	r9, r3
 8006e00:	688a      	ldr	r2, [r1, #8]
 8006e02:	690b      	ldr	r3, [r1, #16]
 8006e04:	f8dd 8020 	ldr.w	r8, [sp, #32]
 8006e08:	4293      	cmp	r3, r2
 8006e0a:	bfb8      	it	lt
 8006e0c:	4613      	movlt	r3, r2
 8006e0e:	6033      	str	r3, [r6, #0]
 8006e10:	f891 2043 	ldrb.w	r2, [r1, #67]	; 0x43
 8006e14:	4607      	mov	r7, r0
 8006e16:	460c      	mov	r4, r1
 8006e18:	b10a      	cbz	r2, 8006e1e <_printf_common+0x26>
 8006e1a:	3301      	adds	r3, #1
 8006e1c:	6033      	str	r3, [r6, #0]
 8006e1e:	6823      	ldr	r3, [r4, #0]
 8006e20:	0699      	lsls	r1, r3, #26
 8006e22:	bf42      	ittt	mi
 8006e24:	6833      	ldrmi	r3, [r6, #0]
 8006e26:	3302      	addmi	r3, #2
 8006e28:	6033      	strmi	r3, [r6, #0]
 8006e2a:	6825      	ldr	r5, [r4, #0]
 8006e2c:	f015 0506 	ands.w	r5, r5, #6
 8006e30:	d106      	bne.n	8006e40 <_printf_common+0x48>
 8006e32:	f104 0a19 	add.w	sl, r4, #25
 8006e36:	68e3      	ldr	r3, [r4, #12]
 8006e38:	6832      	ldr	r2, [r6, #0]
 8006e3a:	1a9b      	subs	r3, r3, r2
 8006e3c:	42ab      	cmp	r3, r5
 8006e3e:	dc26      	bgt.n	8006e8e <_printf_common+0x96>
 8006e40:	f894 2043 	ldrb.w	r2, [r4, #67]	; 0x43
 8006e44:	1e13      	subs	r3, r2, #0
 8006e46:	6822      	ldr	r2, [r4, #0]
 8006e48:	bf18      	it	ne
 8006e4a:	2301      	movne	r3, #1
 8006e4c:	0692      	lsls	r2, r2, #26
 8006e4e:	d42b      	bmi.n	8006ea8 <_printf_common+0xb0>
 8006e50:	f104 0243 	add.w	r2, r4, #67	; 0x43
 8006e54:	4649      	mov	r1, r9
 8006e56:	4638      	mov	r0, r7
 8006e58:	47c0      	blx	r8
 8006e5a:	3001      	adds	r0, #1
 8006e5c:	d01e      	beq.n	8006e9c <_printf_common+0xa4>
 8006e5e:	6823      	ldr	r3, [r4, #0]
 8006e60:	68e5      	ldr	r5, [r4, #12]
 8006e62:	6832      	ldr	r2, [r6, #0]
 8006e64:	f003 0306 	and.w	r3, r3, #6
 8006e68:	2b04      	cmp	r3, #4
 8006e6a:	bf08      	it	eq
 8006e6c:	1aad      	subeq	r5, r5, r2
 8006e6e:	68a3      	ldr	r3, [r4, #8]
 8006e70:	6922      	ldr	r2, [r4, #16]
 8006e72:	bf0c      	ite	eq
 8006e74:	ea25 75e5 	biceq.w	r5, r5, r5, asr #31
 8006e78:	2500      	movne	r5, #0
 8006e7a:	4293      	cmp	r3, r2
 8006e7c:	bfc4      	itt	gt
 8006e7e:	1a9b      	subgt	r3, r3, r2
 8006e80:	18ed      	addgt	r5, r5, r3
 8006e82:	2600      	movs	r6, #0
 8006e84:	341a      	adds	r4, #26
 8006e86:	42b5      	cmp	r5, r6
 8006e88:	d11a      	bne.n	8006ec0 <_printf_common+0xc8>
 8006e8a:	2000      	movs	r0, #0
 8006e8c:	e008      	b.n	8006ea0 <_printf_common+0xa8>
 8006e8e:	2301      	movs	r3, #1
 8006e90:	4652      	mov	r2, sl
 8006e92:	4649      	mov	r1, r9
 8006e94:	4638      	mov	r0, r7
 8006e96:	47c0      	blx	r8
 8006e98:	3001      	adds	r0, #1
 8006e9a:	d103      	bne.n	8006ea4 <_printf_common+0xac>
 8006e9c:	f04f 30ff 	mov.w	r0, #4294967295
 8006ea0:	e8bd 87f0 	ldmia.w	sp!, {r4, r5, r6, r7, r8, r9, sl, pc}
 8006ea4:	3501      	adds	r5, #1
 8006ea6:	e7c6      	b.n	8006e36 <_printf_common+0x3e>
 8006ea8:	18e1      	adds	r1, r4, r3
 8006eaa:	1c5a      	adds	r2, r3, #1
 8006eac:	2030      	movs	r0, #48	; 0x30
 8006eae:	f881 0043 	strb.w	r0, [r1, #67]	; 0x43
 8006eb2:	4422      	add	r2, r4
 8006eb4:	f894 1045 	ldrb.w	r1, [r4, #69]	; 0x45
 8006eb8:	f882 1043 	strb.w	r1, [r2, #67]	; 0x43
 8006ebc:	3302      	adds	r3, #2
 8006ebe:	e7c7      	b.n	8006e50 <_printf_common+0x58>
 8006ec0:	2301      	movs	r3, #1
 8006ec2:	4622      	mov	r2, r4
 8006ec4:	4649      	mov	r1, r9
 8006ec6:	4638      	mov	r0, r7
 8006ec8:	47c0      	blx	r8
 8006eca:	3001      	adds	r0, #1
 8006ecc:	d0e6      	beq.n	8006e9c <_printf_common+0xa4>
 8006ece:	3601      	adds	r6, #1
 8006ed0:	e7d9      	b.n	8006e86 <_printf_common+0x8e>
	...

08006ed4 <_printf_i>:
 8006ed4:	e92d 47ff 	stmdb	sp!, {r0, r1, r2, r3, r4, r5, r6, r7, r8, r9, sl, lr}
 8006ed8:	460c      	mov	r4, r1
 8006eda:	4691      	mov	r9, r2
 8006edc:	7e27      	ldrb	r7, [r4, #24]
 8006ede:	990c      	ldr	r1, [sp, #48]	; 0x30
 8006ee0:	2f78      	cmp	r7, #120	; 0x78
 8006ee2:	4680      	mov	r8, r0
 8006ee4:	469a      	mov	sl, r3
 8006ee6:	f104 0243 	add.w	r2, r4, #67	; 0x43
 8006eea:	d807      	bhi.n	8006efc <_printf_i+0x28>
 8006eec:	2f62      	cmp	r7, #98	; 0x62
 8006eee:	d80a      	bhi.n	8006f06 <_printf_i+0x32>
 8006ef0:	2f00      	cmp	r7, #0
 8006ef2:	f000 80d8 	beq.w	80070a6 <_printf_i+0x1d2>
 8006ef6:	2f58      	cmp	r7, #88	; 0x58
 8006ef8:	f000 80a3 	beq.w	8007042 <_printf_i+0x16e>
 8006efc:	f104 0642 	add.w	r6, r4, #66	; 0x42
 8006f00:	f884 7042 	strb.w	r7, [r4, #66]	; 0x42
 8006f04:	e03a      	b.n	8006f7c <_printf_i+0xa8>
 8006f06:	f1a7 0363 	sub.w	r3, r7, #99	; 0x63
 8006f0a:	2b15      	cmp	r3, #21
 8006f0c:	d8f6      	bhi.n	8006efc <_printf_i+0x28>
 8006f0e:	a001      	add	r0, pc, #4	; (adr r0, 8006f14 <_printf_i+0x40>)
 8006f10:	f850 f023 	ldr.w	pc, [r0, r3, lsl #2]
 8006f14:	08006f6d 	.word	0x08006f6d
 8006f18:	08006f81 	.word	0x08006f81
 8006f1c:	08006efd 	.word	0x08006efd
 8006f20:	08006efd 	.word	0x08006efd
 8006f24:	08006efd 	.word	0x08006efd
 8006f28:	08006efd 	.word	0x08006efd
 8006f2c:	08006f81 	.word	0x08006f81
 8006f30:	08006efd 	.word	0x08006efd
 8006f34:	08006efd 	.word	0x08006efd
 8006f38:	08006efd 	.word	0x08006efd
 8006f3c:	08006efd 	.word	0x08006efd
 8006f40:	0800708d 	.word	0x0800708d
 8006f44:	08006fb1 	.word	0x08006fb1
 8006f48:	0800706f 	.word	0x0800706f
 8006f4c:	08006efd 	.word	0x08006efd
 8006f50:	08006efd 	.word	0x08006efd
 8006f54:	080070af 	.word	0x080070af
 8006f58:	08006efd 	.word	0x08006efd
 8006f5c:	08006fb1 	.word	0x08006fb1
 8006f60:	08006efd 	.word	0x08006efd
 8006f64:	08006efd 	.word	0x08006efd
 8006f68:	08007077 	.word	0x08007077
 8006f6c:	680b      	ldr	r3, [r1, #0]
 8006f6e:	1d1a      	adds	r2, r3, #4
 8006f70:	681b      	ldr	r3, [r3, #0]
 8006f72:	600a      	str	r2, [r1, #0]
 8006f74:	f104 0642 	add.w	r6, r4, #66	; 0x42
 8006f78:	f884 3042 	strb.w	r3, [r4, #66]	; 0x42
 8006f7c:	2301      	movs	r3, #1
 8006f7e:	e0a3      	b.n	80070c8 <_printf_i+0x1f4>
 8006f80:	6825      	ldr	r5, [r4, #0]
 8006f82:	6808      	ldr	r0, [r1, #0]
 8006f84:	062e      	lsls	r6, r5, #24
 8006f86:	f100 0304 	add.w	r3, r0, #4
 8006f8a:	d50a      	bpl.n	8006fa2 <_printf_i+0xce>
 8006f8c:	6805      	ldr	r5, [r0, #0]
 8006f8e:	600b      	str	r3, [r1, #0]
 8006f90:	2d00      	cmp	r5, #0
 8006f92:	da03      	bge.n	8006f9c <_printf_i+0xc8>
 8006f94:	232d      	movs	r3, #45	; 0x2d
 8006f96:	426d      	negs	r5, r5
 8006f98:	f884 3043 	strb.w	r3, [r4, #67]	; 0x43
 8006f9c:	485e      	ldr	r0, [pc, #376]	; (8007118 <_printf_i+0x244>)
 8006f9e:	230a      	movs	r3, #10
 8006fa0:	e019      	b.n	8006fd6 <_printf_i+0x102>
 8006fa2:	f015 0f40 	tst.w	r5, #64	; 0x40
 8006fa6:	6805      	ldr	r5, [r0, #0]
 8006fa8:	600b      	str	r3, [r1, #0]
 8006faa:	bf18      	it	ne
 8006fac:	b22d      	sxthne	r5, r5
 8006fae:	e7ef      	b.n	8006f90 <_printf_i+0xbc>
 8006fb0:	680b      	ldr	r3, [r1, #0]
 8006fb2:	6825      	ldr	r5, [r4, #0]
 8006fb4:	1d18      	adds	r0, r3, #4
 8006fb6:	6008      	str	r0, [r1, #0]
 8006fb8:	0628      	lsls	r0, r5, #24
 8006fba:	d501      	bpl.n	8006fc0 <_printf_i+0xec>
 8006fbc:	681d      	ldr	r5, [r3, #0]
 8006fbe:	e002      	b.n	8006fc6 <_printf_i+0xf2>
 8006fc0:	0669      	lsls	r1, r5, #25
 8006fc2:	d5fb      	bpl.n	8006fbc <_printf_i+0xe8>
 8006fc4:	881d      	ldrh	r5, [r3, #0]
 8006fc6:	4854      	ldr	r0, [pc, #336]	; (8007118 <_printf_i+0x244>)
 8006fc8:	2f6f      	cmp	r7, #111	; 0x6f
 8006fca:	bf0c      	ite	eq
 8006fcc:	2308      	moveq	r3, #8
 8006fce:	230a      	movne	r3, #10
 8006fd0:	2100      	movs	r1, #0
 8006fd2:	f884 1043 	strb.w	r1, [r4, #67]	; 0x43
 8006fd6:	6866      	ldr	r6, [r4, #4]
 8006fd8:	60a6      	str	r6, [r4, #8]
 8006fda:	2e00      	cmp	r6, #0
 8006fdc:	bfa2      	ittt	ge
 8006fde:	6821      	ldrge	r1, [r4, #0]
 8006fe0:	f021 0104 	bicge.w	r1, r1, #4
 8006fe4:	6021      	strge	r1, [r4, #0]
 8006fe6:	b90d      	cbnz	r5, 8006fec <_printf_i+0x118>
 8006fe8:	2e00      	cmp	r6, #0
 8006fea:	d04d      	beq.n	8007088 <_printf_i+0x1b4>
 8006fec:	4616      	mov	r6, r2
 8006fee:	fbb5 f1f3 	udiv	r1, r5, r3
 8006ff2:	fb03 5711 	mls	r7, r3, r1, r5
 8006ff6:	5dc7      	ldrb	r7, [r0, r7]
 8006ff8:	f806 7d01 	strb.w	r7, [r6, #-1]!
 8006ffc:	462f      	mov	r7, r5
 8006ffe:	42bb      	cmp	r3, r7
 8007000:	460d      	mov	r5, r1
 8007002:	d9f4      	bls.n	8006fee <_printf_i+0x11a>
 8007004:	2b08      	cmp	r3, #8
 8007006:	d10b      	bne.n	8007020 <_printf_i+0x14c>
 8007008:	6823      	ldr	r3, [r4, #0]
 800700a:	07df      	lsls	r7, r3, #31
 800700c:	d508      	bpl.n	8007020 <_printf_i+0x14c>
 800700e:	6923      	ldr	r3, [r4, #16]
 8007010:	6861      	ldr	r1, [r4, #4]
 8007012:	4299      	cmp	r1, r3
 8007014:	bfde      	ittt	le
 8007016:	2330      	movle	r3, #48	; 0x30
 8007018:	f806 3c01 	strble.w	r3, [r6, #-1]
 800701c:	f106 36ff 	addle.w	r6, r6, #4294967295
 8007020:	1b92      	subs	r2, r2, r6
 8007022:	6122      	str	r2, [r4, #16]
 8007024:	f8cd a000 	str.w	sl, [sp]
 8007028:	464b      	mov	r3, r9
 800702a:	aa03      	add	r2, sp, #12
 800702c:	4621      	mov	r1, r4
 800702e:	4640      	mov	r0, r8
 8007030:	f7ff fee2 	bl	8006df8 <_printf_common>
 8007034:	3001      	adds	r0, #1
 8007036:	d14c      	bne.n	80070d2 <_printf_i+0x1fe>
 8007038:	f04f 30ff 	mov.w	r0, #4294967295
 800703c:	b004      	add	sp, #16
 800703e:	e8bd 87f0 	ldmia.w	sp!, {r4, r5, r6, r7, r8, r9, sl, pc}
 8007042:	4835      	ldr	r0, [pc, #212]	; (8007118 <_printf_i+0x244>)
 8007044:	f884 7045 	strb.w	r7, [r4, #69]	; 0x45
 8007048:	6823      	ldr	r3, [r4, #0]
 800704a:	680e      	ldr	r6, [r1, #0]
 800704c:	061f      	lsls	r7, r3, #24
 800704e:	f856 5b04 	ldr.w	r5, [r6], #4
 8007052:	600e      	str	r6, [r1, #0]
 8007054:	d514      	bpl.n	8007080 <_printf_i+0x1ac>
 8007056:	07d9      	lsls	r1, r3, #31
 8007058:	bf44      	itt	mi
 800705a:	f043 0320 	orrmi.w	r3, r3, #32
 800705e:	6023      	strmi	r3, [r4, #0]
 8007060:	b91d      	cbnz	r5, 800706a <_printf_i+0x196>
 8007062:	6823      	ldr	r3, [r4, #0]
 8007064:	f023 0320 	bic.w	r3, r3, #32
 8007068:	6023      	str	r3, [r4, #0]
 800706a:	2310      	movs	r3, #16
 800706c:	e7b0      	b.n	8006fd0 <_printf_i+0xfc>
 800706e:	6823      	ldr	r3, [r4, #0]
 8007070:	f043 0320 	orr.w	r3, r3, #32
 8007074:	6023      	str	r3, [r4, #0]
 8007076:	2378      	movs	r3, #120	; 0x78
 8007078:	4828      	ldr	r0, [pc, #160]	; (800711c <_printf_i+0x248>)
 800707a:	f884 3045 	strb.w	r3, [r4, #69]	; 0x45
 800707e:	e7e3      	b.n	8007048 <_printf_i+0x174>
 8007080:	065e      	lsls	r6, r3, #25
 8007082:	bf48      	it	mi
 8007084:	b2ad      	uxthmi	r5, r5
 8007086:	e7e6      	b.n	8007056 <_printf_i+0x182>
 8007088:	4616      	mov	r6, r2
 800708a:	e7bb      	b.n	8007004 <_printf_i+0x130>
 800708c:	680b      	ldr	r3, [r1, #0]
 800708e:	6826      	ldr	r6, [r4, #0]
 8007090:	6960      	ldr	r0, [r4, #20]
 8007092:	1d1d      	adds	r5, r3, #4
 8007094:	600d      	str	r5, [r1, #0]
 8007096:	0635      	lsls	r5, r6, #24
 8007098:	681b      	ldr	r3, [r3, #0]
 800709a:	d501      	bpl.n	80070a0 <_printf_i+0x1cc>
 800709c:	6018      	str	r0, [r3, #0]
 800709e:	e002      	b.n	80070a6 <_printf_i+0x1d2>
 80070a0:	0671      	lsls	r1, r6, #25
 80070a2:	d5fb      	bpl.n	800709c <_printf_i+0x1c8>
 80070a4:	8018      	strh	r0, [r3, #0]
 80070a6:	2300      	movs	r3, #0
 80070a8:	6123      	str	r3, [r4, #16]
 80070aa:	4616      	mov	r6, r2
 80070ac:	e7ba      	b.n	8007024 <_printf_i+0x150>
 80070ae:	680b      	ldr	r3, [r1, #0]
 80070b0:	1d1a      	adds	r2, r3, #4
 80070b2:	600a      	str	r2, [r1, #0]
 80070b4:	681e      	ldr	r6, [r3, #0]
 80070b6:	6862      	ldr	r2, [r4, #4]
 80070b8:	2100      	movs	r1, #0
 80070ba:	4630      	mov	r0, r6
 80070bc:	f7f9 f888 	bl	80001d0 <memchr>
 80070c0:	b108      	cbz	r0, 80070c6 <_printf_i+0x1f2>
 80070c2:	1b80      	subs	r0, r0, r6
 80070c4:	6060      	str	r0, [r4, #4]
 80070c6:	6863      	ldr	r3, [r4, #4]
 80070c8:	6123      	str	r3, [r4, #16]
 80070ca:	2300      	movs	r3, #0
 80070cc:	f884 3043 	strb.w	r3, [r4, #67]	; 0x43
 80070d0:	e7a8      	b.n	8007024 <_printf_i+0x150>
 80070d2:	6923      	ldr	r3, [r4, #16]
 80070d4:	4632      	mov	r2, r6
 80070d6:	4649      	mov	r1, r9
 80070d8:	4640      	mov	r0, r8
 80070da:	47d0      	blx	sl
 80070dc:	3001      	adds	r0, #1
 80070de:	d0ab      	beq.n	8007038 <_printf_i+0x164>
 80070e0:	6823      	ldr	r3, [r4, #0]
 80070e2:	079b      	lsls	r3, r3, #30
 80070e4:	d413      	bmi.n	800710e <_printf_i+0x23a>
 80070e6:	68e0      	ldr	r0, [r4, #12]
 80070e8:	9b03      	ldr	r3, [sp, #12]
 80070ea:	4298      	cmp	r0, r3
 80070ec:	bfb8      	it	lt
 80070ee:	4618      	movlt	r0, r3
 80070f0:	e7a4      	b.n	800703c <_printf_i+0x168>
 80070f2:	2301      	movs	r3, #1
 80070f4:	4632      	mov	r2, r6
 80070f6:	4649      	mov	r1, r9
 80070f8:	4640      	mov	r0, r8
 80070fa:	47d0      	blx	sl
 80070fc:	3001      	adds	r0, #1
 80070fe:	d09b      	beq.n	8007038 <_printf_i+0x164>
 8007100:	3501      	adds	r5, #1
 8007102:	68e3      	ldr	r3, [r4, #12]
 8007104:	9903      	ldr	r1, [sp, #12]
 8007106:	1a5b      	subs	r3, r3, r1
 8007108:	42ab      	cmp	r3, r5
 800710a:	dcf2      	bgt.n	80070f2 <_printf_i+0x21e>
 800710c:	e7eb      	b.n	80070e6 <_printf_i+0x212>
 800710e:	2500      	movs	r5, #0
 8007110:	f104 0619 	add.w	r6, r4, #25
 8007114:	e7f5      	b.n	8007102 <_printf_i+0x22e>
 8007116:	bf00      	nop
 8007118:	08008178 	.word	0x08008178
 800711c:	08008189 	.word	0x08008189

08007120 <memmove>:
 8007120:	4288      	cmp	r0, r1
 8007122:	b510      	push	{r4, lr}
 8007124:	eb01 0402 	add.w	r4, r1, r2
 8007128:	d902      	bls.n	8007130 <memmove+0x10>
 800712a:	4284      	cmp	r4, r0
 800712c:	4623      	mov	r3, r4
 800712e:	d807      	bhi.n	8007140 <memmove+0x20>
 8007130:	1e43      	subs	r3, r0, #1
 8007132:	42a1      	cmp	r1, r4
 8007134:	d008      	beq.n	8007148 <memmove+0x28>
 8007136:	f811 2b01 	ldrb.w	r2, [r1], #1
 800713a:	f803 2f01 	strb.w	r2, [r3, #1]!
 800713e:	e7f8      	b.n	8007132 <memmove+0x12>
 8007140:	4402      	add	r2, r0
 8007142:	4601      	mov	r1, r0
 8007144:	428a      	cmp	r2, r1
 8007146:	d100      	bne.n	800714a <memmove+0x2a>
 8007148:	bd10      	pop	{r4, pc}
 800714a:	f813 4d01 	ldrb.w	r4, [r3, #-1]!
 800714e:	f802 4d01 	strb.w	r4, [r2, #-1]!
 8007152:	e7f7      	b.n	8007144 <memmove+0x24>

08007154 <_free_r>:
 8007154:	b537      	push	{r0, r1, r2, r4, r5, lr}
 8007156:	2900      	cmp	r1, #0
 8007158:	d048      	beq.n	80071ec <_free_r+0x98>
 800715a:	f851 3c04 	ldr.w	r3, [r1, #-4]
 800715e:	9001      	str	r0, [sp, #4]
 8007160:	2b00      	cmp	r3, #0
 8007162:	f1a1 0404 	sub.w	r4, r1, #4
 8007166:	bfb8      	it	lt
 8007168:	18e4      	addlt	r4, r4, r3
 800716a:	f000 f8d3 	bl	8007314 <__malloc_lock>
 800716e:	4a20      	ldr	r2, [pc, #128]	; (80071f0 <_free_r+0x9c>)
 8007170:	9801      	ldr	r0, [sp, #4]
 8007172:	6813      	ldr	r3, [r2, #0]
 8007174:	4615      	mov	r5, r2
 8007176:	b933      	cbnz	r3, 8007186 <_free_r+0x32>
 8007178:	6063      	str	r3, [r4, #4]
 800717a:	6014      	str	r4, [r2, #0]
 800717c:	b003      	add	sp, #12
 800717e:	e8bd 4030 	ldmia.w	sp!, {r4, r5, lr}
 8007182:	f000 b8cd 	b.w	8007320 <__malloc_unlock>
 8007186:	42a3      	cmp	r3, r4
 8007188:	d90b      	bls.n	80071a2 <_free_r+0x4e>
 800718a:	6821      	ldr	r1, [r4, #0]
 800718c:	1862      	adds	r2, r4, r1
 800718e:	4293      	cmp	r3, r2
 8007190:	bf04      	itt	eq
 8007192:	681a      	ldreq	r2, [r3, #0]
 8007194:	685b      	ldreq	r3, [r3, #4]
 8007196:	6063      	str	r3, [r4, #4]
 8007198:	bf04      	itt	eq
 800719a:	1852      	addeq	r2, r2, r1
 800719c:	6022      	streq	r2, [r4, #0]
 800719e:	602c      	str	r4, [r5, #0]
 80071a0:	e7ec      	b.n	800717c <_free_r+0x28>
 80071a2:	461a      	mov	r2, r3
 80071a4:	685b      	ldr	r3, [r3, #4]
 80071a6:	b10b      	cbz	r3, 80071ac <_free_r+0x58>
 80071a8:	42a3      	cmp	r3, r4
 80071aa:	d9fa      	bls.n	80071a2 <_free_r+0x4e>
 80071ac:	6811      	ldr	r1, [r2, #0]
 80071ae:	1855      	adds	r5, r2, r1
 80071b0:	42a5      	cmp	r5, r4
 80071b2:	d10b      	bne.n	80071cc <_free_r+0x78>
 80071b4:	6824      	ldr	r4, [r4, #0]
 80071b6:	4421      	add	r1, r4
 80071b8:	1854      	adds	r4, r2, r1
 80071ba:	42a3      	cmp	r3, r4
 80071bc:	6011      	str	r1, [r2, #0]
 80071be:	d1dd      	bne.n	800717c <_free_r+0x28>
 80071c0:	681c      	ldr	r4, [r3, #0]
 80071c2:	685b      	ldr	r3, [r3, #4]
 80071c4:	6053      	str	r3, [r2, #4]
 80071c6:	4421      	add	r1, r4
 80071c8:	6011      	str	r1, [r2, #0]
 80071ca:	e7d7      	b.n	800717c <_free_r+0x28>
 80071cc:	d902      	bls.n	80071d4 <_free_r+0x80>
 80071ce:	230c      	movs	r3, #12
 80071d0:	6003      	str	r3, [r0, #0]
 80071d2:	e7d3      	b.n	800717c <_free_r+0x28>
 80071d4:	6825      	ldr	r5, [r4, #0]
 80071d6:	1961      	adds	r1, r4, r5
 80071d8:	428b      	cmp	r3, r1
 80071da:	bf04      	itt	eq
 80071dc:	6819      	ldreq	r1, [r3, #0]
 80071de:	685b      	ldreq	r3, [r3, #4]
 80071e0:	6063      	str	r3, [r4, #4]
 80071e2:	bf04      	itt	eq
 80071e4:	1949      	addeq	r1, r1, r5
 80071e6:	6021      	streq	r1, [r4, #0]
 80071e8:	6054      	str	r4, [r2, #4]
 80071ea:	e7c7      	b.n	800717c <_free_r+0x28>
 80071ec:	b003      	add	sp, #12
 80071ee:	bd30      	pop	{r4, r5, pc}
 80071f0:	200049a0 	.word	0x200049a0

080071f4 <_malloc_r>:
 80071f4:	b5f8      	push	{r3, r4, r5, r6, r7, lr}
 80071f6:	1ccd      	adds	r5, r1, #3
 80071f8:	f025 0503 	bic.w	r5, r5, #3
 80071fc:	3508      	adds	r5, #8
 80071fe:	2d0c      	cmp	r5, #12
 8007200:	bf38      	it	cc
 8007202:	250c      	movcc	r5, #12
 8007204:	2d00      	cmp	r5, #0
 8007206:	4606      	mov	r6, r0
 8007208:	db01      	blt.n	800720e <_malloc_r+0x1a>
 800720a:	42a9      	cmp	r1, r5
 800720c:	d903      	bls.n	8007216 <_malloc_r+0x22>
 800720e:	230c      	movs	r3, #12
 8007210:	6033      	str	r3, [r6, #0]
 8007212:	2000      	movs	r0, #0
 8007214:	bdf8      	pop	{r3, r4, r5, r6, r7, pc}
 8007216:	f000 f87d 	bl	8007314 <__malloc_lock>
 800721a:	4921      	ldr	r1, [pc, #132]	; (80072a0 <_malloc_r+0xac>)
 800721c:	680a      	ldr	r2, [r1, #0]
 800721e:	4614      	mov	r4, r2
 8007220:	b99c      	cbnz	r4, 800724a <_malloc_r+0x56>
 8007222:	4f20      	ldr	r7, [pc, #128]	; (80072a4 <_malloc_r+0xb0>)
 8007224:	683b      	ldr	r3, [r7, #0]
 8007226:	b923      	cbnz	r3, 8007232 <_malloc_r+0x3e>
 8007228:	4621      	mov	r1, r4
 800722a:	4630      	mov	r0, r6
 800722c:	f000 f862 	bl	80072f4 <_sbrk_r>
 8007230:	6038      	str	r0, [r7, #0]
 8007232:	4629      	mov	r1, r5
 8007234:	4630      	mov	r0, r6
 8007236:	f000 f85d 	bl	80072f4 <_sbrk_r>
 800723a:	1c43      	adds	r3, r0, #1
 800723c:	d123      	bne.n	8007286 <_malloc_r+0x92>
 800723e:	230c      	movs	r3, #12
 8007240:	6033      	str	r3, [r6, #0]
 8007242:	4630      	mov	r0, r6
 8007244:	f000 f86c 	bl	8007320 <__malloc_unlock>
 8007248:	e7e3      	b.n	8007212 <_malloc_r+0x1e>
 800724a:	6823      	ldr	r3, [r4, #0]
 800724c:	1b5b      	subs	r3, r3, r5
 800724e:	d417      	bmi.n	8007280 <_malloc_r+0x8c>
 8007250:	2b0b      	cmp	r3, #11
 8007252:	d903      	bls.n	800725c <_malloc_r+0x68>
 8007254:	6023      	str	r3, [r4, #0]
 8007256:	441c      	add	r4, r3
 8007258:	6025      	str	r5, [r4, #0]
 800725a:	e004      	b.n	8007266 <_malloc_r+0x72>
 800725c:	6863      	ldr	r3, [r4, #4]
 800725e:	42a2      	cmp	r2, r4
 8007260:	bf0c      	ite	eq
 8007262:	600b      	streq	r3, [r1, #0]
 8007264:	6053      	strne	r3, [r2, #4]
 8007266:	4630      	mov	r0, r6
 8007268:	f000 f85a 	bl	8007320 <__malloc_unlock>
 800726c:	f104 000b 	add.w	r0, r4, #11
 8007270:	1d23      	adds	r3, r4, #4
 8007272:	f020 0007 	bic.w	r0, r0, #7
 8007276:	1ac2      	subs	r2, r0, r3
 8007278:	d0cc      	beq.n	8007214 <_malloc_r+0x20>
 800727a:	1a1b      	subs	r3, r3, r0
 800727c:	50a3      	str	r3, [r4, r2]
 800727e:	e7c9      	b.n	8007214 <_malloc_r+0x20>
 8007280:	4622      	mov	r2, r4
 8007282:	6864      	ldr	r4, [r4, #4]
 8007284:	e7cc      	b.n	8007220 <_malloc_r+0x2c>
 8007286:	1cc4      	adds	r4, r0, #3
 8007288:	f024 0403 	bic.w	r4, r4, #3
 800728c:	42a0      	cmp	r0, r4
 800728e:	d0e3      	beq.n	8007258 <_malloc_r+0x64>
 8007290:	1a21      	subs	r1, r4, r0
 8007292:	4630      	mov	r0, r6
 8007294:	f000 f82e 	bl	80072f4 <_sbrk_r>
 8007298:	3001      	adds	r0, #1
 800729a:	d1dd      	bne.n	8007258 <_malloc_r+0x64>
 800729c:	e7cf      	b.n	800723e <_malloc_r+0x4a>
 800729e:	bf00      	nop
 80072a0:	200049a0 	.word	0x200049a0
 80072a4:	200049a4 	.word	0x200049a4

080072a8 <_realloc_r>:
 80072a8:	b5f8      	push	{r3, r4, r5, r6, r7, lr}
 80072aa:	4607      	mov	r7, r0
 80072ac:	4614      	mov	r4, r2
 80072ae:	460e      	mov	r6, r1
 80072b0:	b921      	cbnz	r1, 80072bc <_realloc_r+0x14>
 80072b2:	e8bd 40f8 	ldmia.w	sp!, {r3, r4, r5, r6, r7, lr}
 80072b6:	4611      	mov	r1, r2
 80072b8:	f7ff bf9c 	b.w	80071f4 <_malloc_r>
 80072bc:	b922      	cbnz	r2, 80072c8 <_realloc_r+0x20>
 80072be:	f7ff ff49 	bl	8007154 <_free_r>
 80072c2:	4625      	mov	r5, r4
 80072c4:	4628      	mov	r0, r5
 80072c6:	bdf8      	pop	{r3, r4, r5, r6, r7, pc}
 80072c8:	f000 f830 	bl	800732c <_malloc_usable_size_r>
 80072cc:	42a0      	cmp	r0, r4
 80072ce:	d20f      	bcs.n	80072f0 <_realloc_r+0x48>
 80072d0:	4621      	mov	r1, r4
 80072d2:	4638      	mov	r0, r7
 80072d4:	f7ff ff8e 	bl	80071f4 <_malloc_r>
 80072d8:	4605      	mov	r5, r0
 80072da:	2800      	cmp	r0, #0
 80072dc:	d0f2      	beq.n	80072c4 <_realloc_r+0x1c>
 80072de:	4631      	mov	r1, r6
 80072e0:	4622      	mov	r2, r4
 80072e2:	f7ff fb4d 	bl	8006980 <memcpy>
 80072e6:	4631      	mov	r1, r6
 80072e8:	4638      	mov	r0, r7
 80072ea:	f7ff ff33 	bl	8007154 <_free_r>
 80072ee:	e7e9      	b.n	80072c4 <_realloc_r+0x1c>
 80072f0:	4635      	mov	r5, r6
 80072f2:	e7e7      	b.n	80072c4 <_realloc_r+0x1c>

080072f4 <_sbrk_r>:
 80072f4:	b538      	push	{r3, r4, r5, lr}
 80072f6:	4d06      	ldr	r5, [pc, #24]	; (8007310 <_sbrk_r+0x1c>)
 80072f8:	2300      	movs	r3, #0
 80072fa:	4604      	mov	r4, r0
 80072fc:	4608      	mov	r0, r1
 80072fe:	602b      	str	r3, [r5, #0]
 8007300:	f7fb fb32 	bl	8002968 <_sbrk>
 8007304:	1c43      	adds	r3, r0, #1
 8007306:	d102      	bne.n	800730e <_sbrk_r+0x1a>
 8007308:	682b      	ldr	r3, [r5, #0]
 800730a:	b103      	cbz	r3, 800730e <_sbrk_r+0x1a>
 800730c:	6023      	str	r3, [r4, #0]
 800730e:	bd38      	pop	{r3, r4, r5, pc}
 8007310:	2000a034 	.word	0x2000a034

08007314 <__malloc_lock>:
 8007314:	4801      	ldr	r0, [pc, #4]	; (800731c <__malloc_lock+0x8>)
 8007316:	f000 b811 	b.w	800733c <__retarget_lock_acquire_recursive>
 800731a:	bf00      	nop
 800731c:	2000a03c 	.word	0x2000a03c

08007320 <__malloc_unlock>:
 8007320:	4801      	ldr	r0, [pc, #4]	; (8007328 <__malloc_unlock+0x8>)
 8007322:	f000 b80c 	b.w	800733e <__retarget_lock_release_recursive>
 8007326:	bf00      	nop
 8007328:	2000a03c 	.word	0x2000a03c

0800732c <_malloc_usable_size_r>:
 800732c:	f851 3c04 	ldr.w	r3, [r1, #-4]
 8007330:	1f18      	subs	r0, r3, #4
 8007332:	2b00      	cmp	r3, #0
 8007334:	bfbc      	itt	lt
 8007336:	580b      	ldrlt	r3, [r1, r0]
 8007338:	18c0      	addlt	r0, r0, r3
 800733a:	4770      	bx	lr

0800733c <__retarget_lock_acquire_recursive>:
 800733c:	4770      	bx	lr

0800733e <__retarget_lock_release_recursive>:
 800733e:	4770      	bx	lr

08007340 <_init>:
 8007340:	b5f8      	push	{r3, r4, r5, r6, r7, lr}
 8007342:	bf00      	nop
 8007344:	bcf8      	pop	{r3, r4, r5, r6, r7}
 8007346:	bc08      	pop	{r3}
 8007348:	469e      	mov	lr, r3
 800734a:	4770      	bx	lr

0800734c <_fini>:
 800734c:	b5f8      	push	{r3, r4, r5, r6, r7, lr}
 800734e:	bf00      	nop
 8007350:	bcf8      	pop	{r3, r4, r5, r6, r7}
 8007352:	bc08      	pop	{r3}
 8007354:	469e      	mov	lr, r3
 8007356:	4770      	bx	lr
